 six_plus_six_AcmsteeringV09_main_2lflm_sfun

 Timestamp is 5fbb7f99 (Mon Nov 23 17:23:37 2020)

 Preferred load address is 0000000180000000

 Start         Length     Name                   Class
 0001:00000000 003912b4H .text                   CODE
 0001:003912c0 00000092H .text$x                 CODE
 0002:00000000 00000488H .idata$5                DATA
 0002:00000488 00000008H .CRT$XCA                DATA
 0002:00000490 00000008H .CRT$XCZ                DATA
 0002:00000498 00000008H .CRT$XIA                DATA
 0002:000004a0 00000008H .CRT$XIAA               DATA
 0002:000004a8 00000008H .CRT$XIZ                DATA
 0002:000004b0 00000b84H .rdata                  DATA
 0002:00001038 00000008H .rtc$IAA                DATA
 0002:00001040 00000008H .rtc$IZZ                DATA
 0002:00001048 00000008H .rtc$TAA                DATA
 0002:00001050 00000008H .rtc$TZZ                DATA
 0002:00001058 000090a4H .xdata                  DATA
 0002:0000a0fc 0000008cH .idata$2                DATA
 0002:0000a188 00000014H .idata$3                DATA
 0002:0000a1a0 00000488H .idata$4                DATA
 0002:0000a628 00000c66H .idata$6                DATA
 0002:0000b290 00000071H .edata                  DATA
 0003:00000000 000b6f48H .data                   DATA
 0003:000b6f50 00000bb8H .bss                    DATA
 0004:00000000 0000d1d0H .pdata                  DATA

  Address         Publics by Value              Rva+Base               Lib:Object

 0000:00000000       ___safe_se_handler_table   0000000000000000     <absolute>
 0000:00000000       ___safe_se_handler_count   0000000000000000     <absolute>
 0000:00000000       __ImageBase                0000000180000000     <linker-defined>
 0001:00000000       six_plus_six_AcmsteeringV09_main_2lflm_initializer 0000000180001000 f   six_plus_six_AcmsteeringV09_main_2lflm_sfun.obj
 0001:00000010       six_plus_six_AcmsteeringV09_main_2lflm_terminator 0000000180001010 f   six_plus_six_AcmsteeringV09_main_2lflm_sfun.obj
 0001:00000020       sf_six_plus_six_AcmsteeringV09_main_2lflm_method_dispatcher 0000000180001020 f   six_plus_six_AcmsteeringV09_main_2lflm_sfun.obj
 0001:00001060       sf_six_plus_six_AcmsteeringV09_main_2lflm_process_check_sum_call 0000000180002060 f   six_plus_six_AcmsteeringV09_main_2lflm_sfun.obj
 0001:00001dd0       sf_six_plus_six_AcmsteeringV09_main_2lflm_autoinheritance_info 0000000180002dd0 f   six_plus_six_AcmsteeringV09_main_2lflm_sfun.obj
 0001:000040f0       sf_six_plus_six_AcmsteeringV09_main_2lflm_get_eml_resolved_functions_info 00000001800050f0 f   six_plus_six_AcmsteeringV09_main_2lflm_sfun.obj
 0001:00005d30       sf_six_plus_six_AcmsteeringV09_main_2lflm_third_party_uses_info 0000000180006d30 f   six_plus_six_AcmsteeringV09_main_2lflm_sfun.obj
 0001:000073d0       sf_six_plus_six_AcmsteeringV09_main_2lflm_updateBuildInfo_args_info 00000001800083d0 f   six_plus_six_AcmsteeringV09_main_2lflm_sfun.obj
 0001:00008a70       six_plus_six_AcmsteeringV09_main_2lflm_debug_initialize 0000000180009a70 f   six_plus_six_AcmsteeringV09_main_2lflm_sfun.obj
 0001:00008af0       six_plus_six_AcmsteeringV09_main_2lflm_register_exported_symbols 0000000180009af0 f   six_plus_six_AcmsteeringV09_main_2lflm_sfun.obj
 0001:00008b00       load_six_plus_six_AcmsteeringV09_main_2lflm_optimization_info 0000000180009b00 f   six_plus_six_AcmsteeringV09_main_2lflm_sfun.obj
 0001:00008b50       unload_six_plus_six_AcmsteeringV09_main_2lflm_optimization_info 0000000180009b50 f   six_plus_six_AcmsteeringV09_main_2lflm_sfun.obj
 0001:00008b80       sf_c1_six_plus_six_AcmsteeringV09_main_2lflm_get_eml_resolved_functions_info 0000000180009b80 f   c1_six_plus_six_AcmsteeringV09_main_2lflm.obj
 0001:00008c00       sf_c1_six_plus_six_AcmsteeringV09_main_2lflm_get_check_sum 0000000180009c00 f   c1_six_plus_six_AcmsteeringV09_main_2lflm.obj
 0001:00008c80       sf_c1_six_plus_six_AcmsteeringV09_main_2lflm_get_autoinheritance_info 0000000180009c80 f   c1_six_plus_six_AcmsteeringV09_main_2lflm.obj
 0001:000090a0       sf_c1_six_plus_six_AcmsteeringV09_main_2lflm_third_party_uses_info 000000018000a0a0 f   c1_six_plus_six_AcmsteeringV09_main_2lflm.obj
 0001:000090d0       sf_c1_six_plus_six_AcmsteeringV09_main_2lflm_updateBuildInfo_args_info 000000018000a0d0 f   c1_six_plus_six_AcmsteeringV09_main_2lflm.obj
 0001:00009100       sf_internal_get_sim_state_c1_six_plus_six_AcmsteeringV09_main_2lflm 000000018000a100 f   c1_six_plus_six_AcmsteeringV09_main_2lflm.obj
 0001:00009460       sf_internal_set_sim_state_c1_six_plus_six_AcmsteeringV09_main_2lflm 000000018000a460 f   c1_six_plus_six_AcmsteeringV09_main_2lflm.obj
 0001:00009850       c1_six_plus_six_AcmsteeringV09_main_2lflm_method_dispatcher 000000018000a850 f   c1_six_plus_six_AcmsteeringV09_main_2lflm.obj
 0001:0000b5c0       sf_c2_six_plus_six_AcmsteeringV09_main_2lflm_get_eml_resolved_functions_info 000000018000c5c0 f   c2_six_plus_six_AcmsteeringV09_main_2lflm.obj
 0001:0000cf60       sf_c2_six_plus_six_AcmsteeringV09_main_2lflm_get_check_sum 000000018000df60 f   c2_six_plus_six_AcmsteeringV09_main_2lflm.obj
 0001:0000cfe0       sf_c2_six_plus_six_AcmsteeringV09_main_2lflm_get_autoinheritance_info 000000018000dfe0 f   c2_six_plus_six_AcmsteeringV09_main_2lflm.obj
 0001:0000da60       sf_c2_six_plus_six_AcmsteeringV09_main_2lflm_third_party_uses_info 000000018000ea60 f   c2_six_plus_six_AcmsteeringV09_main_2lflm.obj
 0001:0000da90       sf_c2_six_plus_six_AcmsteeringV09_main_2lflm_updateBuildInfo_args_info 000000018000ea90 f   c2_six_plus_six_AcmsteeringV09_main_2lflm.obj
 0001:0000dac0       sf_internal_get_sim_state_c2_six_plus_six_AcmsteeringV09_main_2lflm 000000018000eac0 f   c2_six_plus_six_AcmsteeringV09_main_2lflm.obj
 0001:0000de20       sf_internal_set_sim_state_c2_six_plus_six_AcmsteeringV09_main_2lflm 000000018000ee20 f   c2_six_plus_six_AcmsteeringV09_main_2lflm.obj
 0001:0000e210       c2_six_plus_six_AcmsteeringV09_main_2lflm_method_dispatcher 000000018000f210 f   c2_six_plus_six_AcmsteeringV09_main_2lflm.obj
 0001:00010be0       sf_c3_six_plus_six_AcmsteeringV09_main_2lflm_get_eml_resolved_functions_info 0000000180011be0 f   c3_six_plus_six_AcmsteeringV09_main_2lflm.obj
 0001:00010c60       sf_c3_six_plus_six_AcmsteeringV09_main_2lflm_get_check_sum 0000000180011c60 f   c3_six_plus_six_AcmsteeringV09_main_2lflm.obj
 0001:00010ce0       sf_c3_six_plus_six_AcmsteeringV09_main_2lflm_get_autoinheritance_info 0000000180011ce0 f   c3_six_plus_six_AcmsteeringV09_main_2lflm.obj
 0001:00011100       sf_c3_six_plus_six_AcmsteeringV09_main_2lflm_third_party_uses_info 0000000180012100 f   c3_six_plus_six_AcmsteeringV09_main_2lflm.obj
 0001:00011130       sf_c3_six_plus_six_AcmsteeringV09_main_2lflm_updateBuildInfo_args_info 0000000180012130 f   c3_six_plus_six_AcmsteeringV09_main_2lflm.obj
 0001:00011160       sf_internal_get_sim_state_c3_six_plus_six_AcmsteeringV09_main_2lflm 0000000180012160 f   c3_six_plus_six_AcmsteeringV09_main_2lflm.obj
 0001:000114c0       sf_internal_set_sim_state_c3_six_plus_six_AcmsteeringV09_main_2lflm 00000001800124c0 f   c3_six_plus_six_AcmsteeringV09_main_2lflm.obj
 0001:000118b0       c3_six_plus_six_AcmsteeringV09_main_2lflm_method_dispatcher 00000001800128b0 f   c3_six_plus_six_AcmsteeringV09_main_2lflm.obj
 0001:00013620       sf_c4_six_plus_six_AcmsteeringV09_main_2lflm_get_eml_resolved_functions_info 0000000180014620 f   c4_six_plus_six_AcmsteeringV09_main_2lflm.obj
 0001:00015230       sf_c4_six_plus_six_AcmsteeringV09_main_2lflm_get_check_sum 0000000180016230 f   c4_six_plus_six_AcmsteeringV09_main_2lflm.obj
 0001:000152b0       sf_c4_six_plus_six_AcmsteeringV09_main_2lflm_get_autoinheritance_info 00000001800162b0 f   c4_six_plus_six_AcmsteeringV09_main_2lflm.obj
 0001:00016240       sf_c4_six_plus_six_AcmsteeringV09_main_2lflm_third_party_uses_info 0000000180017240 f   c4_six_plus_six_AcmsteeringV09_main_2lflm.obj
 0001:00016270       sf_c4_six_plus_six_AcmsteeringV09_main_2lflm_updateBuildInfo_args_info 0000000180017270 f   c4_six_plus_six_AcmsteeringV09_main_2lflm.obj
 0001:000162a0       sf_internal_get_sim_state_c4_six_plus_six_AcmsteeringV09_main_2lflm 00000001800172a0 f   c4_six_plus_six_AcmsteeringV09_main_2lflm.obj
 0001:00016600       sf_internal_set_sim_state_c4_six_plus_six_AcmsteeringV09_main_2lflm 0000000180017600 f   c4_six_plus_six_AcmsteeringV09_main_2lflm.obj
 0001:000169f0       c4_six_plus_six_AcmsteeringV09_main_2lflm_method_dispatcher 00000001800179f0 f   c4_six_plus_six_AcmsteeringV09_main_2lflm.obj
 0001:0001a230       sf_c5_six_plus_six_AcmsteeringV09_main_2lflm_get_eml_resolved_functions_info 000000018001b230 f   c5_six_plus_six_AcmsteeringV09_main_2lflm.obj
 0001:0001de10       sf_c5_six_plus_six_AcmsteeringV09_main_2lflm_get_check_sum 000000018001ee10 f   c5_six_plus_six_AcmsteeringV09_main_2lflm.obj
 0001:0001de90       sf_c5_six_plus_six_AcmsteeringV09_main_2lflm_get_autoinheritance_info 000000018001ee90 f   c5_six_plus_six_AcmsteeringV09_main_2lflm.obj
 0001:0001e400       sf_c5_six_plus_six_AcmsteeringV09_main_2lflm_third_party_uses_info 000000018001f400 f   c5_six_plus_six_AcmsteeringV09_main_2lflm.obj
 0001:0001e430       sf_c5_six_plus_six_AcmsteeringV09_main_2lflm_updateBuildInfo_args_info 000000018001f430 f   c5_six_plus_six_AcmsteeringV09_main_2lflm.obj
 0001:0001e460       sf_internal_get_sim_state_c5_six_plus_six_AcmsteeringV09_main_2lflm 000000018001f460 f   c5_six_plus_six_AcmsteeringV09_main_2lflm.obj
 0001:0001e7d0       sf_internal_set_sim_state_c5_six_plus_six_AcmsteeringV09_main_2lflm 000000018001f7d0 f   c5_six_plus_six_AcmsteeringV09_main_2lflm.obj
 0001:0001ebc0       c5_six_plus_six_AcmsteeringV09_main_2lflm_method_dispatcher 000000018001fbc0 f   c5_six_plus_six_AcmsteeringV09_main_2lflm.obj
 0001:00020b10       sf_c6_six_plus_six_AcmsteeringV09_main_2lflm_get_eml_resolved_functions_info 0000000180021b10 f   c6_six_plus_six_AcmsteeringV09_main_2lflm.obj
 0001:00020b90       sf_c6_six_plus_six_AcmsteeringV09_main_2lflm_get_check_sum 0000000180021b90 f   c6_six_plus_six_AcmsteeringV09_main_2lflm.obj
 0001:00020c10       sf_c6_six_plus_six_AcmsteeringV09_main_2lflm_get_autoinheritance_info 0000000180021c10 f   c6_six_plus_six_AcmsteeringV09_main_2lflm.obj
 0001:00021030       sf_c6_six_plus_six_AcmsteeringV09_main_2lflm_third_party_uses_info 0000000180022030 f   c6_six_plus_six_AcmsteeringV09_main_2lflm.obj
 0001:00021060       sf_c6_six_plus_six_AcmsteeringV09_main_2lflm_updateBuildInfo_args_info 0000000180022060 f   c6_six_plus_six_AcmsteeringV09_main_2lflm.obj
 0001:00021090       sf_internal_get_sim_state_c6_six_plus_six_AcmsteeringV09_main_2lflm 0000000180022090 f   c6_six_plus_six_AcmsteeringV09_main_2lflm.obj
 0001:000213f0       sf_internal_set_sim_state_c6_six_plus_six_AcmsteeringV09_main_2lflm 00000001800223f0 f   c6_six_plus_six_AcmsteeringV09_main_2lflm.obj
 0001:000217e0       c6_six_plus_six_AcmsteeringV09_main_2lflm_method_dispatcher 00000001800227e0 f   c6_six_plus_six_AcmsteeringV09_main_2lflm.obj
 0001:00023370       sf_c7_six_plus_six_AcmsteeringV09_main_2lflm_get_eml_resolved_functions_info 0000000180024370 f   c7_six_plus_six_AcmsteeringV09_main_2lflm.obj
 0001:000233f0       sf_c7_six_plus_six_AcmsteeringV09_main_2lflm_get_check_sum 00000001800243f0 f   c7_six_plus_six_AcmsteeringV09_main_2lflm.obj
 0001:00023470       sf_c7_six_plus_six_AcmsteeringV09_main_2lflm_get_autoinheritance_info 0000000180024470 f   c7_six_plus_six_AcmsteeringV09_main_2lflm.obj
 0001:00023890       sf_c7_six_plus_six_AcmsteeringV09_main_2lflm_third_party_uses_info 0000000180024890 f   c7_six_plus_six_AcmsteeringV09_main_2lflm.obj
 0001:000238c0       sf_c7_six_plus_six_AcmsteeringV09_main_2lflm_updateBuildInfo_args_info 00000001800248c0 f   c7_six_plus_six_AcmsteeringV09_main_2lflm.obj
 0001:000238f0       sf_internal_get_sim_state_c7_six_plus_six_AcmsteeringV09_main_2lflm 00000001800248f0 f   c7_six_plus_six_AcmsteeringV09_main_2lflm.obj
 0001:00023c50       sf_internal_set_sim_state_c7_six_plus_six_AcmsteeringV09_main_2lflm 0000000180024c50 f   c7_six_plus_six_AcmsteeringV09_main_2lflm.obj
 0001:00024040       c7_six_plus_six_AcmsteeringV09_main_2lflm_method_dispatcher 0000000180025040 f   c7_six_plus_six_AcmsteeringV09_main_2lflm.obj
 0001:00025db0       sf_c8_six_plus_six_AcmsteeringV09_main_2lflm_get_eml_resolved_functions_info 0000000180026db0 f   c8_six_plus_six_AcmsteeringV09_main_2lflm.obj
 0001:000279c0       sf_c8_six_plus_six_AcmsteeringV09_main_2lflm_get_check_sum 00000001800289c0 f   c8_six_plus_six_AcmsteeringV09_main_2lflm.obj
 0001:00027a40       sf_c8_six_plus_six_AcmsteeringV09_main_2lflm_get_autoinheritance_info 0000000180028a40 f   c8_six_plus_six_AcmsteeringV09_main_2lflm.obj
 0001:000284c0       sf_c8_six_plus_six_AcmsteeringV09_main_2lflm_third_party_uses_info 00000001800294c0 f   c8_six_plus_six_AcmsteeringV09_main_2lflm.obj
 0001:000284f0       sf_c8_six_plus_six_AcmsteeringV09_main_2lflm_updateBuildInfo_args_info 00000001800294f0 f   c8_six_plus_six_AcmsteeringV09_main_2lflm.obj
 0001:00028520       sf_internal_get_sim_state_c8_six_plus_six_AcmsteeringV09_main_2lflm 0000000180029520 f   c8_six_plus_six_AcmsteeringV09_main_2lflm.obj
 0001:00028940       sf_internal_set_sim_state_c8_six_plus_six_AcmsteeringV09_main_2lflm 0000000180029940 f   c8_six_plus_six_AcmsteeringV09_main_2lflm.obj
 0001:00028d70       c8_six_plus_six_AcmsteeringV09_main_2lflm_method_dispatcher 0000000180029d70 f   c8_six_plus_six_AcmsteeringV09_main_2lflm.obj
 0001:0002bf30       sf_c9_six_plus_six_AcmsteeringV09_main_2lflm_get_eml_resolved_functions_info 000000018002cf30 f   c9_six_plus_six_AcmsteeringV09_main_2lflm.obj
 0001:0002f8a0       sf_c9_six_plus_six_AcmsteeringV09_main_2lflm_get_check_sum 00000001800308a0 f   c9_six_plus_six_AcmsteeringV09_main_2lflm.obj
 0001:0002f920       sf_c9_six_plus_six_AcmsteeringV09_main_2lflm_get_autoinheritance_info 0000000180030920 f   c9_six_plus_six_AcmsteeringV09_main_2lflm.obj
 0001:00031ab0       sf_c9_six_plus_six_AcmsteeringV09_main_2lflm_third_party_uses_info 0000000180032ab0 f   c9_six_plus_six_AcmsteeringV09_main_2lflm.obj
 0001:00031ae0       sf_c9_six_plus_six_AcmsteeringV09_main_2lflm_updateBuildInfo_args_info 0000000180032ae0 f   c9_six_plus_six_AcmsteeringV09_main_2lflm.obj
 0001:00031b10       sf_internal_get_sim_state_c9_six_plus_six_AcmsteeringV09_main_2lflm 0000000180032b10 f   c9_six_plus_six_AcmsteeringV09_main_2lflm.obj
 0001:000324a0       sf_internal_set_sim_state_c9_six_plus_six_AcmsteeringV09_main_2lflm 00000001800334a0 f   c9_six_plus_six_AcmsteeringV09_main_2lflm.obj
 0001:00032c30       c9_six_plus_six_AcmsteeringV09_main_2lflm_method_dispatcher 0000000180033c30 f   c9_six_plus_six_AcmsteeringV09_main_2lflm.obj
 0001:0008bff0       sf_c10_six_plus_six_AcmsteeringV09_main_2lflm_get_eml_resolved_functions_info 000000018008cff0 f   c10_six_plus_six_AcmsteeringV09_main_2lflm.obj
 0001:0008c070       sf_c10_six_plus_six_AcmsteeringV09_main_2lflm_get_check_sum 000000018008d070 f   c10_six_plus_six_AcmsteeringV09_main_2lflm.obj
 0001:0008c0f0       sf_c10_six_plus_six_AcmsteeringV09_main_2lflm_get_autoinheritance_info 000000018008d0f0 f   c10_six_plus_six_AcmsteeringV09_main_2lflm.obj
 0001:0008c510       sf_c10_six_plus_six_AcmsteeringV09_main_2lflm_third_party_uses_info 000000018008d510 f   c10_six_plus_six_AcmsteeringV09_main_2lflm.obj
 0001:0008c540       sf_c10_six_plus_six_AcmsteeringV09_main_2lflm_updateBuildInfo_args_info 000000018008d540 f   c10_six_plus_six_AcmsteeringV09_main_2lflm.obj
 0001:0008c570       sf_internal_get_sim_state_c10_six_plus_six_AcmsteeringV09_main_2lflm 000000018008d570 f   c10_six_plus_six_AcmsteeringV09_main_2lflm.obj
 0001:0008c8d0       sf_internal_set_sim_state_c10_six_plus_six_AcmsteeringV09_main_2lflm 000000018008d8d0 f   c10_six_plus_six_AcmsteeringV09_main_2lflm.obj
 0001:0008ccc0       c10_six_plus_six_AcmsteeringV09_main_2lflm_method_dispatcher 000000018008dcc0 f   c10_six_plus_six_AcmsteeringV09_main_2lflm.obj
 0001:0008ea30       sf_c11_six_plus_six_AcmsteeringV09_main_2lflm_get_eml_resolved_functions_info 000000018008fa30 f   c11_six_plus_six_AcmsteeringV09_main_2lflm.obj
 0001:0008eab0       sf_c11_six_plus_six_AcmsteeringV09_main_2lflm_get_check_sum 000000018008fab0 f   c11_six_plus_six_AcmsteeringV09_main_2lflm.obj
 0001:0008eb30       sf_c11_six_plus_six_AcmsteeringV09_main_2lflm_get_autoinheritance_info 000000018008fb30 f   c11_six_plus_six_AcmsteeringV09_main_2lflm.obj
 0001:0008ef50       sf_c11_six_plus_six_AcmsteeringV09_main_2lflm_third_party_uses_info 000000018008ff50 f   c11_six_plus_six_AcmsteeringV09_main_2lflm.obj
 0001:0008ef80       sf_c11_six_plus_six_AcmsteeringV09_main_2lflm_updateBuildInfo_args_info 000000018008ff80 f   c11_six_plus_six_AcmsteeringV09_main_2lflm.obj
 0001:0008efb0       sf_internal_get_sim_state_c11_six_plus_six_AcmsteeringV09_main_2lflm 000000018008ffb0 f   c11_six_plus_six_AcmsteeringV09_main_2lflm.obj
 0001:0008f310       sf_internal_set_sim_state_c11_six_plus_six_AcmsteeringV09_main_2lflm 0000000180090310 f   c11_six_plus_six_AcmsteeringV09_main_2lflm.obj
 0001:0008f700       c11_six_plus_six_AcmsteeringV09_main_2lflm_method_dispatcher 0000000180090700 f   c11_six_plus_six_AcmsteeringV09_main_2lflm.obj
 0001:00091480       sf_c12_six_plus_six_AcmsteeringV09_main_2lflm_get_eml_resolved_functions_info 0000000180092480 f   c12_six_plus_six_AcmsteeringV09_main_2lflm.obj
 0001:00091500       sf_c12_six_plus_six_AcmsteeringV09_main_2lflm_get_check_sum 0000000180092500 f   c12_six_plus_six_AcmsteeringV09_main_2lflm.obj
 0001:00091580       sf_c12_six_plus_six_AcmsteeringV09_main_2lflm_get_autoinheritance_info 0000000180092580 f   c12_six_plus_six_AcmsteeringV09_main_2lflm.obj
 0001:000919a0       sf_c12_six_plus_six_AcmsteeringV09_main_2lflm_third_party_uses_info 00000001800929a0 f   c12_six_plus_six_AcmsteeringV09_main_2lflm.obj
 0001:000919d0       sf_c12_six_plus_six_AcmsteeringV09_main_2lflm_updateBuildInfo_args_info 00000001800929d0 f   c12_six_plus_six_AcmsteeringV09_main_2lflm.obj
 0001:00091a00       sf_internal_get_sim_state_c12_six_plus_six_AcmsteeringV09_main_2lflm 0000000180092a00 f   c12_six_plus_six_AcmsteeringV09_main_2lflm.obj
 0001:00091d60       sf_internal_set_sim_state_c12_six_plus_six_AcmsteeringV09_main_2lflm 0000000180092d60 f   c12_six_plus_six_AcmsteeringV09_main_2lflm.obj
 0001:00092150       c12_six_plus_six_AcmsteeringV09_main_2lflm_method_dispatcher 0000000180093150 f   c12_six_plus_six_AcmsteeringV09_main_2lflm.obj
 0001:00093ec0       sf_c13_six_plus_six_AcmsteeringV09_main_2lflm_get_eml_resolved_functions_info 0000000180094ec0 f   c13_six_plus_six_AcmsteeringV09_main_2lflm.obj
 0001:00093f40       sf_c13_six_plus_six_AcmsteeringV09_main_2lflm_get_check_sum 0000000180094f40 f   c13_six_plus_six_AcmsteeringV09_main_2lflm.obj
 0001:00093fc0       sf_c13_six_plus_six_AcmsteeringV09_main_2lflm_get_autoinheritance_info 0000000180094fc0 f   c13_six_plus_six_AcmsteeringV09_main_2lflm.obj
 0001:000943e0       sf_c13_six_plus_six_AcmsteeringV09_main_2lflm_third_party_uses_info 00000001800953e0 f   c13_six_plus_six_AcmsteeringV09_main_2lflm.obj
 0001:00094410       sf_c13_six_plus_six_AcmsteeringV09_main_2lflm_updateBuildInfo_args_info 0000000180095410 f   c13_six_plus_six_AcmsteeringV09_main_2lflm.obj
 0001:00094440       sf_internal_get_sim_state_c13_six_plus_six_AcmsteeringV09_main_2lflm 0000000180095440 f   c13_six_plus_six_AcmsteeringV09_main_2lflm.obj
 0001:000947a0       sf_internal_set_sim_state_c13_six_plus_six_AcmsteeringV09_main_2lflm 00000001800957a0 f   c13_six_plus_six_AcmsteeringV09_main_2lflm.obj
 0001:00094b90       c13_six_plus_six_AcmsteeringV09_main_2lflm_method_dispatcher 0000000180095b90 f   c13_six_plus_six_AcmsteeringV09_main_2lflm.obj
 0001:00096900       sf_c14_six_plus_six_AcmsteeringV09_main_2lflm_get_eml_resolved_functions_info 0000000180097900 f   c14_six_plus_six_AcmsteeringV09_main_2lflm.obj
 0001:00096980       sf_c14_six_plus_six_AcmsteeringV09_main_2lflm_get_check_sum 0000000180097980 f   c14_six_plus_six_AcmsteeringV09_main_2lflm.obj
 0001:00096a00       sf_c14_six_plus_six_AcmsteeringV09_main_2lflm_get_autoinheritance_info 0000000180097a00 f   c14_six_plus_six_AcmsteeringV09_main_2lflm.obj
 0001:00096e20       sf_c14_six_plus_six_AcmsteeringV09_main_2lflm_third_party_uses_info 0000000180097e20 f   c14_six_plus_six_AcmsteeringV09_main_2lflm.obj
 0001:00096e50       sf_c14_six_plus_six_AcmsteeringV09_main_2lflm_updateBuildInfo_args_info 0000000180097e50 f   c14_six_plus_six_AcmsteeringV09_main_2lflm.obj
 0001:00096e80       sf_internal_get_sim_state_c14_six_plus_six_AcmsteeringV09_main_2lflm 0000000180097e80 f   c14_six_plus_six_AcmsteeringV09_main_2lflm.obj
 0001:000971e0       sf_internal_set_sim_state_c14_six_plus_six_AcmsteeringV09_main_2lflm 00000001800981e0 f   c14_six_plus_six_AcmsteeringV09_main_2lflm.obj
 0001:000975d0       c14_six_plus_six_AcmsteeringV09_main_2lflm_method_dispatcher 00000001800985d0 f   c14_six_plus_six_AcmsteeringV09_main_2lflm.obj
 0001:00099330       sf_c15_six_plus_six_AcmsteeringV09_main_2lflm_get_eml_resolved_functions_info 000000018009a330 f   c15_six_plus_six_AcmsteeringV09_main_2lflm.obj
 0001:000993b0       sf_c15_six_plus_six_AcmsteeringV09_main_2lflm_get_check_sum 000000018009a3b0 f   c15_six_plus_six_AcmsteeringV09_main_2lflm.obj
 0001:00099430       sf_c15_six_plus_six_AcmsteeringV09_main_2lflm_get_autoinheritance_info 000000018009a430 f   c15_six_plus_six_AcmsteeringV09_main_2lflm.obj
 0001:00099850       sf_c15_six_plus_six_AcmsteeringV09_main_2lflm_third_party_uses_info 000000018009a850 f   c15_six_plus_six_AcmsteeringV09_main_2lflm.obj
 0001:00099880       sf_c15_six_plus_six_AcmsteeringV09_main_2lflm_updateBuildInfo_args_info 000000018009a880 f   c15_six_plus_six_AcmsteeringV09_main_2lflm.obj
 0001:000998b0       sf_internal_get_sim_state_c15_six_plus_six_AcmsteeringV09_main_2lflm 000000018009a8b0 f   c15_six_plus_six_AcmsteeringV09_main_2lflm.obj
 0001:00099c10       sf_internal_set_sim_state_c15_six_plus_six_AcmsteeringV09_main_2lflm 000000018009ac10 f   c15_six_plus_six_AcmsteeringV09_main_2lflm.obj
 0001:0009a000       c15_six_plus_six_AcmsteeringV09_main_2lflm_method_dispatcher 000000018009b000 f   c15_six_plus_six_AcmsteeringV09_main_2lflm.obj
 0001:0009bd70       sf_c16_six_plus_six_AcmsteeringV09_main_2lflm_get_eml_resolved_functions_info 000000018009cd70 f   c16_six_plus_six_AcmsteeringV09_main_2lflm.obj
 0001:0009bdf0       sf_c16_six_plus_six_AcmsteeringV09_main_2lflm_get_check_sum 000000018009cdf0 f   c16_six_plus_six_AcmsteeringV09_main_2lflm.obj
 0001:0009be70       sf_c16_six_plus_six_AcmsteeringV09_main_2lflm_get_autoinheritance_info 000000018009ce70 f   c16_six_plus_six_AcmsteeringV09_main_2lflm.obj
 0001:0009c290       sf_c16_six_plus_six_AcmsteeringV09_main_2lflm_third_party_uses_info 000000018009d290 f   c16_six_plus_six_AcmsteeringV09_main_2lflm.obj
 0001:0009c2c0       sf_c16_six_plus_six_AcmsteeringV09_main_2lflm_updateBuildInfo_args_info 000000018009d2c0 f   c16_six_plus_six_AcmsteeringV09_main_2lflm.obj
 0001:0009c2f0       sf_internal_get_sim_state_c16_six_plus_six_AcmsteeringV09_main_2lflm 000000018009d2f0 f   c16_six_plus_six_AcmsteeringV09_main_2lflm.obj
 0001:0009c650       sf_internal_set_sim_state_c16_six_plus_six_AcmsteeringV09_main_2lflm 000000018009d650 f   c16_six_plus_six_AcmsteeringV09_main_2lflm.obj
 0001:0009ca40       c16_six_plus_six_AcmsteeringV09_main_2lflm_method_dispatcher 000000018009da40 f   c16_six_plus_six_AcmsteeringV09_main_2lflm.obj
 0001:0009e7b0       sf_c17_six_plus_six_AcmsteeringV09_main_2lflm_get_eml_resolved_functions_info 000000018009f7b0 f   c17_six_plus_six_AcmsteeringV09_main_2lflm.obj
 0001:0009e830       sf_c17_six_plus_six_AcmsteeringV09_main_2lflm_get_check_sum 000000018009f830 f   c17_six_plus_six_AcmsteeringV09_main_2lflm.obj
 0001:0009e8b0       sf_c17_six_plus_six_AcmsteeringV09_main_2lflm_get_autoinheritance_info 000000018009f8b0 f   c17_six_plus_six_AcmsteeringV09_main_2lflm.obj
 0001:0009ecd0       sf_c17_six_plus_six_AcmsteeringV09_main_2lflm_third_party_uses_info 000000018009fcd0 f   c17_six_plus_six_AcmsteeringV09_main_2lflm.obj
 0001:0009ed00       sf_c17_six_plus_six_AcmsteeringV09_main_2lflm_updateBuildInfo_args_info 000000018009fd00 f   c17_six_plus_six_AcmsteeringV09_main_2lflm.obj
 0001:0009ed30       sf_internal_get_sim_state_c17_six_plus_six_AcmsteeringV09_main_2lflm 000000018009fd30 f   c17_six_plus_six_AcmsteeringV09_main_2lflm.obj
 0001:0009f090       sf_internal_set_sim_state_c17_six_plus_six_AcmsteeringV09_main_2lflm 00000001800a0090 f   c17_six_plus_six_AcmsteeringV09_main_2lflm.obj
 0001:0009f480       c17_six_plus_six_AcmsteeringV09_main_2lflm_method_dispatcher 00000001800a0480 f   c17_six_plus_six_AcmsteeringV09_main_2lflm.obj
 0001:000a11f0       sf_c18_six_plus_six_AcmsteeringV09_main_2lflm_get_eml_resolved_functions_info 00000001800a21f0 f   c18_six_plus_six_AcmsteeringV09_main_2lflm.obj
 0001:000a1270       sf_c18_six_plus_six_AcmsteeringV09_main_2lflm_get_check_sum 00000001800a2270 f   c18_six_plus_six_AcmsteeringV09_main_2lflm.obj
 0001:000a12f0       sf_c18_six_plus_six_AcmsteeringV09_main_2lflm_get_autoinheritance_info 00000001800a22f0 f   c18_six_plus_six_AcmsteeringV09_main_2lflm.obj
 0001:000a1710       sf_c18_six_plus_six_AcmsteeringV09_main_2lflm_third_party_uses_info 00000001800a2710 f   c18_six_plus_six_AcmsteeringV09_main_2lflm.obj
 0001:000a1740       sf_c18_six_plus_six_AcmsteeringV09_main_2lflm_updateBuildInfo_args_info 00000001800a2740 f   c18_six_plus_six_AcmsteeringV09_main_2lflm.obj
 0001:000a1770       sf_internal_get_sim_state_c18_six_plus_six_AcmsteeringV09_main_2lflm 00000001800a2770 f   c18_six_plus_six_AcmsteeringV09_main_2lflm.obj
 0001:000a1ad0       sf_internal_set_sim_state_c18_six_plus_six_AcmsteeringV09_main_2lflm 00000001800a2ad0 f   c18_six_plus_six_AcmsteeringV09_main_2lflm.obj
 0001:000a1ec0       c18_six_plus_six_AcmsteeringV09_main_2lflm_method_dispatcher 00000001800a2ec0 f   c18_six_plus_six_AcmsteeringV09_main_2lflm.obj
 0001:000a3c30       sf_c19_six_plus_six_AcmsteeringV09_main_2lflm_get_eml_resolved_functions_info 00000001800a4c30 f   c19_six_plus_six_AcmsteeringV09_main_2lflm.obj
 0001:000a3cb0       sf_c19_six_plus_six_AcmsteeringV09_main_2lflm_get_check_sum 00000001800a4cb0 f   c19_six_plus_six_AcmsteeringV09_main_2lflm.obj
 0001:000a3d30       sf_c19_six_plus_six_AcmsteeringV09_main_2lflm_get_autoinheritance_info 00000001800a4d30 f   c19_six_plus_six_AcmsteeringV09_main_2lflm.obj
 0001:000a4150       sf_c19_six_plus_six_AcmsteeringV09_main_2lflm_third_party_uses_info 00000001800a5150 f   c19_six_plus_six_AcmsteeringV09_main_2lflm.obj
 0001:000a4180       sf_c19_six_plus_six_AcmsteeringV09_main_2lflm_updateBuildInfo_args_info 00000001800a5180 f   c19_six_plus_six_AcmsteeringV09_main_2lflm.obj
 0001:000a41b0       sf_internal_get_sim_state_c19_six_plus_six_AcmsteeringV09_main_2lflm 00000001800a51b0 f   c19_six_plus_six_AcmsteeringV09_main_2lflm.obj
 0001:000a4510       sf_internal_set_sim_state_c19_six_plus_six_AcmsteeringV09_main_2lflm 00000001800a5510 f   c19_six_plus_six_AcmsteeringV09_main_2lflm.obj
 0001:000a4900       c19_six_plus_six_AcmsteeringV09_main_2lflm_method_dispatcher 00000001800a5900 f   c19_six_plus_six_AcmsteeringV09_main_2lflm.obj
 0001:000a6490       sf_c20_six_plus_six_AcmsteeringV09_main_2lflm_get_eml_resolved_functions_info 00000001800a7490 f   c20_six_plus_six_AcmsteeringV09_main_2lflm.obj
 0001:000a6510       sf_c20_six_plus_six_AcmsteeringV09_main_2lflm_get_check_sum 00000001800a7510 f   c20_six_plus_six_AcmsteeringV09_main_2lflm.obj
 0001:000a6590       sf_c20_six_plus_six_AcmsteeringV09_main_2lflm_get_autoinheritance_info 00000001800a7590 f   c20_six_plus_six_AcmsteeringV09_main_2lflm.obj
 0001:000a69b0       sf_c20_six_plus_six_AcmsteeringV09_main_2lflm_third_party_uses_info 00000001800a79b0 f   c20_six_plus_six_AcmsteeringV09_main_2lflm.obj
 0001:000a69e0       sf_c20_six_plus_six_AcmsteeringV09_main_2lflm_updateBuildInfo_args_info 00000001800a79e0 f   c20_six_plus_six_AcmsteeringV09_main_2lflm.obj
 0001:000a6a10       sf_internal_get_sim_state_c20_six_plus_six_AcmsteeringV09_main_2lflm 00000001800a7a10 f   c20_six_plus_six_AcmsteeringV09_main_2lflm.obj
 0001:000a6d70       sf_internal_set_sim_state_c20_six_plus_six_AcmsteeringV09_main_2lflm 00000001800a7d70 f   c20_six_plus_six_AcmsteeringV09_main_2lflm.obj
 0001:000a7160       c20_six_plus_six_AcmsteeringV09_main_2lflm_method_dispatcher 00000001800a8160 f   c20_six_plus_six_AcmsteeringV09_main_2lflm.obj
 0001:000a8ed0       sf_c21_six_plus_six_AcmsteeringV09_main_2lflm_get_eml_resolved_functions_info 00000001800a9ed0 f   c21_six_plus_six_AcmsteeringV09_main_2lflm.obj
 0001:000a8f50       sf_c21_six_plus_six_AcmsteeringV09_main_2lflm_get_check_sum 00000001800a9f50 f   c21_six_plus_six_AcmsteeringV09_main_2lflm.obj
 0001:000a8fd0       sf_c21_six_plus_six_AcmsteeringV09_main_2lflm_get_autoinheritance_info 00000001800a9fd0 f   c21_six_plus_six_AcmsteeringV09_main_2lflm.obj
 0001:000a93f0       sf_c21_six_plus_six_AcmsteeringV09_main_2lflm_third_party_uses_info 00000001800aa3f0 f   c21_six_plus_six_AcmsteeringV09_main_2lflm.obj
 0001:000a9420       sf_c21_six_plus_six_AcmsteeringV09_main_2lflm_updateBuildInfo_args_info 00000001800aa420 f   c21_six_plus_six_AcmsteeringV09_main_2lflm.obj
 0001:000a9450       sf_internal_get_sim_state_c21_six_plus_six_AcmsteeringV09_main_2lflm 00000001800aa450 f   c21_six_plus_six_AcmsteeringV09_main_2lflm.obj
 0001:000a97b0       sf_internal_set_sim_state_c21_six_plus_six_AcmsteeringV09_main_2lflm 00000001800aa7b0 f   c21_six_plus_six_AcmsteeringV09_main_2lflm.obj
 0001:000a9ba0       c21_six_plus_six_AcmsteeringV09_main_2lflm_method_dispatcher 00000001800aaba0 f   c21_six_plus_six_AcmsteeringV09_main_2lflm.obj
 0001:000ab720       sf_c22_six_plus_six_AcmsteeringV09_main_2lflm_get_eml_resolved_functions_info 00000001800ac720 f   c22_six_plus_six_AcmsteeringV09_main_2lflm.obj
 0001:000ab7a0       sf_c22_six_plus_six_AcmsteeringV09_main_2lflm_get_check_sum 00000001800ac7a0 f   c22_six_plus_six_AcmsteeringV09_main_2lflm.obj
 0001:000ab820       sf_c22_six_plus_six_AcmsteeringV09_main_2lflm_get_autoinheritance_info 00000001800ac820 f   c22_six_plus_six_AcmsteeringV09_main_2lflm.obj
 0001:000abc40       sf_c22_six_plus_six_AcmsteeringV09_main_2lflm_third_party_uses_info 00000001800acc40 f   c22_six_plus_six_AcmsteeringV09_main_2lflm.obj
 0001:000abc70       sf_c22_six_plus_six_AcmsteeringV09_main_2lflm_updateBuildInfo_args_info 00000001800acc70 f   c22_six_plus_six_AcmsteeringV09_main_2lflm.obj
 0001:000abca0       sf_internal_get_sim_state_c22_six_plus_six_AcmsteeringV09_main_2lflm 00000001800acca0 f   c22_six_plus_six_AcmsteeringV09_main_2lflm.obj
 0001:000ac000       sf_internal_set_sim_state_c22_six_plus_six_AcmsteeringV09_main_2lflm 00000001800ad000 f   c22_six_plus_six_AcmsteeringV09_main_2lflm.obj
 0001:000ac3f0       c22_six_plus_six_AcmsteeringV09_main_2lflm_method_dispatcher 00000001800ad3f0 f   c22_six_plus_six_AcmsteeringV09_main_2lflm.obj
 0001:000ae160       sf_c23_six_plus_six_AcmsteeringV09_main_2lflm_get_eml_resolved_functions_info 00000001800af160 f   c23_six_plus_six_AcmsteeringV09_main_2lflm.obj
 0001:000ae1e0       sf_c23_six_plus_six_AcmsteeringV09_main_2lflm_get_check_sum 00000001800af1e0 f   c23_six_plus_six_AcmsteeringV09_main_2lflm.obj
 0001:000ae260       sf_c23_six_plus_six_AcmsteeringV09_main_2lflm_get_autoinheritance_info 00000001800af260 f   c23_six_plus_six_AcmsteeringV09_main_2lflm.obj
 0001:000ae680       sf_c23_six_plus_six_AcmsteeringV09_main_2lflm_third_party_uses_info 00000001800af680 f   c23_six_plus_six_AcmsteeringV09_main_2lflm.obj
 0001:000ae6b0       sf_c23_six_plus_six_AcmsteeringV09_main_2lflm_updateBuildInfo_args_info 00000001800af6b0 f   c23_six_plus_six_AcmsteeringV09_main_2lflm.obj
 0001:000ae6e0       sf_internal_get_sim_state_c23_six_plus_six_AcmsteeringV09_main_2lflm 00000001800af6e0 f   c23_six_plus_six_AcmsteeringV09_main_2lflm.obj
 0001:000aea40       sf_internal_set_sim_state_c23_six_plus_six_AcmsteeringV09_main_2lflm 00000001800afa40 f   c23_six_plus_six_AcmsteeringV09_main_2lflm.obj
 0001:000aee30       c23_six_plus_six_AcmsteeringV09_main_2lflm_method_dispatcher 00000001800afe30 f   c23_six_plus_six_AcmsteeringV09_main_2lflm.obj
 0001:000b0b90       sf_c24_six_plus_six_AcmsteeringV09_main_2lflm_get_eml_resolved_functions_info 00000001800b1b90 f   c24_six_plus_six_AcmsteeringV09_main_2lflm.obj
 0001:000b0c10       sf_c24_six_plus_six_AcmsteeringV09_main_2lflm_get_check_sum 00000001800b1c10 f   c24_six_plus_six_AcmsteeringV09_main_2lflm.obj
 0001:000b0c90       sf_c24_six_plus_six_AcmsteeringV09_main_2lflm_get_autoinheritance_info 00000001800b1c90 f   c24_six_plus_six_AcmsteeringV09_main_2lflm.obj
 0001:000b10b0       sf_c24_six_plus_six_AcmsteeringV09_main_2lflm_third_party_uses_info 00000001800b20b0 f   c24_six_plus_six_AcmsteeringV09_main_2lflm.obj
 0001:000b10e0       sf_c24_six_plus_six_AcmsteeringV09_main_2lflm_updateBuildInfo_args_info 00000001800b20e0 f   c24_six_plus_six_AcmsteeringV09_main_2lflm.obj
 0001:000b1110       sf_internal_get_sim_state_c24_six_plus_six_AcmsteeringV09_main_2lflm 00000001800b2110 f   c24_six_plus_six_AcmsteeringV09_main_2lflm.obj
 0001:000b1470       sf_internal_set_sim_state_c24_six_plus_six_AcmsteeringV09_main_2lflm 00000001800b2470 f   c24_six_plus_six_AcmsteeringV09_main_2lflm.obj
 0001:000b1860       c24_six_plus_six_AcmsteeringV09_main_2lflm_method_dispatcher 00000001800b2860 f   c24_six_plus_six_AcmsteeringV09_main_2lflm.obj
 0001:000b35d0       sf_c25_six_plus_six_AcmsteeringV09_main_2lflm_get_eml_resolved_functions_info 00000001800b45d0 f   c25_six_plus_six_AcmsteeringV09_main_2lflm.obj
 0001:000b3650       sf_c25_six_plus_six_AcmsteeringV09_main_2lflm_get_check_sum 00000001800b4650 f   c25_six_plus_six_AcmsteeringV09_main_2lflm.obj
 0001:000b36d0       sf_c25_six_plus_six_AcmsteeringV09_main_2lflm_get_autoinheritance_info 00000001800b46d0 f   c25_six_plus_six_AcmsteeringV09_main_2lflm.obj
 0001:000b3af0       sf_c25_six_plus_six_AcmsteeringV09_main_2lflm_third_party_uses_info 00000001800b4af0 f   c25_six_plus_six_AcmsteeringV09_main_2lflm.obj
 0001:000b3b20       sf_c25_six_plus_six_AcmsteeringV09_main_2lflm_updateBuildInfo_args_info 00000001800b4b20 f   c25_six_plus_six_AcmsteeringV09_main_2lflm.obj
 0001:000b3b50       sf_internal_get_sim_state_c25_six_plus_six_AcmsteeringV09_main_2lflm 00000001800b4b50 f   c25_six_plus_six_AcmsteeringV09_main_2lflm.obj
 0001:000b3eb0       sf_internal_set_sim_state_c25_six_plus_six_AcmsteeringV09_main_2lflm 00000001800b4eb0 f   c25_six_plus_six_AcmsteeringV09_main_2lflm.obj
 0001:000b42a0       c25_six_plus_six_AcmsteeringV09_main_2lflm_method_dispatcher 00000001800b52a0 f   c25_six_plus_six_AcmsteeringV09_main_2lflm.obj
 0001:000b6010       sf_c26_six_plus_six_AcmsteeringV09_main_2lflm_get_eml_resolved_functions_info 00000001800b7010 f   c26_six_plus_six_AcmsteeringV09_main_2lflm.obj
 0001:000b6090       sf_c26_six_plus_six_AcmsteeringV09_main_2lflm_get_check_sum 00000001800b7090 f   c26_six_plus_six_AcmsteeringV09_main_2lflm.obj
 0001:000b6110       sf_c26_six_plus_six_AcmsteeringV09_main_2lflm_get_autoinheritance_info 00000001800b7110 f   c26_six_plus_six_AcmsteeringV09_main_2lflm.obj
 0001:000b6530       sf_c26_six_plus_six_AcmsteeringV09_main_2lflm_third_party_uses_info 00000001800b7530 f   c26_six_plus_six_AcmsteeringV09_main_2lflm.obj
 0001:000b6560       sf_c26_six_plus_six_AcmsteeringV09_main_2lflm_updateBuildInfo_args_info 00000001800b7560 f   c26_six_plus_six_AcmsteeringV09_main_2lflm.obj
 0001:000b6590       sf_internal_get_sim_state_c26_six_plus_six_AcmsteeringV09_main_2lflm 00000001800b7590 f   c26_six_plus_six_AcmsteeringV09_main_2lflm.obj
 0001:000b68f0       sf_internal_set_sim_state_c26_six_plus_six_AcmsteeringV09_main_2lflm 00000001800b78f0 f   c26_six_plus_six_AcmsteeringV09_main_2lflm.obj
 0001:000b6ce0       c26_six_plus_six_AcmsteeringV09_main_2lflm_method_dispatcher 00000001800b7ce0 f   c26_six_plus_six_AcmsteeringV09_main_2lflm.obj
 0001:000b8a50       sf_c27_six_plus_six_AcmsteeringV09_main_2lflm_get_eml_resolved_functions_info 00000001800b9a50 f   c27_six_plus_six_AcmsteeringV09_main_2lflm.obj
 0001:000b8ad0       sf_c27_six_plus_six_AcmsteeringV09_main_2lflm_get_check_sum 00000001800b9ad0 f   c27_six_plus_six_AcmsteeringV09_main_2lflm.obj
 0001:000b8b50       sf_c27_six_plus_six_AcmsteeringV09_main_2lflm_get_autoinheritance_info 00000001800b9b50 f   c27_six_plus_six_AcmsteeringV09_main_2lflm.obj
 0001:000b8f70       sf_c27_six_plus_six_AcmsteeringV09_main_2lflm_third_party_uses_info 00000001800b9f70 f   c27_six_plus_six_AcmsteeringV09_main_2lflm.obj
 0001:000b8fa0       sf_c27_six_plus_six_AcmsteeringV09_main_2lflm_updateBuildInfo_args_info 00000001800b9fa0 f   c27_six_plus_six_AcmsteeringV09_main_2lflm.obj
 0001:000b8fd0       sf_internal_get_sim_state_c27_six_plus_six_AcmsteeringV09_main_2lflm 00000001800b9fd0 f   c27_six_plus_six_AcmsteeringV09_main_2lflm.obj
 0001:000b9330       sf_internal_set_sim_state_c27_six_plus_six_AcmsteeringV09_main_2lflm 00000001800ba330 f   c27_six_plus_six_AcmsteeringV09_main_2lflm.obj
 0001:000b9720       c27_six_plus_six_AcmsteeringV09_main_2lflm_method_dispatcher 00000001800ba720 f   c27_six_plus_six_AcmsteeringV09_main_2lflm.obj
 0001:000bb490       sf_c28_six_plus_six_AcmsteeringV09_main_2lflm_get_eml_resolved_functions_info 00000001800bc490 f   c28_six_plus_six_AcmsteeringV09_main_2lflm.obj
 0001:000bb510       sf_c28_six_plus_six_AcmsteeringV09_main_2lflm_get_check_sum 00000001800bc510 f   c28_six_plus_six_AcmsteeringV09_main_2lflm.obj
 0001:000bb590       sf_c28_six_plus_six_AcmsteeringV09_main_2lflm_get_autoinheritance_info 00000001800bc590 f   c28_six_plus_six_AcmsteeringV09_main_2lflm.obj
 0001:000bb9b0       sf_c28_six_plus_six_AcmsteeringV09_main_2lflm_third_party_uses_info 00000001800bc9b0 f   c28_six_plus_six_AcmsteeringV09_main_2lflm.obj
 0001:000bb9e0       sf_c28_six_plus_six_AcmsteeringV09_main_2lflm_updateBuildInfo_args_info 00000001800bc9e0 f   c28_six_plus_six_AcmsteeringV09_main_2lflm.obj
 0001:000bba10       sf_internal_get_sim_state_c28_six_plus_six_AcmsteeringV09_main_2lflm 00000001800bca10 f   c28_six_plus_six_AcmsteeringV09_main_2lflm.obj
 0001:000bbd70       sf_internal_set_sim_state_c28_six_plus_six_AcmsteeringV09_main_2lflm 00000001800bcd70 f   c28_six_plus_six_AcmsteeringV09_main_2lflm.obj
 0001:000bc160       c28_six_plus_six_AcmsteeringV09_main_2lflm_method_dispatcher 00000001800bd160 f   c28_six_plus_six_AcmsteeringV09_main_2lflm.obj
 0001:000bded0       sf_c29_six_plus_six_AcmsteeringV09_main_2lflm_get_eml_resolved_functions_info 00000001800beed0 f   c29_six_plus_six_AcmsteeringV09_main_2lflm.obj
 0001:000bdf50       sf_c29_six_plus_six_AcmsteeringV09_main_2lflm_get_check_sum 00000001800bef50 f   c29_six_plus_six_AcmsteeringV09_main_2lflm.obj
 0001:000bdfd0       sf_c29_six_plus_six_AcmsteeringV09_main_2lflm_get_autoinheritance_info 00000001800befd0 f   c29_six_plus_six_AcmsteeringV09_main_2lflm.obj
 0001:000be3f0       sf_c29_six_plus_six_AcmsteeringV09_main_2lflm_third_party_uses_info 00000001800bf3f0 f   c29_six_plus_six_AcmsteeringV09_main_2lflm.obj
 0001:000be420       sf_c29_six_plus_six_AcmsteeringV09_main_2lflm_updateBuildInfo_args_info 00000001800bf420 f   c29_six_plus_six_AcmsteeringV09_main_2lflm.obj
 0001:000be450       sf_internal_get_sim_state_c29_six_plus_six_AcmsteeringV09_main_2lflm 00000001800bf450 f   c29_six_plus_six_AcmsteeringV09_main_2lflm.obj
 0001:000be7b0       sf_internal_set_sim_state_c29_six_plus_six_AcmsteeringV09_main_2lflm 00000001800bf7b0 f   c29_six_plus_six_AcmsteeringV09_main_2lflm.obj
 0001:000beba0       c29_six_plus_six_AcmsteeringV09_main_2lflm_method_dispatcher 00000001800bfba0 f   c29_six_plus_six_AcmsteeringV09_main_2lflm.obj
 0001:000c0910       sf_c30_six_plus_six_AcmsteeringV09_main_2lflm_get_eml_resolved_functions_info 00000001800c1910 f   c30_six_plus_six_AcmsteeringV09_main_2lflm.obj
 0001:000c0990       sf_c30_six_plus_six_AcmsteeringV09_main_2lflm_get_check_sum 00000001800c1990 f   c30_six_plus_six_AcmsteeringV09_main_2lflm.obj
 0001:000c0a10       sf_c30_six_plus_six_AcmsteeringV09_main_2lflm_get_autoinheritance_info 00000001800c1a10 f   c30_six_plus_six_AcmsteeringV09_main_2lflm.obj
 0001:000c0e30       sf_c30_six_plus_six_AcmsteeringV09_main_2lflm_third_party_uses_info 00000001800c1e30 f   c30_six_plus_six_AcmsteeringV09_main_2lflm.obj
 0001:000c0e60       sf_c30_six_plus_six_AcmsteeringV09_main_2lflm_updateBuildInfo_args_info 00000001800c1e60 f   c30_six_plus_six_AcmsteeringV09_main_2lflm.obj
 0001:000c0e90       sf_internal_get_sim_state_c30_six_plus_six_AcmsteeringV09_main_2lflm 00000001800c1e90 f   c30_six_plus_six_AcmsteeringV09_main_2lflm.obj
 0001:000c11f0       sf_internal_set_sim_state_c30_six_plus_six_AcmsteeringV09_main_2lflm 00000001800c21f0 f   c30_six_plus_six_AcmsteeringV09_main_2lflm.obj
 0001:000c15e0       c30_six_plus_six_AcmsteeringV09_main_2lflm_method_dispatcher 00000001800c25e0 f   c30_six_plus_six_AcmsteeringV09_main_2lflm.obj
 0001:000c3360       sf_c31_six_plus_six_AcmsteeringV09_main_2lflm_get_eml_resolved_functions_info 00000001800c4360 f   c31_six_plus_six_AcmsteeringV09_main_2lflm.obj
 0001:000c71b0       sf_c31_six_plus_six_AcmsteeringV09_main_2lflm_get_check_sum 00000001800c81b0 f   c31_six_plus_six_AcmsteeringV09_main_2lflm.obj
 0001:000c7230       sf_c31_six_plus_six_AcmsteeringV09_main_2lflm_get_autoinheritance_info 00000001800c8230 f   c31_six_plus_six_AcmsteeringV09_main_2lflm.obj
 0001:000ca930       sf_c31_six_plus_six_AcmsteeringV09_main_2lflm_third_party_uses_info 00000001800cb930 f   c31_six_plus_six_AcmsteeringV09_main_2lflm.obj
 0001:000ca960       sf_c31_six_plus_six_AcmsteeringV09_main_2lflm_updateBuildInfo_args_info 00000001800cb960 f   c31_six_plus_six_AcmsteeringV09_main_2lflm.obj
 0001:000ca990       sf_internal_get_sim_state_c31_six_plus_six_AcmsteeringV09_main_2lflm 00000001800cb990 f   c31_six_plus_six_AcmsteeringV09_main_2lflm.obj
 0001:000cb240       sf_internal_set_sim_state_c31_six_plus_six_AcmsteeringV09_main_2lflm 00000001800cc240 f   c31_six_plus_six_AcmsteeringV09_main_2lflm.obj
 0001:000cb890       c31_six_plus_six_AcmsteeringV09_main_2lflm_method_dispatcher 00000001800cc890 f   c31_six_plus_six_AcmsteeringV09_main_2lflm.obj
 0001:000d7160       sf_c32_six_plus_six_AcmsteeringV09_main_2lflm_get_eml_resolved_functions_info 00000001800d8160 f   c32_six_plus_six_AcmsteeringV09_main_2lflm.obj
 0001:000daad0       sf_c32_six_plus_six_AcmsteeringV09_main_2lflm_get_check_sum 00000001800dbad0 f   c32_six_plus_six_AcmsteeringV09_main_2lflm.obj
 0001:000dab50       sf_c32_six_plus_six_AcmsteeringV09_main_2lflm_get_autoinheritance_info 00000001800dbb50 f   c32_six_plus_six_AcmsteeringV09_main_2lflm.obj
 0001:000dcce0       sf_c32_six_plus_six_AcmsteeringV09_main_2lflm_third_party_uses_info 00000001800ddce0 f   c32_six_plus_six_AcmsteeringV09_main_2lflm.obj
 0001:000dcd10       sf_c32_six_plus_six_AcmsteeringV09_main_2lflm_updateBuildInfo_args_info 00000001800ddd10 f   c32_six_plus_six_AcmsteeringV09_main_2lflm.obj
 0001:000dcd40       sf_internal_get_sim_state_c32_six_plus_six_AcmsteeringV09_main_2lflm 00000001800ddd40 f   c32_six_plus_six_AcmsteeringV09_main_2lflm.obj
 0001:000dd6b0       sf_internal_set_sim_state_c32_six_plus_six_AcmsteeringV09_main_2lflm 00000001800de6b0 f   c32_six_plus_six_AcmsteeringV09_main_2lflm.obj
 0001:000dde40       c32_six_plus_six_AcmsteeringV09_main_2lflm_method_dispatcher 00000001800dee40 f   c32_six_plus_six_AcmsteeringV09_main_2lflm.obj
 0001:00137200       sf_c33_six_plus_six_AcmsteeringV09_main_2lflm_get_eml_resolved_functions_info 0000000180138200 f   c33_six_plus_six_AcmsteeringV09_main_2lflm.obj
 0001:00138e10       sf_c33_six_plus_six_AcmsteeringV09_main_2lflm_get_check_sum 0000000180139e10 f   c33_six_plus_six_AcmsteeringV09_main_2lflm.obj
 0001:00138e90       sf_c33_six_plus_six_AcmsteeringV09_main_2lflm_get_autoinheritance_info 0000000180139e90 f   c33_six_plus_six_AcmsteeringV09_main_2lflm.obj
 0001:00139910       sf_c33_six_plus_six_AcmsteeringV09_main_2lflm_third_party_uses_info 000000018013a910 f   c33_six_plus_six_AcmsteeringV09_main_2lflm.obj
 0001:00139940       sf_c33_six_plus_six_AcmsteeringV09_main_2lflm_updateBuildInfo_args_info 000000018013a940 f   c33_six_plus_six_AcmsteeringV09_main_2lflm.obj
 0001:00139970       sf_internal_get_sim_state_c33_six_plus_six_AcmsteeringV09_main_2lflm 000000018013a970 f   c33_six_plus_six_AcmsteeringV09_main_2lflm.obj
 0001:00139d90       sf_internal_set_sim_state_c33_six_plus_six_AcmsteeringV09_main_2lflm 000000018013ad90 f   c33_six_plus_six_AcmsteeringV09_main_2lflm.obj
 0001:0013a1c0       c33_six_plus_six_AcmsteeringV09_main_2lflm_method_dispatcher 000000018013b1c0 f   c33_six_plus_six_AcmsteeringV09_main_2lflm.obj
 0001:0013d370       sf_c34_six_plus_six_AcmsteeringV09_main_2lflm_get_eml_resolved_functions_info 000000018013e370 f   c34_six_plus_six_AcmsteeringV09_main_2lflm.obj
 0001:0013ef80       sf_c34_six_plus_six_AcmsteeringV09_main_2lflm_get_check_sum 000000018013ff80 f   c34_six_plus_six_AcmsteeringV09_main_2lflm.obj
 0001:0013f000       sf_c34_six_plus_six_AcmsteeringV09_main_2lflm_get_autoinheritance_info 0000000180140000 f   c34_six_plus_six_AcmsteeringV09_main_2lflm.obj
 0001:0013ff90       sf_c34_six_plus_six_AcmsteeringV09_main_2lflm_third_party_uses_info 0000000180140f90 f   c34_six_plus_six_AcmsteeringV09_main_2lflm.obj
 0001:0013ffc0       sf_c34_six_plus_six_AcmsteeringV09_main_2lflm_updateBuildInfo_args_info 0000000180140fc0 f   c34_six_plus_six_AcmsteeringV09_main_2lflm.obj
 0001:0013fff0       sf_internal_get_sim_state_c34_six_plus_six_AcmsteeringV09_main_2lflm 0000000180140ff0 f   c34_six_plus_six_AcmsteeringV09_main_2lflm.obj
 0001:00140350       sf_internal_set_sim_state_c34_six_plus_six_AcmsteeringV09_main_2lflm 0000000180141350 f   c34_six_plus_six_AcmsteeringV09_main_2lflm.obj
 0001:00140740       c34_six_plus_six_AcmsteeringV09_main_2lflm_method_dispatcher 0000000180141740 f   c34_six_plus_six_AcmsteeringV09_main_2lflm.obj
 0001:00143f80       sf_c35_six_plus_six_AcmsteeringV09_main_2lflm_get_eml_resolved_functions_info 0000000180144f80 f   c35_six_plus_six_AcmsteeringV09_main_2lflm.obj
 0001:00147b60       sf_c35_six_plus_six_AcmsteeringV09_main_2lflm_get_check_sum 0000000180148b60 f   c35_six_plus_six_AcmsteeringV09_main_2lflm.obj
 0001:00147be0       sf_c35_six_plus_six_AcmsteeringV09_main_2lflm_get_autoinheritance_info 0000000180148be0 f   c35_six_plus_six_AcmsteeringV09_main_2lflm.obj
 0001:00148150       sf_c35_six_plus_six_AcmsteeringV09_main_2lflm_third_party_uses_info 0000000180149150 f   c35_six_plus_six_AcmsteeringV09_main_2lflm.obj
 0001:00148180       sf_c35_six_plus_six_AcmsteeringV09_main_2lflm_updateBuildInfo_args_info 0000000180149180 f   c35_six_plus_six_AcmsteeringV09_main_2lflm.obj
 0001:001481b0       sf_internal_get_sim_state_c35_six_plus_six_AcmsteeringV09_main_2lflm 00000001801491b0 f   c35_six_plus_six_AcmsteeringV09_main_2lflm.obj
 0001:00148510       sf_internal_set_sim_state_c35_six_plus_six_AcmsteeringV09_main_2lflm 0000000180149510 f   c35_six_plus_six_AcmsteeringV09_main_2lflm.obj
 0001:00148900       c35_six_plus_six_AcmsteeringV09_main_2lflm_method_dispatcher 0000000180149900 f   c35_six_plus_six_AcmsteeringV09_main_2lflm.obj
 0001:0014a850       sf_c36_six_plus_six_AcmsteeringV09_main_2lflm_get_eml_resolved_functions_info 000000018014b850 f   c36_six_plus_six_AcmsteeringV09_main_2lflm.obj
 0001:0014c1f0       sf_c36_six_plus_six_AcmsteeringV09_main_2lflm_get_check_sum 000000018014d1f0 f   c36_six_plus_six_AcmsteeringV09_main_2lflm.obj
 0001:0014c270       sf_c36_six_plus_six_AcmsteeringV09_main_2lflm_get_autoinheritance_info 000000018014d270 f   c36_six_plus_six_AcmsteeringV09_main_2lflm.obj
 0001:0014ccf0       sf_c36_six_plus_six_AcmsteeringV09_main_2lflm_third_party_uses_info 000000018014dcf0 f   c36_six_plus_six_AcmsteeringV09_main_2lflm.obj
 0001:0014cd20       sf_c36_six_plus_six_AcmsteeringV09_main_2lflm_updateBuildInfo_args_info 000000018014dd20 f   c36_six_plus_six_AcmsteeringV09_main_2lflm.obj
 0001:0014cd50       sf_internal_get_sim_state_c36_six_plus_six_AcmsteeringV09_main_2lflm 000000018014dd50 f   c36_six_plus_six_AcmsteeringV09_main_2lflm.obj
 0001:0014d0b0       sf_internal_set_sim_state_c36_six_plus_six_AcmsteeringV09_main_2lflm 000000018014e0b0 f   c36_six_plus_six_AcmsteeringV09_main_2lflm.obj
 0001:0014d4a0       c36_six_plus_six_AcmsteeringV09_main_2lflm_method_dispatcher 000000018014e4a0 f   c36_six_plus_six_AcmsteeringV09_main_2lflm.obj
 0001:0014fe70       sf_c37_six_plus_six_AcmsteeringV09_main_2lflm_get_eml_resolved_functions_info 0000000180150e70 f   c37_six_plus_six_AcmsteeringV09_main_2lflm.obj
 0001:0014fef0       sf_c37_six_plus_six_AcmsteeringV09_main_2lflm_get_check_sum 0000000180150ef0 f   c37_six_plus_six_AcmsteeringV09_main_2lflm.obj
 0001:0014ff70       sf_c37_six_plus_six_AcmsteeringV09_main_2lflm_get_autoinheritance_info 0000000180150f70 f   c37_six_plus_six_AcmsteeringV09_main_2lflm.obj
 0001:00150390       sf_c37_six_plus_six_AcmsteeringV09_main_2lflm_third_party_uses_info 0000000180151390 f   c37_six_plus_six_AcmsteeringV09_main_2lflm.obj
 0001:001503c0       sf_c37_six_plus_six_AcmsteeringV09_main_2lflm_updateBuildInfo_args_info 00000001801513c0 f   c37_six_plus_six_AcmsteeringV09_main_2lflm.obj
 0001:001503f0       sf_internal_get_sim_state_c37_six_plus_six_AcmsteeringV09_main_2lflm 00000001801513f0 f   c37_six_plus_six_AcmsteeringV09_main_2lflm.obj
 0001:00150750       sf_internal_set_sim_state_c37_six_plus_six_AcmsteeringV09_main_2lflm 0000000180151750 f   c37_six_plus_six_AcmsteeringV09_main_2lflm.obj
 0001:00150b40       c37_six_plus_six_AcmsteeringV09_main_2lflm_method_dispatcher 0000000180151b40 f   c37_six_plus_six_AcmsteeringV09_main_2lflm.obj
 0001:001528b0       sf_c38_six_plus_six_AcmsteeringV09_main_2lflm_get_eml_resolved_functions_info 00000001801538b0 f   c38_six_plus_six_AcmsteeringV09_main_2lflm.obj
 0001:00152930       sf_c38_six_plus_six_AcmsteeringV09_main_2lflm_get_check_sum 0000000180153930 f   c38_six_plus_six_AcmsteeringV09_main_2lflm.obj
 0001:001529b0       sf_c38_six_plus_six_AcmsteeringV09_main_2lflm_get_autoinheritance_info 00000001801539b0 f   c38_six_plus_six_AcmsteeringV09_main_2lflm.obj
 0001:00153060       sf_c38_six_plus_six_AcmsteeringV09_main_2lflm_third_party_uses_info 0000000180154060 f   c38_six_plus_six_AcmsteeringV09_main_2lflm.obj
 0001:00153090       sf_c38_six_plus_six_AcmsteeringV09_main_2lflm_updateBuildInfo_args_info 0000000180154090 f   c38_six_plus_six_AcmsteeringV09_main_2lflm.obj
 0001:001530c0       sf_internal_get_sim_state_c38_six_plus_six_AcmsteeringV09_main_2lflm 00000001801540c0 f   c38_six_plus_six_AcmsteeringV09_main_2lflm.obj
 0001:00153420       sf_internal_set_sim_state_c38_six_plus_six_AcmsteeringV09_main_2lflm 0000000180154420 f   c38_six_plus_six_AcmsteeringV09_main_2lflm.obj
 0001:001537f0       c38_six_plus_six_AcmsteeringV09_main_2lflm_method_dispatcher 00000001801547f0 f   c38_six_plus_six_AcmsteeringV09_main_2lflm.obj
 0001:00155f10       sf_c39_six_plus_six_AcmsteeringV09_main_2lflm_get_eml_resolved_functions_info 0000000180156f10 f   c39_six_plus_six_AcmsteeringV09_main_2lflm.obj
 0001:00155f90       sf_c39_six_plus_six_AcmsteeringV09_main_2lflm_get_check_sum 0000000180156f90 f   c39_six_plus_six_AcmsteeringV09_main_2lflm.obj
 0001:00156010       sf_c39_six_plus_six_AcmsteeringV09_main_2lflm_get_autoinheritance_info 0000000180157010 f   c39_six_plus_six_AcmsteeringV09_main_2lflm.obj
 0001:00156430       sf_c39_six_plus_six_AcmsteeringV09_main_2lflm_third_party_uses_info 0000000180157430 f   c39_six_plus_six_AcmsteeringV09_main_2lflm.obj
 0001:00156460       sf_c39_six_plus_six_AcmsteeringV09_main_2lflm_updateBuildInfo_args_info 0000000180157460 f   c39_six_plus_six_AcmsteeringV09_main_2lflm.obj
 0001:00156490       sf_internal_get_sim_state_c39_six_plus_six_AcmsteeringV09_main_2lflm 0000000180157490 f   c39_six_plus_six_AcmsteeringV09_main_2lflm.obj
 0001:001567f0       sf_internal_set_sim_state_c39_six_plus_six_AcmsteeringV09_main_2lflm 00000001801577f0 f   c39_six_plus_six_AcmsteeringV09_main_2lflm.obj
 0001:00156be0       c39_six_plus_six_AcmsteeringV09_main_2lflm_method_dispatcher 0000000180157be0 f   c39_six_plus_six_AcmsteeringV09_main_2lflm.obj
 0001:00158960       sf_c40_six_plus_six_AcmsteeringV09_main_2lflm_get_eml_resolved_functions_info 0000000180159960 f   c40_six_plus_six_AcmsteeringV09_main_2lflm.obj
 0001:001589e0       sf_c40_six_plus_six_AcmsteeringV09_main_2lflm_get_check_sum 00000001801599e0 f   c40_six_plus_six_AcmsteeringV09_main_2lflm.obj
 0001:00158a60       sf_c40_six_plus_six_AcmsteeringV09_main_2lflm_get_autoinheritance_info 0000000180159a60 f   c40_six_plus_six_AcmsteeringV09_main_2lflm.obj
 0001:00158e80       sf_c40_six_plus_six_AcmsteeringV09_main_2lflm_third_party_uses_info 0000000180159e80 f   c40_six_plus_six_AcmsteeringV09_main_2lflm.obj
 0001:00158eb0       sf_c40_six_plus_six_AcmsteeringV09_main_2lflm_updateBuildInfo_args_info 0000000180159eb0 f   c40_six_plus_six_AcmsteeringV09_main_2lflm.obj
 0001:00158ee0       sf_internal_get_sim_state_c40_six_plus_six_AcmsteeringV09_main_2lflm 0000000180159ee0 f   c40_six_plus_six_AcmsteeringV09_main_2lflm.obj
 0001:00159240       sf_internal_set_sim_state_c40_six_plus_six_AcmsteeringV09_main_2lflm 000000018015a240 f   c40_six_plus_six_AcmsteeringV09_main_2lflm.obj
 0001:00159630       c40_six_plus_six_AcmsteeringV09_main_2lflm_method_dispatcher 000000018015a630 f   c40_six_plus_six_AcmsteeringV09_main_2lflm.obj
 0001:0015b3b0       sf_c41_six_plus_six_AcmsteeringV09_main_2lflm_get_eml_resolved_functions_info 000000018015c3b0 f   c41_six_plus_six_AcmsteeringV09_main_2lflm.obj
 0001:0015b430       sf_c41_six_plus_six_AcmsteeringV09_main_2lflm_get_check_sum 000000018015c430 f   c41_six_plus_six_AcmsteeringV09_main_2lflm.obj
 0001:0015b4b0       sf_c41_six_plus_six_AcmsteeringV09_main_2lflm_get_autoinheritance_info 000000018015c4b0 f   c41_six_plus_six_AcmsteeringV09_main_2lflm.obj
 0001:0015b8d0       sf_c41_six_plus_six_AcmsteeringV09_main_2lflm_third_party_uses_info 000000018015c8d0 f   c41_six_plus_six_AcmsteeringV09_main_2lflm.obj
 0001:0015b900       sf_c41_six_plus_six_AcmsteeringV09_main_2lflm_updateBuildInfo_args_info 000000018015c900 f   c41_six_plus_six_AcmsteeringV09_main_2lflm.obj
 0001:0015b930       sf_internal_get_sim_state_c41_six_plus_six_AcmsteeringV09_main_2lflm 000000018015c930 f   c41_six_plus_six_AcmsteeringV09_main_2lflm.obj
 0001:0015bc90       sf_internal_set_sim_state_c41_six_plus_six_AcmsteeringV09_main_2lflm 000000018015cc90 f   c41_six_plus_six_AcmsteeringV09_main_2lflm.obj
 0001:0015c080       c41_six_plus_six_AcmsteeringV09_main_2lflm_method_dispatcher 000000018015d080 f   c41_six_plus_six_AcmsteeringV09_main_2lflm.obj
 0001:0015ddf0       sf_c42_six_plus_six_AcmsteeringV09_main_2lflm_get_eml_resolved_functions_info 000000018015edf0 f   c42_six_plus_six_AcmsteeringV09_main_2lflm.obj
 0001:0015de70       sf_c42_six_plus_six_AcmsteeringV09_main_2lflm_get_check_sum 000000018015ee70 f   c42_six_plus_six_AcmsteeringV09_main_2lflm.obj
 0001:0015def0       sf_c42_six_plus_six_AcmsteeringV09_main_2lflm_get_autoinheritance_info 000000018015eef0 f   c42_six_plus_six_AcmsteeringV09_main_2lflm.obj
 0001:0015e310       sf_c42_six_plus_six_AcmsteeringV09_main_2lflm_third_party_uses_info 000000018015f310 f   c42_six_plus_six_AcmsteeringV09_main_2lflm.obj
 0001:0015e340       sf_c42_six_plus_six_AcmsteeringV09_main_2lflm_updateBuildInfo_args_info 000000018015f340 f   c42_six_plus_six_AcmsteeringV09_main_2lflm.obj
 0001:0015e370       sf_internal_get_sim_state_c42_six_plus_six_AcmsteeringV09_main_2lflm 000000018015f370 f   c42_six_plus_six_AcmsteeringV09_main_2lflm.obj
 0001:0015e6d0       sf_internal_set_sim_state_c42_six_plus_six_AcmsteeringV09_main_2lflm 000000018015f6d0 f   c42_six_plus_six_AcmsteeringV09_main_2lflm.obj
 0001:0015eac0       c42_six_plus_six_AcmsteeringV09_main_2lflm_method_dispatcher 000000018015fac0 f   c42_six_plus_six_AcmsteeringV09_main_2lflm.obj
 0001:00160830       sf_c43_six_plus_six_AcmsteeringV09_main_2lflm_get_eml_resolved_functions_info 0000000180161830 f   c43_six_plus_six_AcmsteeringV09_main_2lflm.obj
 0001:001608b0       sf_c43_six_plus_six_AcmsteeringV09_main_2lflm_get_check_sum 00000001801618b0 f   c43_six_plus_six_AcmsteeringV09_main_2lflm.obj
 0001:00160930       sf_c43_six_plus_six_AcmsteeringV09_main_2lflm_get_autoinheritance_info 0000000180161930 f   c43_six_plus_six_AcmsteeringV09_main_2lflm.obj
 0001:00160d50       sf_c43_six_plus_six_AcmsteeringV09_main_2lflm_third_party_uses_info 0000000180161d50 f   c43_six_plus_six_AcmsteeringV09_main_2lflm.obj
 0001:00160d80       sf_c43_six_plus_six_AcmsteeringV09_main_2lflm_updateBuildInfo_args_info 0000000180161d80 f   c43_six_plus_six_AcmsteeringV09_main_2lflm.obj
 0001:00160db0       sf_internal_get_sim_state_c43_six_plus_six_AcmsteeringV09_main_2lflm 0000000180161db0 f   c43_six_plus_six_AcmsteeringV09_main_2lflm.obj
 0001:00161110       sf_internal_set_sim_state_c43_six_plus_six_AcmsteeringV09_main_2lflm 0000000180162110 f   c43_six_plus_six_AcmsteeringV09_main_2lflm.obj
 0001:00161500       c43_six_plus_six_AcmsteeringV09_main_2lflm_method_dispatcher 0000000180162500 f   c43_six_plus_six_AcmsteeringV09_main_2lflm.obj
 0001:00163270       sf_c44_six_plus_six_AcmsteeringV09_main_2lflm_get_eml_resolved_functions_info 0000000180164270 f   c44_six_plus_six_AcmsteeringV09_main_2lflm.obj
 0001:001632f0       sf_c44_six_plus_six_AcmsteeringV09_main_2lflm_get_check_sum 00000001801642f0 f   c44_six_plus_six_AcmsteeringV09_main_2lflm.obj
 0001:00163370       sf_c44_six_plus_six_AcmsteeringV09_main_2lflm_get_autoinheritance_info 0000000180164370 f   c44_six_plus_six_AcmsteeringV09_main_2lflm.obj
 0001:00163a20       sf_c44_six_plus_six_AcmsteeringV09_main_2lflm_third_party_uses_info 0000000180164a20 f   c44_six_plus_six_AcmsteeringV09_main_2lflm.obj
 0001:00163a50       sf_c44_six_plus_six_AcmsteeringV09_main_2lflm_updateBuildInfo_args_info 0000000180164a50 f   c44_six_plus_six_AcmsteeringV09_main_2lflm.obj
 0001:00163a80       sf_internal_get_sim_state_c44_six_plus_six_AcmsteeringV09_main_2lflm 0000000180164a80 f   c44_six_plus_six_AcmsteeringV09_main_2lflm.obj
 0001:00163de0       sf_internal_set_sim_state_c44_six_plus_six_AcmsteeringV09_main_2lflm 0000000180164de0 f   c44_six_plus_six_AcmsteeringV09_main_2lflm.obj
 0001:001641b0       c44_six_plus_six_AcmsteeringV09_main_2lflm_method_dispatcher 00000001801651b0 f   c44_six_plus_six_AcmsteeringV09_main_2lflm.obj
 0001:001668c0       sf_c45_six_plus_six_AcmsteeringV09_main_2lflm_get_eml_resolved_functions_info 00000001801678c0 f   c45_six_plus_six_AcmsteeringV09_main_2lflm.obj
 0001:0016a710       sf_c45_six_plus_six_AcmsteeringV09_main_2lflm_get_check_sum 000000018016b710 f   c45_six_plus_six_AcmsteeringV09_main_2lflm.obj
 0001:0016a790       sf_c45_six_plus_six_AcmsteeringV09_main_2lflm_get_autoinheritance_info 000000018016b790 f   c45_six_plus_six_AcmsteeringV09_main_2lflm.obj
 0001:0016de90       sf_c45_six_plus_six_AcmsteeringV09_main_2lflm_third_party_uses_info 000000018016ee90 f   c45_six_plus_six_AcmsteeringV09_main_2lflm.obj
 0001:0016dec0       sf_c45_six_plus_six_AcmsteeringV09_main_2lflm_updateBuildInfo_args_info 000000018016eec0 f   c45_six_plus_six_AcmsteeringV09_main_2lflm.obj
 0001:0016def0       sf_internal_get_sim_state_c45_six_plus_six_AcmsteeringV09_main_2lflm 000000018016eef0 f   c45_six_plus_six_AcmsteeringV09_main_2lflm.obj
 0001:0016e7b0       sf_internal_set_sim_state_c45_six_plus_six_AcmsteeringV09_main_2lflm 000000018016f7b0 f   c45_six_plus_six_AcmsteeringV09_main_2lflm.obj
 0001:0016ee00       c45_six_plus_six_AcmsteeringV09_main_2lflm_method_dispatcher 000000018016fe00 f   c45_six_plus_six_AcmsteeringV09_main_2lflm.obj
 0001:0017a6c0       sf_c46_six_plus_six_AcmsteeringV09_main_2lflm_get_eml_resolved_functions_info 000000018017b6c0 f   c46_six_plus_six_AcmsteeringV09_main_2lflm.obj
 0001:0017a740       sf_c46_six_plus_six_AcmsteeringV09_main_2lflm_get_check_sum 000000018017b740 f   c46_six_plus_six_AcmsteeringV09_main_2lflm.obj
 0001:0017a7c0       sf_c46_six_plus_six_AcmsteeringV09_main_2lflm_get_autoinheritance_info 000000018017b7c0 f   c46_six_plus_six_AcmsteeringV09_main_2lflm.obj
 0001:0017abe0       sf_c46_six_plus_six_AcmsteeringV09_main_2lflm_third_party_uses_info 000000018017bbe0 f   c46_six_plus_six_AcmsteeringV09_main_2lflm.obj
 0001:0017ac10       sf_c46_six_plus_six_AcmsteeringV09_main_2lflm_updateBuildInfo_args_info 000000018017bc10 f   c46_six_plus_six_AcmsteeringV09_main_2lflm.obj
 0001:0017ac40       sf_internal_get_sim_state_c46_six_plus_six_AcmsteeringV09_main_2lflm 000000018017bc40 f   c46_six_plus_six_AcmsteeringV09_main_2lflm.obj
 0001:0017afa0       sf_internal_set_sim_state_c46_six_plus_six_AcmsteeringV09_main_2lflm 000000018017bfa0 f   c46_six_plus_six_AcmsteeringV09_main_2lflm.obj
 0001:0017b390       c46_six_plus_six_AcmsteeringV09_main_2lflm_method_dispatcher 000000018017c390 f   c46_six_plus_six_AcmsteeringV09_main_2lflm.obj
 0001:0017d100       sf_c47_six_plus_six_AcmsteeringV09_main_2lflm_get_eml_resolved_functions_info 000000018017e100 f   c47_six_plus_six_AcmsteeringV09_main_2lflm.obj
 0001:0017d180       sf_c47_six_plus_six_AcmsteeringV09_main_2lflm_get_check_sum 000000018017e180 f   c47_six_plus_six_AcmsteeringV09_main_2lflm.obj
 0001:0017d200       sf_c47_six_plus_six_AcmsteeringV09_main_2lflm_get_autoinheritance_info 000000018017e200 f   c47_six_plus_six_AcmsteeringV09_main_2lflm.obj
 0001:0017d620       sf_c47_six_plus_six_AcmsteeringV09_main_2lflm_third_party_uses_info 000000018017e620 f   c47_six_plus_six_AcmsteeringV09_main_2lflm.obj
 0001:0017d650       sf_c47_six_plus_six_AcmsteeringV09_main_2lflm_updateBuildInfo_args_info 000000018017e650 f   c47_six_plus_six_AcmsteeringV09_main_2lflm.obj
 0001:0017d680       sf_internal_get_sim_state_c47_six_plus_six_AcmsteeringV09_main_2lflm 000000018017e680 f   c47_six_plus_six_AcmsteeringV09_main_2lflm.obj
 0001:0017d9e0       sf_internal_set_sim_state_c47_six_plus_six_AcmsteeringV09_main_2lflm 000000018017e9e0 f   c47_six_plus_six_AcmsteeringV09_main_2lflm.obj
 0001:0017ddd0       c47_six_plus_six_AcmsteeringV09_main_2lflm_method_dispatcher 000000018017edd0 f   c47_six_plus_six_AcmsteeringV09_main_2lflm.obj
 0001:0017fb40       sf_c48_six_plus_six_AcmsteeringV09_main_2lflm_get_eml_resolved_functions_info 0000000180180b40 f   c48_six_plus_six_AcmsteeringV09_main_2lflm.obj
 0001:0017fbc0       sf_c48_six_plus_six_AcmsteeringV09_main_2lflm_get_check_sum 0000000180180bc0 f   c48_six_plus_six_AcmsteeringV09_main_2lflm.obj
 0001:0017fc40       sf_c48_six_plus_six_AcmsteeringV09_main_2lflm_get_autoinheritance_info 0000000180180c40 f   c48_six_plus_six_AcmsteeringV09_main_2lflm.obj
 0001:00180060       sf_c48_six_plus_six_AcmsteeringV09_main_2lflm_third_party_uses_info 0000000180181060 f   c48_six_plus_six_AcmsteeringV09_main_2lflm.obj
 0001:00180090       sf_c48_six_plus_six_AcmsteeringV09_main_2lflm_updateBuildInfo_args_info 0000000180181090 f   c48_six_plus_six_AcmsteeringV09_main_2lflm.obj
 0001:001800c0       sf_internal_get_sim_state_c48_six_plus_six_AcmsteeringV09_main_2lflm 00000001801810c0 f   c48_six_plus_six_AcmsteeringV09_main_2lflm.obj
 0001:00180420       sf_internal_set_sim_state_c48_six_plus_six_AcmsteeringV09_main_2lflm 0000000180181420 f   c48_six_plus_six_AcmsteeringV09_main_2lflm.obj
 0001:00180810       c48_six_plus_six_AcmsteeringV09_main_2lflm_method_dispatcher 0000000180181810 f   c48_six_plus_six_AcmsteeringV09_main_2lflm.obj
 0001:00182590       sf_c49_six_plus_six_AcmsteeringV09_main_2lflm_get_eml_resolved_functions_info 0000000180183590 f   c49_six_plus_six_AcmsteeringV09_main_2lflm.obj
 0001:00185c90       sf_c49_six_plus_six_AcmsteeringV09_main_2lflm_get_check_sum 0000000180186c90 f   c49_six_plus_six_AcmsteeringV09_main_2lflm.obj
 0001:00185d10       sf_c49_six_plus_six_AcmsteeringV09_main_2lflm_get_autoinheritance_info 0000000180186d10 f   c49_six_plus_six_AcmsteeringV09_main_2lflm.obj
 0001:00188120       sf_c49_six_plus_six_AcmsteeringV09_main_2lflm_third_party_uses_info 0000000180189120 f   c49_six_plus_six_AcmsteeringV09_main_2lflm.obj
 0001:00188150       sf_c49_six_plus_six_AcmsteeringV09_main_2lflm_updateBuildInfo_args_info 0000000180189150 f   c49_six_plus_six_AcmsteeringV09_main_2lflm.obj
 0001:00188180       sf_internal_get_sim_state_c49_six_plus_six_AcmsteeringV09_main_2lflm 0000000180189180 f   c49_six_plus_six_AcmsteeringV09_main_2lflm.obj
 0001:00188b10       sf_internal_set_sim_state_c49_six_plus_six_AcmsteeringV09_main_2lflm 0000000180189b10 f   c49_six_plus_six_AcmsteeringV09_main_2lflm.obj
 0001:001892c0       c49_six_plus_six_AcmsteeringV09_main_2lflm_method_dispatcher 000000018018a2c0 f   c49_six_plus_six_AcmsteeringV09_main_2lflm.obj
 0001:00190610       sf_c50_six_plus_six_AcmsteeringV09_main_2lflm_get_eml_resolved_functions_info 0000000180191610 f   c50_six_plus_six_AcmsteeringV09_main_2lflm.obj
 0001:00190690       sf_c50_six_plus_six_AcmsteeringV09_main_2lflm_get_check_sum 0000000180191690 f   c50_six_plus_six_AcmsteeringV09_main_2lflm.obj
 0001:00190710       sf_c50_six_plus_six_AcmsteeringV09_main_2lflm_get_autoinheritance_info 0000000180191710 f   c50_six_plus_six_AcmsteeringV09_main_2lflm.obj
 0001:00190b30       sf_c50_six_plus_six_AcmsteeringV09_main_2lflm_third_party_uses_info 0000000180191b30 f   c50_six_plus_six_AcmsteeringV09_main_2lflm.obj
 0001:00190b60       sf_c50_six_plus_six_AcmsteeringV09_main_2lflm_updateBuildInfo_args_info 0000000180191b60 f   c50_six_plus_six_AcmsteeringV09_main_2lflm.obj
 0001:00190b90       sf_internal_get_sim_state_c50_six_plus_six_AcmsteeringV09_main_2lflm 0000000180191b90 f   c50_six_plus_six_AcmsteeringV09_main_2lflm.obj
 0001:00190ef0       sf_internal_set_sim_state_c50_six_plus_six_AcmsteeringV09_main_2lflm 0000000180191ef0 f   c50_six_plus_six_AcmsteeringV09_main_2lflm.obj
 0001:001912e0       c50_six_plus_six_AcmsteeringV09_main_2lflm_method_dispatcher 00000001801922e0 f   c50_six_plus_six_AcmsteeringV09_main_2lflm.obj
 0001:00193050       sf_c51_six_plus_six_AcmsteeringV09_main_2lflm_get_eml_resolved_functions_info 0000000180194050 f   c51_six_plus_six_AcmsteeringV09_main_2lflm.obj
 0001:001930d0       sf_c51_six_plus_six_AcmsteeringV09_main_2lflm_get_check_sum 00000001801940d0 f   c51_six_plus_six_AcmsteeringV09_main_2lflm.obj
 0001:00193150       sf_c51_six_plus_six_AcmsteeringV09_main_2lflm_get_autoinheritance_info 0000000180194150 f   c51_six_plus_six_AcmsteeringV09_main_2lflm.obj
 0001:00193570       sf_c51_six_plus_six_AcmsteeringV09_main_2lflm_third_party_uses_info 0000000180194570 f   c51_six_plus_six_AcmsteeringV09_main_2lflm.obj
 0001:001935a0       sf_c51_six_plus_six_AcmsteeringV09_main_2lflm_updateBuildInfo_args_info 00000001801945a0 f   c51_six_plus_six_AcmsteeringV09_main_2lflm.obj
 0001:001935d0       sf_internal_get_sim_state_c51_six_plus_six_AcmsteeringV09_main_2lflm 00000001801945d0 f   c51_six_plus_six_AcmsteeringV09_main_2lflm.obj
 0001:00193930       sf_internal_set_sim_state_c51_six_plus_six_AcmsteeringV09_main_2lflm 0000000180194930 f   c51_six_plus_six_AcmsteeringV09_main_2lflm.obj
 0001:00193d20       c51_six_plus_six_AcmsteeringV09_main_2lflm_method_dispatcher 0000000180194d20 f   c51_six_plus_six_AcmsteeringV09_main_2lflm.obj
 0001:00195a90       sf_c52_six_plus_six_AcmsteeringV09_main_2lflm_get_eml_resolved_functions_info 0000000180196a90 f   c52_six_plus_six_AcmsteeringV09_main_2lflm.obj
 0001:00195b10       sf_c52_six_plus_six_AcmsteeringV09_main_2lflm_get_check_sum 0000000180196b10 f   c52_six_plus_six_AcmsteeringV09_main_2lflm.obj
 0001:00195b90       sf_c52_six_plus_six_AcmsteeringV09_main_2lflm_get_autoinheritance_info 0000000180196b90 f   c52_six_plus_six_AcmsteeringV09_main_2lflm.obj
 0001:00195fb0       sf_c52_six_plus_six_AcmsteeringV09_main_2lflm_third_party_uses_info 0000000180196fb0 f   c52_six_plus_six_AcmsteeringV09_main_2lflm.obj
 0001:00195fe0       sf_c52_six_plus_six_AcmsteeringV09_main_2lflm_updateBuildInfo_args_info 0000000180196fe0 f   c52_six_plus_six_AcmsteeringV09_main_2lflm.obj
 0001:00196010       sf_internal_get_sim_state_c52_six_plus_six_AcmsteeringV09_main_2lflm 0000000180197010 f   c52_six_plus_six_AcmsteeringV09_main_2lflm.obj
 0001:00196370       sf_internal_set_sim_state_c52_six_plus_six_AcmsteeringV09_main_2lflm 0000000180197370 f   c52_six_plus_six_AcmsteeringV09_main_2lflm.obj
 0001:00196760       c52_six_plus_six_AcmsteeringV09_main_2lflm_method_dispatcher 0000000180197760 f   c52_six_plus_six_AcmsteeringV09_main_2lflm.obj
 0001:001984e0       sf_c53_six_plus_six_AcmsteeringV09_main_2lflm_get_eml_resolved_functions_info 00000001801994e0 f   c53_six_plus_six_AcmsteeringV09_main_2lflm.obj
 0001:00198560       sf_c53_six_plus_six_AcmsteeringV09_main_2lflm_get_check_sum 0000000180199560 f   c53_six_plus_six_AcmsteeringV09_main_2lflm.obj
 0001:001985e0       sf_c53_six_plus_six_AcmsteeringV09_main_2lflm_get_autoinheritance_info 00000001801995e0 f   c53_six_plus_six_AcmsteeringV09_main_2lflm.obj
 0001:00198a00       sf_c53_six_plus_six_AcmsteeringV09_main_2lflm_third_party_uses_info 0000000180199a00 f   c53_six_plus_six_AcmsteeringV09_main_2lflm.obj
 0001:00198a30       sf_c53_six_plus_six_AcmsteeringV09_main_2lflm_updateBuildInfo_args_info 0000000180199a30 f   c53_six_plus_six_AcmsteeringV09_main_2lflm.obj
 0001:00198a60       sf_internal_get_sim_state_c53_six_plus_six_AcmsteeringV09_main_2lflm 0000000180199a60 f   c53_six_plus_six_AcmsteeringV09_main_2lflm.obj
 0001:00198dc0       sf_internal_set_sim_state_c53_six_plus_six_AcmsteeringV09_main_2lflm 0000000180199dc0 f   c53_six_plus_six_AcmsteeringV09_main_2lflm.obj
 0001:001991b0       c53_six_plus_six_AcmsteeringV09_main_2lflm_method_dispatcher 000000018019a1b0 f   c53_six_plus_six_AcmsteeringV09_main_2lflm.obj
 0001:0019af20       sf_c54_six_plus_six_AcmsteeringV09_main_2lflm_get_eml_resolved_functions_info 000000018019bf20 f   c54_six_plus_six_AcmsteeringV09_main_2lflm.obj
 0001:0019afa0       sf_c54_six_plus_six_AcmsteeringV09_main_2lflm_get_check_sum 000000018019bfa0 f   c54_six_plus_six_AcmsteeringV09_main_2lflm.obj
 0001:0019b020       sf_c54_six_plus_six_AcmsteeringV09_main_2lflm_get_autoinheritance_info 000000018019c020 f   c54_six_plus_six_AcmsteeringV09_main_2lflm.obj
 0001:0019b440       sf_c54_six_plus_six_AcmsteeringV09_main_2lflm_third_party_uses_info 000000018019c440 f   c54_six_plus_six_AcmsteeringV09_main_2lflm.obj
 0001:0019b470       sf_c54_six_plus_six_AcmsteeringV09_main_2lflm_updateBuildInfo_args_info 000000018019c470 f   c54_six_plus_six_AcmsteeringV09_main_2lflm.obj
 0001:0019b4a0       sf_internal_get_sim_state_c54_six_plus_six_AcmsteeringV09_main_2lflm 000000018019c4a0 f   c54_six_plus_six_AcmsteeringV09_main_2lflm.obj
 0001:0019b800       sf_internal_set_sim_state_c54_six_plus_six_AcmsteeringV09_main_2lflm 000000018019c800 f   c54_six_plus_six_AcmsteeringV09_main_2lflm.obj
 0001:0019bbf0       c54_six_plus_six_AcmsteeringV09_main_2lflm_method_dispatcher 000000018019cbf0 f   c54_six_plus_six_AcmsteeringV09_main_2lflm.obj
 0001:0019d960       sf_c55_six_plus_six_AcmsteeringV09_main_2lflm_get_eml_resolved_functions_info 000000018019e960 f   c55_six_plus_six_AcmsteeringV09_main_2lflm.obj
 0001:0019d9e0       sf_c55_six_plus_six_AcmsteeringV09_main_2lflm_get_check_sum 000000018019e9e0 f   c55_six_plus_six_AcmsteeringV09_main_2lflm.obj
 0001:0019da60       sf_c55_six_plus_six_AcmsteeringV09_main_2lflm_get_autoinheritance_info 000000018019ea60 f   c55_six_plus_six_AcmsteeringV09_main_2lflm.obj
 0001:0019de80       sf_c55_six_plus_six_AcmsteeringV09_main_2lflm_third_party_uses_info 000000018019ee80 f   c55_six_plus_six_AcmsteeringV09_main_2lflm.obj
 0001:0019deb0       sf_c55_six_plus_six_AcmsteeringV09_main_2lflm_updateBuildInfo_args_info 000000018019eeb0 f   c55_six_plus_six_AcmsteeringV09_main_2lflm.obj
 0001:0019dee0       sf_internal_get_sim_state_c55_six_plus_six_AcmsteeringV09_main_2lflm 000000018019eee0 f   c55_six_plus_six_AcmsteeringV09_main_2lflm.obj
 0001:0019e240       sf_internal_set_sim_state_c55_six_plus_six_AcmsteeringV09_main_2lflm 000000018019f240 f   c55_six_plus_six_AcmsteeringV09_main_2lflm.obj
 0001:0019e630       c55_six_plus_six_AcmsteeringV09_main_2lflm_method_dispatcher 000000018019f630 f   c55_six_plus_six_AcmsteeringV09_main_2lflm.obj
 0001:001a03a0       sf_c56_six_plus_six_AcmsteeringV09_main_2lflm_get_eml_resolved_functions_info 00000001801a13a0 f   c56_six_plus_six_AcmsteeringV09_main_2lflm.obj
 0001:001a0420       sf_c56_six_plus_six_AcmsteeringV09_main_2lflm_get_check_sum 00000001801a1420 f   c56_six_plus_six_AcmsteeringV09_main_2lflm.obj
 0001:001a04a0       sf_c56_six_plus_six_AcmsteeringV09_main_2lflm_get_autoinheritance_info 00000001801a14a0 f   c56_six_plus_six_AcmsteeringV09_main_2lflm.obj
 0001:001a08c0       sf_c56_six_plus_six_AcmsteeringV09_main_2lflm_third_party_uses_info 00000001801a18c0 f   c56_six_plus_six_AcmsteeringV09_main_2lflm.obj
 0001:001a08f0       sf_c56_six_plus_six_AcmsteeringV09_main_2lflm_updateBuildInfo_args_info 00000001801a18f0 f   c56_six_plus_six_AcmsteeringV09_main_2lflm.obj
 0001:001a0920       sf_internal_get_sim_state_c56_six_plus_six_AcmsteeringV09_main_2lflm 00000001801a1920 f   c56_six_plus_six_AcmsteeringV09_main_2lflm.obj
 0001:001a0c80       sf_internal_set_sim_state_c56_six_plus_six_AcmsteeringV09_main_2lflm 00000001801a1c80 f   c56_six_plus_six_AcmsteeringV09_main_2lflm.obj
 0001:001a1070       c56_six_plus_six_AcmsteeringV09_main_2lflm_method_dispatcher 00000001801a2070 f   c56_six_plus_six_AcmsteeringV09_main_2lflm.obj
 0001:001a2de0       sf_c57_six_plus_six_AcmsteeringV09_main_2lflm_get_eml_resolved_functions_info 00000001801a3de0 f   c57_six_plus_six_AcmsteeringV09_main_2lflm.obj
 0001:001a2e60       sf_c57_six_plus_six_AcmsteeringV09_main_2lflm_get_check_sum 00000001801a3e60 f   c57_six_plus_six_AcmsteeringV09_main_2lflm.obj
 0001:001a2ee0       sf_c57_six_plus_six_AcmsteeringV09_main_2lflm_get_autoinheritance_info 00000001801a3ee0 f   c57_six_plus_six_AcmsteeringV09_main_2lflm.obj
 0001:001a3300       sf_c57_six_plus_six_AcmsteeringV09_main_2lflm_third_party_uses_info 00000001801a4300 f   c57_six_plus_six_AcmsteeringV09_main_2lflm.obj
 0001:001a3330       sf_c57_six_plus_six_AcmsteeringV09_main_2lflm_updateBuildInfo_args_info 00000001801a4330 f   c57_six_plus_six_AcmsteeringV09_main_2lflm.obj
 0001:001a3360       sf_internal_get_sim_state_c57_six_plus_six_AcmsteeringV09_main_2lflm 00000001801a4360 f   c57_six_plus_six_AcmsteeringV09_main_2lflm.obj
 0001:001a36c0       sf_internal_set_sim_state_c57_six_plus_six_AcmsteeringV09_main_2lflm 00000001801a46c0 f   c57_six_plus_six_AcmsteeringV09_main_2lflm.obj
 0001:001a3ab0       c57_six_plus_six_AcmsteeringV09_main_2lflm_method_dispatcher 00000001801a4ab0 f   c57_six_plus_six_AcmsteeringV09_main_2lflm.obj
 0001:001a5820       sf_c58_six_plus_six_AcmsteeringV09_main_2lflm_get_eml_resolved_functions_info 00000001801a6820 f   c58_six_plus_six_AcmsteeringV09_main_2lflm.obj
 0001:001a58a0       sf_c58_six_plus_six_AcmsteeringV09_main_2lflm_get_check_sum 00000001801a68a0 f   c58_six_plus_six_AcmsteeringV09_main_2lflm.obj
 0001:001a5920       sf_c58_six_plus_six_AcmsteeringV09_main_2lflm_get_autoinheritance_info 00000001801a6920 f   c58_six_plus_six_AcmsteeringV09_main_2lflm.obj
 0001:001a5d40       sf_c58_six_plus_six_AcmsteeringV09_main_2lflm_third_party_uses_info 00000001801a6d40 f   c58_six_plus_six_AcmsteeringV09_main_2lflm.obj
 0001:001a5d70       sf_c58_six_plus_six_AcmsteeringV09_main_2lflm_updateBuildInfo_args_info 00000001801a6d70 f   c58_six_plus_six_AcmsteeringV09_main_2lflm.obj
 0001:001a5da0       sf_internal_get_sim_state_c58_six_plus_six_AcmsteeringV09_main_2lflm 00000001801a6da0 f   c58_six_plus_six_AcmsteeringV09_main_2lflm.obj
 0001:001a6100       sf_internal_set_sim_state_c58_six_plus_six_AcmsteeringV09_main_2lflm 00000001801a7100 f   c58_six_plus_six_AcmsteeringV09_main_2lflm.obj
 0001:001a64f0       c58_six_plus_six_AcmsteeringV09_main_2lflm_method_dispatcher 00000001801a74f0 f   c58_six_plus_six_AcmsteeringV09_main_2lflm.obj
 0001:001a8250       sf_c59_six_plus_six_AcmsteeringV09_main_2lflm_get_eml_resolved_functions_info 00000001801a9250 f   c59_six_plus_six_AcmsteeringV09_main_2lflm.obj
 0001:001a82d0       sf_c59_six_plus_six_AcmsteeringV09_main_2lflm_get_check_sum 00000001801a92d0 f   c59_six_plus_six_AcmsteeringV09_main_2lflm.obj
 0001:001a8350       sf_c59_six_plus_six_AcmsteeringV09_main_2lflm_get_autoinheritance_info 00000001801a9350 f   c59_six_plus_six_AcmsteeringV09_main_2lflm.obj
 0001:001a8770       sf_c59_six_plus_six_AcmsteeringV09_main_2lflm_third_party_uses_info 00000001801a9770 f   c59_six_plus_six_AcmsteeringV09_main_2lflm.obj
 0001:001a87a0       sf_c59_six_plus_six_AcmsteeringV09_main_2lflm_updateBuildInfo_args_info 00000001801a97a0 f   c59_six_plus_six_AcmsteeringV09_main_2lflm.obj
 0001:001a87d0       sf_internal_get_sim_state_c59_six_plus_six_AcmsteeringV09_main_2lflm 00000001801a97d0 f   c59_six_plus_six_AcmsteeringV09_main_2lflm.obj
 0001:001a8b30       sf_internal_set_sim_state_c59_six_plus_six_AcmsteeringV09_main_2lflm 00000001801a9b30 f   c59_six_plus_six_AcmsteeringV09_main_2lflm.obj
 0001:001a8f20       c59_six_plus_six_AcmsteeringV09_main_2lflm_method_dispatcher 00000001801a9f20 f   c59_six_plus_six_AcmsteeringV09_main_2lflm.obj
 0001:001aac90       sf_c60_six_plus_six_AcmsteeringV09_main_2lflm_get_eml_resolved_functions_info 00000001801abc90 f   c60_six_plus_six_AcmsteeringV09_main_2lflm.obj
 0001:001aad10       sf_c60_six_plus_six_AcmsteeringV09_main_2lflm_get_check_sum 00000001801abd10 f   c60_six_plus_six_AcmsteeringV09_main_2lflm.obj
 0001:001aad90       sf_c60_six_plus_six_AcmsteeringV09_main_2lflm_get_autoinheritance_info 00000001801abd90 f   c60_six_plus_six_AcmsteeringV09_main_2lflm.obj
 0001:001ab1b0       sf_c60_six_plus_six_AcmsteeringV09_main_2lflm_third_party_uses_info 00000001801ac1b0 f   c60_six_plus_six_AcmsteeringV09_main_2lflm.obj
 0001:001ab1e0       sf_c60_six_plus_six_AcmsteeringV09_main_2lflm_updateBuildInfo_args_info 00000001801ac1e0 f   c60_six_plus_six_AcmsteeringV09_main_2lflm.obj
 0001:001ab210       sf_internal_get_sim_state_c60_six_plus_six_AcmsteeringV09_main_2lflm 00000001801ac210 f   c60_six_plus_six_AcmsteeringV09_main_2lflm.obj
 0001:001ab580       sf_internal_set_sim_state_c60_six_plus_six_AcmsteeringV09_main_2lflm 00000001801ac580 f   c60_six_plus_six_AcmsteeringV09_main_2lflm.obj
 0001:001ab970       c60_six_plus_six_AcmsteeringV09_main_2lflm_method_dispatcher 00000001801ac970 f   c60_six_plus_six_AcmsteeringV09_main_2lflm.obj
 0001:001ad500       sf_c61_six_plus_six_AcmsteeringV09_main_2lflm_get_eml_resolved_functions_info 00000001801ae500 f   c61_six_plus_six_AcmsteeringV09_main_2lflm.obj
 0001:001ad580       sf_c61_six_plus_six_AcmsteeringV09_main_2lflm_get_check_sum 00000001801ae580 f   c61_six_plus_six_AcmsteeringV09_main_2lflm.obj
 0001:001ad600       sf_c61_six_plus_six_AcmsteeringV09_main_2lflm_get_autoinheritance_info 00000001801ae600 f   c61_six_plus_six_AcmsteeringV09_main_2lflm.obj
 0001:001ada20       sf_c61_six_plus_six_AcmsteeringV09_main_2lflm_third_party_uses_info 00000001801aea20 f   c61_six_plus_six_AcmsteeringV09_main_2lflm.obj
 0001:001ada50       sf_c61_six_plus_six_AcmsteeringV09_main_2lflm_updateBuildInfo_args_info 00000001801aea50 f   c61_six_plus_six_AcmsteeringV09_main_2lflm.obj
 0001:001ada80       sf_internal_get_sim_state_c61_six_plus_six_AcmsteeringV09_main_2lflm 00000001801aea80 f   c61_six_plus_six_AcmsteeringV09_main_2lflm.obj
 0001:001adde0       sf_internal_set_sim_state_c61_six_plus_six_AcmsteeringV09_main_2lflm 00000001801aede0 f   c61_six_plus_six_AcmsteeringV09_main_2lflm.obj
 0001:001ae1d0       c61_six_plus_six_AcmsteeringV09_main_2lflm_method_dispatcher 00000001801af1d0 f   c61_six_plus_six_AcmsteeringV09_main_2lflm.obj
 0001:001aff30       sf_c62_six_plus_six_AcmsteeringV09_main_2lflm_get_eml_resolved_functions_info 00000001801b0f30 f   c62_six_plus_six_AcmsteeringV09_main_2lflm.obj
 0001:001affb0       sf_c62_six_plus_six_AcmsteeringV09_main_2lflm_get_check_sum 00000001801b0fb0 f   c62_six_plus_six_AcmsteeringV09_main_2lflm.obj
 0001:001b0030       sf_c62_six_plus_six_AcmsteeringV09_main_2lflm_get_autoinheritance_info 00000001801b1030 f   c62_six_plus_six_AcmsteeringV09_main_2lflm.obj
 0001:001b0450       sf_c62_six_plus_six_AcmsteeringV09_main_2lflm_third_party_uses_info 00000001801b1450 f   c62_six_plus_six_AcmsteeringV09_main_2lflm.obj
 0001:001b0480       sf_c62_six_plus_six_AcmsteeringV09_main_2lflm_updateBuildInfo_args_info 00000001801b1480 f   c62_six_plus_six_AcmsteeringV09_main_2lflm.obj
 0001:001b04b0       sf_internal_get_sim_state_c62_six_plus_six_AcmsteeringV09_main_2lflm 00000001801b14b0 f   c62_six_plus_six_AcmsteeringV09_main_2lflm.obj
 0001:001b0820       sf_internal_set_sim_state_c62_six_plus_six_AcmsteeringV09_main_2lflm 00000001801b1820 f   c62_six_plus_six_AcmsteeringV09_main_2lflm.obj
 0001:001b0c10       c62_six_plus_six_AcmsteeringV09_main_2lflm_method_dispatcher 00000001801b1c10 f   c62_six_plus_six_AcmsteeringV09_main_2lflm.obj
 0001:001b2790       sf_c63_six_plus_six_AcmsteeringV09_main_2lflm_get_eml_resolved_functions_info 00000001801b3790 f   c63_six_plus_six_AcmsteeringV09_main_2lflm.obj
 0001:001b2810       sf_c63_six_plus_six_AcmsteeringV09_main_2lflm_get_check_sum 00000001801b3810 f   c63_six_plus_six_AcmsteeringV09_main_2lflm.obj
 0001:001b2890       sf_c63_six_plus_six_AcmsteeringV09_main_2lflm_get_autoinheritance_info 00000001801b3890 f   c63_six_plus_six_AcmsteeringV09_main_2lflm.obj
 0001:001b2cb0       sf_c63_six_plus_six_AcmsteeringV09_main_2lflm_third_party_uses_info 00000001801b3cb0 f   c63_six_plus_six_AcmsteeringV09_main_2lflm.obj
 0001:001b2ce0       sf_c63_six_plus_six_AcmsteeringV09_main_2lflm_updateBuildInfo_args_info 00000001801b3ce0 f   c63_six_plus_six_AcmsteeringV09_main_2lflm.obj
 0001:001b2d10       sf_internal_get_sim_state_c63_six_plus_six_AcmsteeringV09_main_2lflm 00000001801b3d10 f   c63_six_plus_six_AcmsteeringV09_main_2lflm.obj
 0001:001b3070       sf_internal_set_sim_state_c63_six_plus_six_AcmsteeringV09_main_2lflm 00000001801b4070 f   c63_six_plus_six_AcmsteeringV09_main_2lflm.obj
 0001:001b3460       c63_six_plus_six_AcmsteeringV09_main_2lflm_method_dispatcher 00000001801b4460 f   c63_six_plus_six_AcmsteeringV09_main_2lflm.obj
 0001:001b51d0       sf_c64_six_plus_six_AcmsteeringV09_main_2lflm_get_eml_resolved_functions_info 00000001801b61d0 f   c64_six_plus_six_AcmsteeringV09_main_2lflm.obj
 0001:001b5250       sf_c64_six_plus_six_AcmsteeringV09_main_2lflm_get_check_sum 00000001801b6250 f   c64_six_plus_six_AcmsteeringV09_main_2lflm.obj
 0001:001b52d0       sf_c64_six_plus_six_AcmsteeringV09_main_2lflm_get_autoinheritance_info 00000001801b62d0 f   c64_six_plus_six_AcmsteeringV09_main_2lflm.obj
 0001:001b56f0       sf_c64_six_plus_six_AcmsteeringV09_main_2lflm_third_party_uses_info 00000001801b66f0 f   c64_six_plus_six_AcmsteeringV09_main_2lflm.obj
 0001:001b5720       sf_c64_six_plus_six_AcmsteeringV09_main_2lflm_updateBuildInfo_args_info 00000001801b6720 f   c64_six_plus_six_AcmsteeringV09_main_2lflm.obj
 0001:001b5750       sf_internal_get_sim_state_c64_six_plus_six_AcmsteeringV09_main_2lflm 00000001801b6750 f   c64_six_plus_six_AcmsteeringV09_main_2lflm.obj
 0001:001b5ab0       sf_internal_set_sim_state_c64_six_plus_six_AcmsteeringV09_main_2lflm 00000001801b6ab0 f   c64_six_plus_six_AcmsteeringV09_main_2lflm.obj
 0001:001b5ea0       c64_six_plus_six_AcmsteeringV09_main_2lflm_method_dispatcher 00000001801b6ea0 f   c64_six_plus_six_AcmsteeringV09_main_2lflm.obj
 0001:001b7a30       sf_c65_six_plus_six_AcmsteeringV09_main_2lflm_get_eml_resolved_functions_info 00000001801b8a30 f   c65_six_plus_six_AcmsteeringV09_main_2lflm.obj
 0001:001b7ab0       sf_c65_six_plus_six_AcmsteeringV09_main_2lflm_get_check_sum 00000001801b8ab0 f   c65_six_plus_six_AcmsteeringV09_main_2lflm.obj
 0001:001b7b30       sf_c65_six_plus_six_AcmsteeringV09_main_2lflm_get_autoinheritance_info 00000001801b8b30 f   c65_six_plus_six_AcmsteeringV09_main_2lflm.obj
 0001:001b7f50       sf_c65_six_plus_six_AcmsteeringV09_main_2lflm_third_party_uses_info 00000001801b8f50 f   c65_six_plus_six_AcmsteeringV09_main_2lflm.obj
 0001:001b7f80       sf_c65_six_plus_six_AcmsteeringV09_main_2lflm_updateBuildInfo_args_info 00000001801b8f80 f   c65_six_plus_six_AcmsteeringV09_main_2lflm.obj
 0001:001b7fb0       sf_internal_get_sim_state_c65_six_plus_six_AcmsteeringV09_main_2lflm 00000001801b8fb0 f   c65_six_plus_six_AcmsteeringV09_main_2lflm.obj
 0001:001b8310       sf_internal_set_sim_state_c65_six_plus_six_AcmsteeringV09_main_2lflm 00000001801b9310 f   c65_six_plus_six_AcmsteeringV09_main_2lflm.obj
 0001:001b8700       c65_six_plus_six_AcmsteeringV09_main_2lflm_method_dispatcher 00000001801b9700 f   c65_six_plus_six_AcmsteeringV09_main_2lflm.obj
 0001:001ba290       sf_c66_six_plus_six_AcmsteeringV09_main_2lflm_get_eml_resolved_functions_info 00000001801bb290 f   c66_six_plus_six_AcmsteeringV09_main_2lflm.obj
 0001:001ba310       sf_c66_six_plus_six_AcmsteeringV09_main_2lflm_get_check_sum 00000001801bb310 f   c66_six_plus_six_AcmsteeringV09_main_2lflm.obj
 0001:001ba390       sf_c66_six_plus_six_AcmsteeringV09_main_2lflm_get_autoinheritance_info 00000001801bb390 f   c66_six_plus_six_AcmsteeringV09_main_2lflm.obj
 0001:001ba7b0       sf_c66_six_plus_six_AcmsteeringV09_main_2lflm_third_party_uses_info 00000001801bb7b0 f   c66_six_plus_six_AcmsteeringV09_main_2lflm.obj
 0001:001ba7e0       sf_c66_six_plus_six_AcmsteeringV09_main_2lflm_updateBuildInfo_args_info 00000001801bb7e0 f   c66_six_plus_six_AcmsteeringV09_main_2lflm.obj
 0001:001ba810       sf_internal_get_sim_state_c66_six_plus_six_AcmsteeringV09_main_2lflm 00000001801bb810 f   c66_six_plus_six_AcmsteeringV09_main_2lflm.obj
 0001:001bab70       sf_internal_set_sim_state_c66_six_plus_six_AcmsteeringV09_main_2lflm 00000001801bbb70 f   c66_six_plus_six_AcmsteeringV09_main_2lflm.obj
 0001:001baf60       c66_six_plus_six_AcmsteeringV09_main_2lflm_method_dispatcher 00000001801bbf60 f   c66_six_plus_six_AcmsteeringV09_main_2lflm.obj
 0001:001bcae0       sf_c67_six_plus_six_AcmsteeringV09_main_2lflm_get_eml_resolved_functions_info 00000001801bdae0 f   c67_six_plus_six_AcmsteeringV09_main_2lflm.obj
 0001:001bcb60       sf_c67_six_plus_six_AcmsteeringV09_main_2lflm_get_check_sum 00000001801bdb60 f   c67_six_plus_six_AcmsteeringV09_main_2lflm.obj
 0001:001bcbe0       sf_c67_six_plus_six_AcmsteeringV09_main_2lflm_get_autoinheritance_info 00000001801bdbe0 f   c67_six_plus_six_AcmsteeringV09_main_2lflm.obj
 0001:001bd000       sf_c67_six_plus_six_AcmsteeringV09_main_2lflm_third_party_uses_info 00000001801be000 f   c67_six_plus_six_AcmsteeringV09_main_2lflm.obj
 0001:001bd030       sf_c67_six_plus_six_AcmsteeringV09_main_2lflm_updateBuildInfo_args_info 00000001801be030 f   c67_six_plus_six_AcmsteeringV09_main_2lflm.obj
 0001:001bd060       sf_internal_get_sim_state_c67_six_plus_six_AcmsteeringV09_main_2lflm 00000001801be060 f   c67_six_plus_six_AcmsteeringV09_main_2lflm.obj
 0001:001bd3c0       sf_internal_set_sim_state_c67_six_plus_six_AcmsteeringV09_main_2lflm 00000001801be3c0 f   c67_six_plus_six_AcmsteeringV09_main_2lflm.obj
 0001:001bd7b0       c67_six_plus_six_AcmsteeringV09_main_2lflm_method_dispatcher 00000001801be7b0 f   c67_six_plus_six_AcmsteeringV09_main_2lflm.obj
 0001:001bf520       sf_c68_six_plus_six_AcmsteeringV09_main_2lflm_get_eml_resolved_functions_info 00000001801c0520 f   c68_six_plus_six_AcmsteeringV09_main_2lflm.obj
 0001:001bf5a0       sf_c68_six_plus_six_AcmsteeringV09_main_2lflm_get_check_sum 00000001801c05a0 f   c68_six_plus_six_AcmsteeringV09_main_2lflm.obj
 0001:001bf620       sf_c68_six_plus_six_AcmsteeringV09_main_2lflm_get_autoinheritance_info 00000001801c0620 f   c68_six_plus_six_AcmsteeringV09_main_2lflm.obj
 0001:001c0ac0       sf_c68_six_plus_six_AcmsteeringV09_main_2lflm_third_party_uses_info 00000001801c1ac0 f   c68_six_plus_six_AcmsteeringV09_main_2lflm.obj
 0001:001c0af0       sf_c68_six_plus_six_AcmsteeringV09_main_2lflm_updateBuildInfo_args_info 00000001801c1af0 f   c68_six_plus_six_AcmsteeringV09_main_2lflm.obj
 0001:001c0b20       sf_internal_get_sim_state_c68_six_plus_six_AcmsteeringV09_main_2lflm 00000001801c1b20 f   c68_six_plus_six_AcmsteeringV09_main_2lflm.obj
 0001:001c0e80       sf_internal_set_sim_state_c68_six_plus_six_AcmsteeringV09_main_2lflm 00000001801c1e80 f   c68_six_plus_six_AcmsteeringV09_main_2lflm.obj
 0001:001c1250       c68_six_plus_six_AcmsteeringV09_main_2lflm_method_dispatcher 00000001801c2250 f   c68_six_plus_six_AcmsteeringV09_main_2lflm.obj
 0001:001c7c90       sf_c69_six_plus_six_AcmsteeringV09_main_2lflm_get_eml_resolved_functions_info 00000001801c8c90 f   c69_six_plus_six_AcmsteeringV09_main_2lflm.obj
 0001:001c7d10       sf_c69_six_plus_six_AcmsteeringV09_main_2lflm_get_check_sum 00000001801c8d10 f   c69_six_plus_six_AcmsteeringV09_main_2lflm.obj
 0001:001c7d90       sf_c69_six_plus_six_AcmsteeringV09_main_2lflm_get_autoinheritance_info 00000001801c8d90 f   c69_six_plus_six_AcmsteeringV09_main_2lflm.obj
 0001:001c8580       sf_c69_six_plus_six_AcmsteeringV09_main_2lflm_third_party_uses_info 00000001801c9580 f   c69_six_plus_six_AcmsteeringV09_main_2lflm.obj
 0001:001c85b0       sf_c69_six_plus_six_AcmsteeringV09_main_2lflm_updateBuildInfo_args_info 00000001801c95b0 f   c69_six_plus_six_AcmsteeringV09_main_2lflm.obj
 0001:001c85e0       sf_internal_get_sim_state_c69_six_plus_six_AcmsteeringV09_main_2lflm 00000001801c95e0 f   c69_six_plus_six_AcmsteeringV09_main_2lflm.obj
 0001:001c8940       sf_internal_set_sim_state_c69_six_plus_six_AcmsteeringV09_main_2lflm 00000001801c9940 f   c69_six_plus_six_AcmsteeringV09_main_2lflm.obj
 0001:001c8d30       c69_six_plus_six_AcmsteeringV09_main_2lflm_method_dispatcher 00000001801c9d30 f   c69_six_plus_six_AcmsteeringV09_main_2lflm.obj
 0001:001cb400       sf_c70_six_plus_six_AcmsteeringV09_main_2lflm_get_eml_resolved_functions_info 00000001801cc400 f   c70_six_plus_six_AcmsteeringV09_main_2lflm.obj
 0001:001cb480       sf_c70_six_plus_six_AcmsteeringV09_main_2lflm_get_check_sum 00000001801cc480 f   c70_six_plus_six_AcmsteeringV09_main_2lflm.obj
 0001:001cb500       sf_c70_six_plus_six_AcmsteeringV09_main_2lflm_get_autoinheritance_info 00000001801cc500 f   c70_six_plus_six_AcmsteeringV09_main_2lflm.obj
 0001:001cbcf0       sf_c70_six_plus_six_AcmsteeringV09_main_2lflm_third_party_uses_info 00000001801cccf0 f   c70_six_plus_six_AcmsteeringV09_main_2lflm.obj
 0001:001cbd20       sf_c70_six_plus_six_AcmsteeringV09_main_2lflm_updateBuildInfo_args_info 00000001801ccd20 f   c70_six_plus_six_AcmsteeringV09_main_2lflm.obj
 0001:001cbd50       sf_internal_get_sim_state_c70_six_plus_six_AcmsteeringV09_main_2lflm 00000001801ccd50 f   c70_six_plus_six_AcmsteeringV09_main_2lflm.obj
 0001:001cc0b0       sf_internal_set_sim_state_c70_six_plus_six_AcmsteeringV09_main_2lflm 00000001801cd0b0 f   c70_six_plus_six_AcmsteeringV09_main_2lflm.obj
 0001:001cc480       c70_six_plus_six_AcmsteeringV09_main_2lflm_method_dispatcher 00000001801cd480 f   c70_six_plus_six_AcmsteeringV09_main_2lflm.obj
 0001:001ceb60       sf_c71_six_plus_six_AcmsteeringV09_main_2lflm_get_eml_resolved_functions_info 00000001801cfb60 f   c71_six_plus_six_AcmsteeringV09_main_2lflm.obj
 0001:001cebe0       sf_c71_six_plus_six_AcmsteeringV09_main_2lflm_get_check_sum 00000001801cfbe0 f   c71_six_plus_six_AcmsteeringV09_main_2lflm.obj
 0001:001cec60       sf_c71_six_plus_six_AcmsteeringV09_main_2lflm_get_autoinheritance_info 00000001801cfc60 f   c71_six_plus_six_AcmsteeringV09_main_2lflm.obj
 0001:001cf450       sf_c71_six_plus_six_AcmsteeringV09_main_2lflm_third_party_uses_info 00000001801d0450 f   c71_six_plus_six_AcmsteeringV09_main_2lflm.obj
 0001:001cf480       sf_c71_six_plus_six_AcmsteeringV09_main_2lflm_updateBuildInfo_args_info 00000001801d0480 f   c71_six_plus_six_AcmsteeringV09_main_2lflm.obj
 0001:001cf4b0       sf_internal_get_sim_state_c71_six_plus_six_AcmsteeringV09_main_2lflm 00000001801d04b0 f   c71_six_plus_six_AcmsteeringV09_main_2lflm.obj
 0001:001cf810       sf_internal_set_sim_state_c71_six_plus_six_AcmsteeringV09_main_2lflm 00000001801d0810 f   c71_six_plus_six_AcmsteeringV09_main_2lflm.obj
 0001:001cfbe0       c71_six_plus_six_AcmsteeringV09_main_2lflm_method_dispatcher 00000001801d0be0 f   c71_six_plus_six_AcmsteeringV09_main_2lflm.obj
 0001:001d22b0       sf_c72_six_plus_six_AcmsteeringV09_main_2lflm_get_eml_resolved_functions_info 00000001801d32b0 f   c72_six_plus_six_AcmsteeringV09_main_2lflm.obj
 0001:001d2330       sf_c72_six_plus_six_AcmsteeringV09_main_2lflm_get_check_sum 00000001801d3330 f   c72_six_plus_six_AcmsteeringV09_main_2lflm.obj
 0001:001d23b0       sf_c72_six_plus_six_AcmsteeringV09_main_2lflm_get_autoinheritance_info 00000001801d33b0 f   c72_six_plus_six_AcmsteeringV09_main_2lflm.obj
 0001:001d2ba0       sf_c72_six_plus_six_AcmsteeringV09_main_2lflm_third_party_uses_info 00000001801d3ba0 f   c72_six_plus_six_AcmsteeringV09_main_2lflm.obj
 0001:001d2bd0       sf_c72_six_plus_six_AcmsteeringV09_main_2lflm_updateBuildInfo_args_info 00000001801d3bd0 f   c72_six_plus_six_AcmsteeringV09_main_2lflm.obj
 0001:001d2c00       sf_internal_get_sim_state_c72_six_plus_six_AcmsteeringV09_main_2lflm 00000001801d3c00 f   c72_six_plus_six_AcmsteeringV09_main_2lflm.obj
 0001:001d2f70       sf_internal_set_sim_state_c72_six_plus_six_AcmsteeringV09_main_2lflm 00000001801d3f70 f   c72_six_plus_six_AcmsteeringV09_main_2lflm.obj
 0001:001d3340       c72_six_plus_six_AcmsteeringV09_main_2lflm_method_dispatcher 00000001801d4340 f   c72_six_plus_six_AcmsteeringV09_main_2lflm.obj
 0001:001d5a10       sf_c73_six_plus_six_AcmsteeringV09_main_2lflm_get_eml_resolved_functions_info 00000001801d6a10 f   c73_six_plus_six_AcmsteeringV09_main_2lflm.obj
 0001:001d5a90       sf_c73_six_plus_six_AcmsteeringV09_main_2lflm_get_check_sum 00000001801d6a90 f   c73_six_plus_six_AcmsteeringV09_main_2lflm.obj
 0001:001d5b10       sf_c73_six_plus_six_AcmsteeringV09_main_2lflm_get_autoinheritance_info 00000001801d6b10 f   c73_six_plus_six_AcmsteeringV09_main_2lflm.obj
 0001:001d6300       sf_c73_six_plus_six_AcmsteeringV09_main_2lflm_third_party_uses_info 00000001801d7300 f   c73_six_plus_six_AcmsteeringV09_main_2lflm.obj
 0001:001d6330       sf_c73_six_plus_six_AcmsteeringV09_main_2lflm_updateBuildInfo_args_info 00000001801d7330 f   c73_six_plus_six_AcmsteeringV09_main_2lflm.obj
 0001:001d6360       sf_internal_get_sim_state_c73_six_plus_six_AcmsteeringV09_main_2lflm 00000001801d7360 f   c73_six_plus_six_AcmsteeringV09_main_2lflm.obj
 0001:001d66c0       sf_internal_set_sim_state_c73_six_plus_six_AcmsteeringV09_main_2lflm 00000001801d76c0 f   c73_six_plus_six_AcmsteeringV09_main_2lflm.obj
 0001:001d6a90       c73_six_plus_six_AcmsteeringV09_main_2lflm_method_dispatcher 00000001801d7a90 f   c73_six_plus_six_AcmsteeringV09_main_2lflm.obj
 0001:001d9160       sf_c74_six_plus_six_AcmsteeringV09_main_2lflm_get_eml_resolved_functions_info 00000001801da160 f   c74_six_plus_six_AcmsteeringV09_main_2lflm.obj
 0001:001d91e0       sf_c74_six_plus_six_AcmsteeringV09_main_2lflm_get_check_sum 00000001801da1e0 f   c74_six_plus_six_AcmsteeringV09_main_2lflm.obj
 0001:001d9260       sf_c74_six_plus_six_AcmsteeringV09_main_2lflm_get_autoinheritance_info 00000001801da260 f   c74_six_plus_six_AcmsteeringV09_main_2lflm.obj
 0001:001d9a50       sf_c74_six_plus_six_AcmsteeringV09_main_2lflm_third_party_uses_info 00000001801daa50 f   c74_six_plus_six_AcmsteeringV09_main_2lflm.obj
 0001:001d9a80       sf_c74_six_plus_six_AcmsteeringV09_main_2lflm_updateBuildInfo_args_info 00000001801daa80 f   c74_six_plus_six_AcmsteeringV09_main_2lflm.obj
 0001:001d9ab0       sf_internal_get_sim_state_c74_six_plus_six_AcmsteeringV09_main_2lflm 00000001801daab0 f   c74_six_plus_six_AcmsteeringV09_main_2lflm.obj
 0001:001d9e10       sf_internal_set_sim_state_c74_six_plus_six_AcmsteeringV09_main_2lflm 00000001801dae10 f   c74_six_plus_six_AcmsteeringV09_main_2lflm.obj
 0001:001da1e0       c74_six_plus_six_AcmsteeringV09_main_2lflm_method_dispatcher 00000001801db1e0 f   c74_six_plus_six_AcmsteeringV09_main_2lflm.obj
 0001:001dc8b0       sf_c75_six_plus_six_AcmsteeringV09_main_2lflm_get_eml_resolved_functions_info 00000001801dd8b0 f   c75_six_plus_six_AcmsteeringV09_main_2lflm.obj
 0001:001dc930       sf_c75_six_plus_six_AcmsteeringV09_main_2lflm_get_check_sum 00000001801dd930 f   c75_six_plus_six_AcmsteeringV09_main_2lflm.obj
 0001:001dc9b0       sf_c75_six_plus_six_AcmsteeringV09_main_2lflm_get_autoinheritance_info 00000001801dd9b0 f   c75_six_plus_six_AcmsteeringV09_main_2lflm.obj
 0001:001dd1a0       sf_c75_six_plus_six_AcmsteeringV09_main_2lflm_third_party_uses_info 00000001801de1a0 f   c75_six_plus_six_AcmsteeringV09_main_2lflm.obj
 0001:001dd1d0       sf_c75_six_plus_six_AcmsteeringV09_main_2lflm_updateBuildInfo_args_info 00000001801de1d0 f   c75_six_plus_six_AcmsteeringV09_main_2lflm.obj
 0001:001dd200       sf_internal_get_sim_state_c75_six_plus_six_AcmsteeringV09_main_2lflm 00000001801de200 f   c75_six_plus_six_AcmsteeringV09_main_2lflm.obj
 0001:001dd560       sf_internal_set_sim_state_c75_six_plus_six_AcmsteeringV09_main_2lflm 00000001801de560 f   c75_six_plus_six_AcmsteeringV09_main_2lflm.obj
 0001:001dd930       c75_six_plus_six_AcmsteeringV09_main_2lflm_method_dispatcher 00000001801de930 f   c75_six_plus_six_AcmsteeringV09_main_2lflm.obj
 0001:001e0000       sf_c76_six_plus_six_AcmsteeringV09_main_2lflm_get_eml_resolved_functions_info 00000001801e1000 f   c76_six_plus_six_AcmsteeringV09_main_2lflm.obj
 0001:001e14b0       sf_c76_six_plus_six_AcmsteeringV09_main_2lflm_get_check_sum 00000001801e24b0 f   c76_six_plus_six_AcmsteeringV09_main_2lflm.obj
 0001:001e1530       sf_c76_six_plus_six_AcmsteeringV09_main_2lflm_get_autoinheritance_info 00000001801e2530 f   c76_six_plus_six_AcmsteeringV09_main_2lflm.obj
 0001:001e3d10       sf_c76_six_plus_six_AcmsteeringV09_main_2lflm_third_party_uses_info 00000001801e4d10 f   c76_six_plus_six_AcmsteeringV09_main_2lflm.obj
 0001:001e3d40       sf_c76_six_plus_six_AcmsteeringV09_main_2lflm_updateBuildInfo_args_info 00000001801e4d40 f   c76_six_plus_six_AcmsteeringV09_main_2lflm.obj
 0001:001e3d70       sf_internal_get_sim_state_c76_six_plus_six_AcmsteeringV09_main_2lflm 00000001801e4d70 f   c76_six_plus_six_AcmsteeringV09_main_2lflm.obj
 0001:001e4700       sf_internal_set_sim_state_c76_six_plus_six_AcmsteeringV09_main_2lflm 00000001801e5700 f   c76_six_plus_six_AcmsteeringV09_main_2lflm.obj
 0001:001e4e90       c76_six_plus_six_AcmsteeringV09_main_2lflm_method_dispatcher 00000001801e5e90 f   c76_six_plus_six_AcmsteeringV09_main_2lflm.obj
 0001:0021f6f0       sf_c77_six_plus_six_AcmsteeringV09_main_2lflm_get_eml_resolved_functions_info 00000001802206f0 f   c77_six_plus_six_AcmsteeringV09_main_2lflm.obj
 0001:0021f770       sf_c77_six_plus_six_AcmsteeringV09_main_2lflm_get_check_sum 0000000180220770 f   c77_six_plus_six_AcmsteeringV09_main_2lflm.obj
 0001:0021f7f0       sf_c77_six_plus_six_AcmsteeringV09_main_2lflm_get_autoinheritance_info 00000001802207f0 f   c77_six_plus_six_AcmsteeringV09_main_2lflm.obj
 0001:0021ffe0       sf_c77_six_plus_six_AcmsteeringV09_main_2lflm_third_party_uses_info 0000000180220fe0 f   c77_six_plus_six_AcmsteeringV09_main_2lflm.obj
 0001:00220010       sf_c77_six_plus_six_AcmsteeringV09_main_2lflm_updateBuildInfo_args_info 0000000180221010 f   c77_six_plus_six_AcmsteeringV09_main_2lflm.obj
 0001:00220040       sf_internal_get_sim_state_c77_six_plus_six_AcmsteeringV09_main_2lflm 0000000180221040 f   c77_six_plus_six_AcmsteeringV09_main_2lflm.obj
 0001:002203a0       sf_internal_set_sim_state_c77_six_plus_six_AcmsteeringV09_main_2lflm 00000001802213a0 f   c77_six_plus_six_AcmsteeringV09_main_2lflm.obj
 0001:00220770       c77_six_plus_six_AcmsteeringV09_main_2lflm_method_dispatcher 0000000180221770 f   c77_six_plus_six_AcmsteeringV09_main_2lflm.obj
 0001:00222e40       sf_c78_six_plus_six_AcmsteeringV09_main_2lflm_get_eml_resolved_functions_info 0000000180223e40 f   c78_six_plus_six_AcmsteeringV09_main_2lflm.obj
 0001:00222ec0       sf_c78_six_plus_six_AcmsteeringV09_main_2lflm_get_check_sum 0000000180223ec0 f   c78_six_plus_six_AcmsteeringV09_main_2lflm.obj
 0001:00222f40       sf_c78_six_plus_six_AcmsteeringV09_main_2lflm_get_autoinheritance_info 0000000180223f40 f   c78_six_plus_six_AcmsteeringV09_main_2lflm.obj
 0001:00223730       sf_c78_six_plus_six_AcmsteeringV09_main_2lflm_third_party_uses_info 0000000180224730 f   c78_six_plus_six_AcmsteeringV09_main_2lflm.obj
 0001:00223760       sf_c78_six_plus_six_AcmsteeringV09_main_2lflm_updateBuildInfo_args_info 0000000180224760 f   c78_six_plus_six_AcmsteeringV09_main_2lflm.obj
 0001:00223790       sf_internal_get_sim_state_c78_six_plus_six_AcmsteeringV09_main_2lflm 0000000180224790 f   c78_six_plus_six_AcmsteeringV09_main_2lflm.obj
 0001:00223af0       sf_internal_set_sim_state_c78_six_plus_six_AcmsteeringV09_main_2lflm 0000000180224af0 f   c78_six_plus_six_AcmsteeringV09_main_2lflm.obj
 0001:00223ec0       c78_six_plus_six_AcmsteeringV09_main_2lflm_method_dispatcher 0000000180224ec0 f   c78_six_plus_six_AcmsteeringV09_main_2lflm.obj
 0001:00226590       sf_c79_six_plus_six_AcmsteeringV09_main_2lflm_get_eml_resolved_functions_info 0000000180227590 f   c79_six_plus_six_AcmsteeringV09_main_2lflm.obj
 0001:00226610       sf_c79_six_plus_six_AcmsteeringV09_main_2lflm_get_check_sum 0000000180227610 f   c79_six_plus_six_AcmsteeringV09_main_2lflm.obj
 0001:00226690       sf_c79_six_plus_six_AcmsteeringV09_main_2lflm_get_autoinheritance_info 0000000180227690 f   c79_six_plus_six_AcmsteeringV09_main_2lflm.obj
 0001:00226e80       sf_c79_six_plus_six_AcmsteeringV09_main_2lflm_third_party_uses_info 0000000180227e80 f   c79_six_plus_six_AcmsteeringV09_main_2lflm.obj
 0001:00226eb0       sf_c79_six_plus_six_AcmsteeringV09_main_2lflm_updateBuildInfo_args_info 0000000180227eb0 f   c79_six_plus_six_AcmsteeringV09_main_2lflm.obj
 0001:00226ee0       sf_internal_get_sim_state_c79_six_plus_six_AcmsteeringV09_main_2lflm 0000000180227ee0 f   c79_six_plus_six_AcmsteeringV09_main_2lflm.obj
 0001:00227240       sf_internal_set_sim_state_c79_six_plus_six_AcmsteeringV09_main_2lflm 0000000180228240 f   c79_six_plus_six_AcmsteeringV09_main_2lflm.obj
 0001:00227610       c79_six_plus_six_AcmsteeringV09_main_2lflm_method_dispatcher 0000000180228610 f   c79_six_plus_six_AcmsteeringV09_main_2lflm.obj
 0001:00229ce0       sf_c80_six_plus_six_AcmsteeringV09_main_2lflm_get_eml_resolved_functions_info 000000018022ace0 f   c80_six_plus_six_AcmsteeringV09_main_2lflm.obj
 0001:00229d60       sf_c80_six_plus_six_AcmsteeringV09_main_2lflm_get_check_sum 000000018022ad60 f   c80_six_plus_six_AcmsteeringV09_main_2lflm.obj
 0001:00229de0       sf_c80_six_plus_six_AcmsteeringV09_main_2lflm_get_autoinheritance_info 000000018022ade0 f   c80_six_plus_six_AcmsteeringV09_main_2lflm.obj
 0001:0022a5d0       sf_c80_six_plus_six_AcmsteeringV09_main_2lflm_third_party_uses_info 000000018022b5d0 f   c80_six_plus_six_AcmsteeringV09_main_2lflm.obj
 0001:0022a600       sf_c80_six_plus_six_AcmsteeringV09_main_2lflm_updateBuildInfo_args_info 000000018022b600 f   c80_six_plus_six_AcmsteeringV09_main_2lflm.obj
 0001:0022a630       sf_internal_get_sim_state_c80_six_plus_six_AcmsteeringV09_main_2lflm 000000018022b630 f   c80_six_plus_six_AcmsteeringV09_main_2lflm.obj
 0001:0022a990       sf_internal_set_sim_state_c80_six_plus_six_AcmsteeringV09_main_2lflm 000000018022b990 f   c80_six_plus_six_AcmsteeringV09_main_2lflm.obj
 0001:0022ad60       c80_six_plus_six_AcmsteeringV09_main_2lflm_method_dispatcher 000000018022bd60 f   c80_six_plus_six_AcmsteeringV09_main_2lflm.obj
 0001:0022d430       sf_c81_six_plus_six_AcmsteeringV09_main_2lflm_get_eml_resolved_functions_info 000000018022e430 f   c81_six_plus_six_AcmsteeringV09_main_2lflm.obj
 0001:0022d4b0       sf_c81_six_plus_six_AcmsteeringV09_main_2lflm_get_check_sum 000000018022e4b0 f   c81_six_plus_six_AcmsteeringV09_main_2lflm.obj
 0001:0022d530       sf_c81_six_plus_six_AcmsteeringV09_main_2lflm_get_autoinheritance_info 000000018022e530 f   c81_six_plus_six_AcmsteeringV09_main_2lflm.obj
 0001:0022dd20       sf_c81_six_plus_six_AcmsteeringV09_main_2lflm_third_party_uses_info 000000018022ed20 f   c81_six_plus_six_AcmsteeringV09_main_2lflm.obj
 0001:0022dd50       sf_c81_six_plus_six_AcmsteeringV09_main_2lflm_updateBuildInfo_args_info 000000018022ed50 f   c81_six_plus_six_AcmsteeringV09_main_2lflm.obj
 0001:0022dd80       sf_internal_get_sim_state_c81_six_plus_six_AcmsteeringV09_main_2lflm 000000018022ed80 f   c81_six_plus_six_AcmsteeringV09_main_2lflm.obj
 0001:0022e0d0       sf_internal_set_sim_state_c81_six_plus_six_AcmsteeringV09_main_2lflm 000000018022f0d0 f   c81_six_plus_six_AcmsteeringV09_main_2lflm.obj
 0001:0022e4a0       c81_six_plus_six_AcmsteeringV09_main_2lflm_method_dispatcher 000000018022f4a0 f   c81_six_plus_six_AcmsteeringV09_main_2lflm.obj
 0001:00230b70       sf_c82_six_plus_six_AcmsteeringV09_main_2lflm_get_eml_resolved_functions_info 0000000180231b70 f   c82_six_plus_six_AcmsteeringV09_main_2lflm.obj
 0001:00230bf0       sf_c82_six_plus_six_AcmsteeringV09_main_2lflm_get_check_sum 0000000180231bf0 f   c82_six_plus_six_AcmsteeringV09_main_2lflm.obj
 0001:00230c70       sf_c82_six_plus_six_AcmsteeringV09_main_2lflm_get_autoinheritance_info 0000000180231c70 f   c82_six_plus_six_AcmsteeringV09_main_2lflm.obj
 0001:00231eb0       sf_c82_six_plus_six_AcmsteeringV09_main_2lflm_third_party_uses_info 0000000180232eb0 f   c82_six_plus_six_AcmsteeringV09_main_2lflm.obj
 0001:00231ee0       sf_c82_six_plus_six_AcmsteeringV09_main_2lflm_updateBuildInfo_args_info 0000000180232ee0 f   c82_six_plus_six_AcmsteeringV09_main_2lflm.obj
 0001:00231f10       sf_internal_get_sim_state_c82_six_plus_six_AcmsteeringV09_main_2lflm 0000000180232f10 f   c82_six_plus_six_AcmsteeringV09_main_2lflm.obj
 0001:00232650       sf_internal_set_sim_state_c82_six_plus_six_AcmsteeringV09_main_2lflm 0000000180233650 f   c82_six_plus_six_AcmsteeringV09_main_2lflm.obj
 0001:00232bc0       c82_six_plus_six_AcmsteeringV09_main_2lflm_method_dispatcher 0000000180233bc0 f   c82_six_plus_six_AcmsteeringV09_main_2lflm.obj
 0001:00236680       sf_c83_six_plus_six_AcmsteeringV09_main_2lflm_get_eml_resolved_functions_info 0000000180237680 f   c83_six_plus_six_AcmsteeringV09_main_2lflm.obj
 0001:00236700       sf_c83_six_plus_six_AcmsteeringV09_main_2lflm_get_check_sum 0000000180237700 f   c83_six_plus_six_AcmsteeringV09_main_2lflm.obj
 0001:00236780       sf_c83_six_plus_six_AcmsteeringV09_main_2lflm_get_autoinheritance_info 0000000180237780 f   c83_six_plus_six_AcmsteeringV09_main_2lflm.obj
 0001:00236f70       sf_c83_six_plus_six_AcmsteeringV09_main_2lflm_third_party_uses_info 0000000180237f70 f   c83_six_plus_six_AcmsteeringV09_main_2lflm.obj
 0001:00236fa0       sf_c83_six_plus_six_AcmsteeringV09_main_2lflm_updateBuildInfo_args_info 0000000180237fa0 f   c83_six_plus_six_AcmsteeringV09_main_2lflm.obj
 0001:00236fd0       sf_internal_get_sim_state_c83_six_plus_six_AcmsteeringV09_main_2lflm 0000000180237fd0 f   c83_six_plus_six_AcmsteeringV09_main_2lflm.obj
 0001:00237330       sf_internal_set_sim_state_c83_six_plus_six_AcmsteeringV09_main_2lflm 0000000180238330 f   c83_six_plus_six_AcmsteeringV09_main_2lflm.obj
 0001:00237700       c83_six_plus_six_AcmsteeringV09_main_2lflm_method_dispatcher 0000000180238700 f   c83_six_plus_six_AcmsteeringV09_main_2lflm.obj
 0001:00239dd0       sf_c84_six_plus_six_AcmsteeringV09_main_2lflm_get_eml_resolved_functions_info 000000018023add0 f   c84_six_plus_six_AcmsteeringV09_main_2lflm.obj
 0001:0023b280       sf_c84_six_plus_six_AcmsteeringV09_main_2lflm_get_check_sum 000000018023c280 f   c84_six_plus_six_AcmsteeringV09_main_2lflm.obj
 0001:0023b300       sf_c84_six_plus_six_AcmsteeringV09_main_2lflm_get_autoinheritance_info 000000018023c300 f   c84_six_plus_six_AcmsteeringV09_main_2lflm.obj
 0001:0023dae0       sf_c84_six_plus_six_AcmsteeringV09_main_2lflm_third_party_uses_info 000000018023eae0 f   c84_six_plus_six_AcmsteeringV09_main_2lflm.obj
 0001:0023db10       sf_c84_six_plus_six_AcmsteeringV09_main_2lflm_updateBuildInfo_args_info 000000018023eb10 f   c84_six_plus_six_AcmsteeringV09_main_2lflm.obj
 0001:0023db40       sf_internal_get_sim_state_c84_six_plus_six_AcmsteeringV09_main_2lflm 000000018023eb40 f   c84_six_plus_six_AcmsteeringV09_main_2lflm.obj
 0001:0023e4d0       sf_internal_set_sim_state_c84_six_plus_six_AcmsteeringV09_main_2lflm 000000018023f4d0 f   c84_six_plus_six_AcmsteeringV09_main_2lflm.obj
 0001:0023ec60       c84_six_plus_six_AcmsteeringV09_main_2lflm_method_dispatcher 000000018023fc60 f   c84_six_plus_six_AcmsteeringV09_main_2lflm.obj
 0001:002794c0       sf_c85_six_plus_six_AcmsteeringV09_main_2lflm_get_eml_resolved_functions_info 000000018027a4c0 f   c85_six_plus_six_AcmsteeringV09_main_2lflm.obj
 0001:0027e920       sf_c85_six_plus_six_AcmsteeringV09_main_2lflm_get_check_sum 000000018027f920 f   c85_six_plus_six_AcmsteeringV09_main_2lflm.obj
 0001:0027e9a0       sf_c85_six_plus_six_AcmsteeringV09_main_2lflm_get_autoinheritance_info 000000018027f9a0 f   c85_six_plus_six_AcmsteeringV09_main_2lflm.obj
 0001:0027f590       sf_c85_six_plus_six_AcmsteeringV09_main_2lflm_third_party_uses_info 0000000180280590 f   c85_six_plus_six_AcmsteeringV09_main_2lflm.obj
 0001:0027f5c0       sf_c85_six_plus_six_AcmsteeringV09_main_2lflm_updateBuildInfo_args_info 00000001802805c0 f   c85_six_plus_six_AcmsteeringV09_main_2lflm.obj
 0001:0027f5f0       sf_internal_get_sim_state_c85_six_plus_six_AcmsteeringV09_main_2lflm 00000001802805f0 f   c85_six_plus_six_AcmsteeringV09_main_2lflm.obj
 0001:0027fd30       sf_internal_set_sim_state_c85_six_plus_six_AcmsteeringV09_main_2lflm 0000000180280d30 f   c85_six_plus_six_AcmsteeringV09_main_2lflm.obj
 0001:002802a0       c85_six_plus_six_AcmsteeringV09_main_2lflm_method_dispatcher 00000001802812a0 f   c85_six_plus_six_AcmsteeringV09_main_2lflm.obj
 0001:00283e90       sf_c86_six_plus_six_AcmsteeringV09_main_2lflm_get_eml_resolved_functions_info 0000000180284e90 f   c86_six_plus_six_AcmsteeringV09_main_2lflm.obj
 0001:002892f0       sf_c86_six_plus_six_AcmsteeringV09_main_2lflm_get_check_sum 000000018028a2f0 f   c86_six_plus_six_AcmsteeringV09_main_2lflm.obj
 0001:00289370       sf_c86_six_plus_six_AcmsteeringV09_main_2lflm_get_autoinheritance_info 000000018028a370 f   c86_six_plus_six_AcmsteeringV09_main_2lflm.obj
 0001:00289f60       sf_c86_six_plus_six_AcmsteeringV09_main_2lflm_third_party_uses_info 000000018028af60 f   c86_six_plus_six_AcmsteeringV09_main_2lflm.obj
 0001:00289f90       sf_c86_six_plus_six_AcmsteeringV09_main_2lflm_updateBuildInfo_args_info 000000018028af90 f   c86_six_plus_six_AcmsteeringV09_main_2lflm.obj
 0001:00289fc0       sf_internal_get_sim_state_c86_six_plus_six_AcmsteeringV09_main_2lflm 000000018028afc0 f   c86_six_plus_six_AcmsteeringV09_main_2lflm.obj
 0001:0028a700       sf_internal_set_sim_state_c86_six_plus_six_AcmsteeringV09_main_2lflm 000000018028b700 f   c86_six_plus_six_AcmsteeringV09_main_2lflm.obj
 0001:0028ac70       c86_six_plus_six_AcmsteeringV09_main_2lflm_method_dispatcher 000000018028bc70 f   c86_six_plus_six_AcmsteeringV09_main_2lflm.obj
 0001:0028e840       sf_c87_six_plus_six_AcmsteeringV09_main_2lflm_get_eml_resolved_functions_info 000000018028f840 f   c87_six_plus_six_AcmsteeringV09_main_2lflm.obj
 0001:00293ca0       sf_c87_six_plus_six_AcmsteeringV09_main_2lflm_get_check_sum 0000000180294ca0 f   c87_six_plus_six_AcmsteeringV09_main_2lflm.obj
 0001:00293d20       sf_c87_six_plus_six_AcmsteeringV09_main_2lflm_get_autoinheritance_info 0000000180294d20 f   c87_six_plus_six_AcmsteeringV09_main_2lflm.obj
 0001:00294910       sf_c87_six_plus_six_AcmsteeringV09_main_2lflm_third_party_uses_info 0000000180295910 f   c87_six_plus_six_AcmsteeringV09_main_2lflm.obj
 0001:00294940       sf_c87_six_plus_six_AcmsteeringV09_main_2lflm_updateBuildInfo_args_info 0000000180295940 f   c87_six_plus_six_AcmsteeringV09_main_2lflm.obj
 0001:00294970       sf_internal_get_sim_state_c87_six_plus_six_AcmsteeringV09_main_2lflm 0000000180295970 f   c87_six_plus_six_AcmsteeringV09_main_2lflm.obj
 0001:002950a0       sf_internal_set_sim_state_c87_six_plus_six_AcmsteeringV09_main_2lflm 00000001802960a0 f   c87_six_plus_six_AcmsteeringV09_main_2lflm.obj
 0001:00295610       c87_six_plus_six_AcmsteeringV09_main_2lflm_method_dispatcher 0000000180296610 f   c87_six_plus_six_AcmsteeringV09_main_2lflm.obj
 0001:002991e0       sf_c88_six_plus_six_AcmsteeringV09_main_2lflm_get_eml_resolved_functions_info 000000018029a1e0 f   c88_six_plus_six_AcmsteeringV09_main_2lflm.obj
 0001:002a2ad0       sf_c88_six_plus_six_AcmsteeringV09_main_2lflm_get_check_sum 00000001802a3ad0 f   c88_six_plus_six_AcmsteeringV09_main_2lflm.obj
 0001:002a2b50       sf_c88_six_plus_six_AcmsteeringV09_main_2lflm_get_autoinheritance_info 00000001802a3b50 f   c88_six_plus_six_AcmsteeringV09_main_2lflm.obj
 0001:002a3340       sf_c88_six_plus_six_AcmsteeringV09_main_2lflm_third_party_uses_info 00000001802a4340 f   c88_six_plus_six_AcmsteeringV09_main_2lflm.obj
 0001:002a3370       sf_c88_six_plus_six_AcmsteeringV09_main_2lflm_updateBuildInfo_args_info 00000001802a4370 f   c88_six_plus_six_AcmsteeringV09_main_2lflm.obj
 0001:002a33a0       sf_internal_get_sim_state_c88_six_plus_six_AcmsteeringV09_main_2lflm 00000001802a43a0 f   c88_six_plus_six_AcmsteeringV09_main_2lflm.obj
 0001:002a3700       sf_internal_set_sim_state_c88_six_plus_six_AcmsteeringV09_main_2lflm 00000001802a4700 f   c88_six_plus_six_AcmsteeringV09_main_2lflm.obj
 0001:002a3af0       c88_six_plus_six_AcmsteeringV09_main_2lflm_method_dispatcher 00000001802a4af0 f   c88_six_plus_six_AcmsteeringV09_main_2lflm.obj
 0001:002a5ff0       sf_c89_six_plus_six_AcmsteeringV09_main_2lflm_get_eml_resolved_functions_info 00000001802a6ff0 f   c89_six_plus_six_AcmsteeringV09_main_2lflm.obj
 0001:002ab450       sf_c89_six_plus_six_AcmsteeringV09_main_2lflm_get_check_sum 00000001802ac450 f   c89_six_plus_six_AcmsteeringV09_main_2lflm.obj
 0001:002ab4d0       sf_c89_six_plus_six_AcmsteeringV09_main_2lflm_get_autoinheritance_info 00000001802ac4d0 f   c89_six_plus_six_AcmsteeringV09_main_2lflm.obj
 0001:002ac0c0       sf_c89_six_plus_six_AcmsteeringV09_main_2lflm_third_party_uses_info 00000001802ad0c0 f   c89_six_plus_six_AcmsteeringV09_main_2lflm.obj
 0001:002ac0f0       sf_c89_six_plus_six_AcmsteeringV09_main_2lflm_updateBuildInfo_args_info 00000001802ad0f0 f   c89_six_plus_six_AcmsteeringV09_main_2lflm.obj
 0001:002ac120       sf_internal_get_sim_state_c89_six_plus_six_AcmsteeringV09_main_2lflm 00000001802ad120 f   c89_six_plus_six_AcmsteeringV09_main_2lflm.obj
 0001:002ac860       sf_internal_set_sim_state_c89_six_plus_six_AcmsteeringV09_main_2lflm 00000001802ad860 f   c89_six_plus_six_AcmsteeringV09_main_2lflm.obj
 0001:002acdd0       c89_six_plus_six_AcmsteeringV09_main_2lflm_method_dispatcher 00000001802addd0 f   c89_six_plus_six_AcmsteeringV09_main_2lflm.obj
 0001:002b09c0       sf_c90_six_plus_six_AcmsteeringV09_main_2lflm_get_eml_resolved_functions_info 00000001802b19c0 f   c90_six_plus_six_AcmsteeringV09_main_2lflm.obj
 0001:002ba2b0       sf_c90_six_plus_six_AcmsteeringV09_main_2lflm_get_check_sum 00000001802bb2b0 f   c90_six_plus_six_AcmsteeringV09_main_2lflm.obj
 0001:002ba330       sf_c90_six_plus_six_AcmsteeringV09_main_2lflm_get_autoinheritance_info 00000001802bb330 f   c90_six_plus_six_AcmsteeringV09_main_2lflm.obj
 0001:002bab20       sf_c90_six_plus_six_AcmsteeringV09_main_2lflm_third_party_uses_info 00000001802bbb20 f   c90_six_plus_six_AcmsteeringV09_main_2lflm.obj
 0001:002bab50       sf_c90_six_plus_six_AcmsteeringV09_main_2lflm_updateBuildInfo_args_info 00000001802bbb50 f   c90_six_plus_six_AcmsteeringV09_main_2lflm.obj
 0001:002bab80       sf_internal_get_sim_state_c90_six_plus_six_AcmsteeringV09_main_2lflm 00000001802bbb80 f   c90_six_plus_six_AcmsteeringV09_main_2lflm.obj
 0001:002baee0       sf_internal_set_sim_state_c90_six_plus_six_AcmsteeringV09_main_2lflm 00000001802bbee0 f   c90_six_plus_six_AcmsteeringV09_main_2lflm.obj
 0001:002bb2d0       c90_six_plus_six_AcmsteeringV09_main_2lflm_method_dispatcher 00000001802bc2d0 f   c90_six_plus_six_AcmsteeringV09_main_2lflm.obj
 0001:002bd7d0       sf_c91_six_plus_six_AcmsteeringV09_main_2lflm_get_eml_resolved_functions_info 00000001802be7d0 f   c91_six_plus_six_AcmsteeringV09_main_2lflm.obj
 0001:002c70c0       sf_c91_six_plus_six_AcmsteeringV09_main_2lflm_get_check_sum 00000001802c80c0 f   c91_six_plus_six_AcmsteeringV09_main_2lflm.obj
 0001:002c7140       sf_c91_six_plus_six_AcmsteeringV09_main_2lflm_get_autoinheritance_info 00000001802c8140 f   c91_six_plus_six_AcmsteeringV09_main_2lflm.obj
 0001:002c7930       sf_c91_six_plus_six_AcmsteeringV09_main_2lflm_third_party_uses_info 00000001802c8930 f   c91_six_plus_six_AcmsteeringV09_main_2lflm.obj
 0001:002c7960       sf_c91_six_plus_six_AcmsteeringV09_main_2lflm_updateBuildInfo_args_info 00000001802c8960 f   c91_six_plus_six_AcmsteeringV09_main_2lflm.obj
 0001:002c7990       sf_internal_get_sim_state_c91_six_plus_six_AcmsteeringV09_main_2lflm 00000001802c8990 f   c91_six_plus_six_AcmsteeringV09_main_2lflm.obj
 0001:002c7cf0       sf_internal_set_sim_state_c91_six_plus_six_AcmsteeringV09_main_2lflm 00000001802c8cf0 f   c91_six_plus_six_AcmsteeringV09_main_2lflm.obj
 0001:002c80e0       c91_six_plus_six_AcmsteeringV09_main_2lflm_method_dispatcher 00000001802c90e0 f   c91_six_plus_six_AcmsteeringV09_main_2lflm.obj
 0001:002ca5f0       sf_c92_six_plus_six_AcmsteeringV09_main_2lflm_get_eml_resolved_functions_info 00000001802cb5f0 f   c92_six_plus_six_AcmsteeringV09_main_2lflm.obj
 0001:002d3ee0       sf_c92_six_plus_six_AcmsteeringV09_main_2lflm_get_check_sum 00000001802d4ee0 f   c92_six_plus_six_AcmsteeringV09_main_2lflm.obj
 0001:002d3f60       sf_c92_six_plus_six_AcmsteeringV09_main_2lflm_get_autoinheritance_info 00000001802d4f60 f   c92_six_plus_six_AcmsteeringV09_main_2lflm.obj
 0001:002d4750       sf_c92_six_plus_six_AcmsteeringV09_main_2lflm_third_party_uses_info 00000001802d5750 f   c92_six_plus_six_AcmsteeringV09_main_2lflm.obj
 0001:002d4780       sf_c92_six_plus_six_AcmsteeringV09_main_2lflm_updateBuildInfo_args_info 00000001802d5780 f   c92_six_plus_six_AcmsteeringV09_main_2lflm.obj
 0001:002d47b0       sf_internal_get_sim_state_c92_six_plus_six_AcmsteeringV09_main_2lflm 00000001802d57b0 f   c92_six_plus_six_AcmsteeringV09_main_2lflm.obj
 0001:002d4b10       sf_internal_set_sim_state_c92_six_plus_six_AcmsteeringV09_main_2lflm 00000001802d5b10 f   c92_six_plus_six_AcmsteeringV09_main_2lflm.obj
 0001:002d4f00       c92_six_plus_six_AcmsteeringV09_main_2lflm_method_dispatcher 00000001802d5f00 f   c92_six_plus_six_AcmsteeringV09_main_2lflm.obj
 0001:002d7400       sf_c93_six_plus_six_AcmsteeringV09_main_2lflm_get_eml_resolved_functions_info 00000001802d8400 f   c93_six_plus_six_AcmsteeringV09_main_2lflm.obj
 0001:002e0cf0       sf_c93_six_plus_six_AcmsteeringV09_main_2lflm_get_check_sum 00000001802e1cf0 f   c93_six_plus_six_AcmsteeringV09_main_2lflm.obj
 0001:002e0d70       sf_c93_six_plus_six_AcmsteeringV09_main_2lflm_get_autoinheritance_info 00000001802e1d70 f   c93_six_plus_six_AcmsteeringV09_main_2lflm.obj
 0001:002e1560       sf_c93_six_plus_six_AcmsteeringV09_main_2lflm_third_party_uses_info 00000001802e2560 f   c93_six_plus_six_AcmsteeringV09_main_2lflm.obj
 0001:002e1590       sf_c93_six_plus_six_AcmsteeringV09_main_2lflm_updateBuildInfo_args_info 00000001802e2590 f   c93_six_plus_six_AcmsteeringV09_main_2lflm.obj
 0001:002e15c0       sf_internal_get_sim_state_c93_six_plus_six_AcmsteeringV09_main_2lflm 00000001802e25c0 f   c93_six_plus_six_AcmsteeringV09_main_2lflm.obj
 0001:002e1920       sf_internal_set_sim_state_c93_six_plus_six_AcmsteeringV09_main_2lflm 00000001802e2920 f   c93_six_plus_six_AcmsteeringV09_main_2lflm.obj
 0001:002e1d10       c93_six_plus_six_AcmsteeringV09_main_2lflm_method_dispatcher 00000001802e2d10 f   c93_six_plus_six_AcmsteeringV09_main_2lflm.obj
 0001:002e4220       sf_c94_six_plus_six_AcmsteeringV09_main_2lflm_get_eml_resolved_functions_info 00000001802e5220 f   c94_six_plus_six_AcmsteeringV09_main_2lflm.obj
 0001:002edb10       sf_c94_six_plus_six_AcmsteeringV09_main_2lflm_get_check_sum 00000001802eeb10 f   c94_six_plus_six_AcmsteeringV09_main_2lflm.obj
 0001:002edb90       sf_c94_six_plus_six_AcmsteeringV09_main_2lflm_get_autoinheritance_info 00000001802eeb90 f   c94_six_plus_six_AcmsteeringV09_main_2lflm.obj
 0001:002ee380       sf_c94_six_plus_six_AcmsteeringV09_main_2lflm_third_party_uses_info 00000001802ef380 f   c94_six_plus_six_AcmsteeringV09_main_2lflm.obj
 0001:002ee3b0       sf_c94_six_plus_six_AcmsteeringV09_main_2lflm_updateBuildInfo_args_info 00000001802ef3b0 f   c94_six_plus_six_AcmsteeringV09_main_2lflm.obj
 0001:002ee3e0       sf_internal_get_sim_state_c94_six_plus_six_AcmsteeringV09_main_2lflm 00000001802ef3e0 f   c94_six_plus_six_AcmsteeringV09_main_2lflm.obj
 0001:002ee740       sf_internal_set_sim_state_c94_six_plus_six_AcmsteeringV09_main_2lflm 00000001802ef740 f   c94_six_plus_six_AcmsteeringV09_main_2lflm.obj
 0001:002eeb30       c94_six_plus_six_AcmsteeringV09_main_2lflm_method_dispatcher 00000001802efb30 f   c94_six_plus_six_AcmsteeringV09_main_2lflm.obj
 0001:002f1030       sf_c95_six_plus_six_AcmsteeringV09_main_2lflm_get_eml_resolved_functions_info 00000001802f2030 f   c95_six_plus_six_AcmsteeringV09_main_2lflm.obj
 0001:002fa920       sf_c95_six_plus_six_AcmsteeringV09_main_2lflm_get_check_sum 00000001802fb920 f   c95_six_plus_six_AcmsteeringV09_main_2lflm.obj
 0001:002fa9a0       sf_c95_six_plus_six_AcmsteeringV09_main_2lflm_get_autoinheritance_info 00000001802fb9a0 f   c95_six_plus_six_AcmsteeringV09_main_2lflm.obj
 0001:002fb190       sf_c95_six_plus_six_AcmsteeringV09_main_2lflm_third_party_uses_info 00000001802fc190 f   c95_six_plus_six_AcmsteeringV09_main_2lflm.obj
 0001:002fb1c0       sf_c95_six_plus_six_AcmsteeringV09_main_2lflm_updateBuildInfo_args_info 00000001802fc1c0 f   c95_six_plus_six_AcmsteeringV09_main_2lflm.obj
 0001:002fb1f0       sf_internal_get_sim_state_c95_six_plus_six_AcmsteeringV09_main_2lflm 00000001802fc1f0 f   c95_six_plus_six_AcmsteeringV09_main_2lflm.obj
 0001:002fb550       sf_internal_set_sim_state_c95_six_plus_six_AcmsteeringV09_main_2lflm 00000001802fc550 f   c95_six_plus_six_AcmsteeringV09_main_2lflm.obj
 0001:002fb940       c95_six_plus_six_AcmsteeringV09_main_2lflm_method_dispatcher 00000001802fc940 f   c95_six_plus_six_AcmsteeringV09_main_2lflm.obj
 0001:002fde40       sf_c96_six_plus_six_AcmsteeringV09_main_2lflm_get_eml_resolved_functions_info 00000001802fee40 f   c96_six_plus_six_AcmsteeringV09_main_2lflm.obj
 0001:00307730       sf_c96_six_plus_six_AcmsteeringV09_main_2lflm_get_check_sum 0000000180308730 f   c96_six_plus_six_AcmsteeringV09_main_2lflm.obj
 0001:003077b0       sf_c96_six_plus_six_AcmsteeringV09_main_2lflm_get_autoinheritance_info 00000001803087b0 f   c96_six_plus_six_AcmsteeringV09_main_2lflm.obj
 0001:00307fa0       sf_c96_six_plus_six_AcmsteeringV09_main_2lflm_third_party_uses_info 0000000180308fa0 f   c96_six_plus_six_AcmsteeringV09_main_2lflm.obj
 0001:00307fd0       sf_c96_six_plus_six_AcmsteeringV09_main_2lflm_updateBuildInfo_args_info 0000000180308fd0 f   c96_six_plus_six_AcmsteeringV09_main_2lflm.obj
 0001:00308000       sf_internal_get_sim_state_c96_six_plus_six_AcmsteeringV09_main_2lflm 0000000180309000 f   c96_six_plus_six_AcmsteeringV09_main_2lflm.obj
 0001:00308360       sf_internal_set_sim_state_c96_six_plus_six_AcmsteeringV09_main_2lflm 0000000180309360 f   c96_six_plus_six_AcmsteeringV09_main_2lflm.obj
 0001:00308750       c96_six_plus_six_AcmsteeringV09_main_2lflm_method_dispatcher 0000000180309750 f   c96_six_plus_six_AcmsteeringV09_main_2lflm.obj
 0001:0030ac50       sf_c97_six_plus_six_AcmsteeringV09_main_2lflm_get_eml_resolved_functions_info 000000018030bc50 f   c97_six_plus_six_AcmsteeringV09_main_2lflm.obj
 0001:00314540       sf_c97_six_plus_six_AcmsteeringV09_main_2lflm_get_check_sum 0000000180315540 f   c97_six_plus_six_AcmsteeringV09_main_2lflm.obj
 0001:003145c0       sf_c97_six_plus_six_AcmsteeringV09_main_2lflm_get_autoinheritance_info 00000001803155c0 f   c97_six_plus_six_AcmsteeringV09_main_2lflm.obj
 0001:00314db0       sf_c97_six_plus_six_AcmsteeringV09_main_2lflm_third_party_uses_info 0000000180315db0 f   c97_six_plus_six_AcmsteeringV09_main_2lflm.obj
 0001:00314de0       sf_c97_six_plus_six_AcmsteeringV09_main_2lflm_updateBuildInfo_args_info 0000000180315de0 f   c97_six_plus_six_AcmsteeringV09_main_2lflm.obj
 0001:00314e10       sf_internal_get_sim_state_c97_six_plus_six_AcmsteeringV09_main_2lflm 0000000180315e10 f   c97_six_plus_six_AcmsteeringV09_main_2lflm.obj
 0001:00315170       sf_internal_set_sim_state_c97_six_plus_six_AcmsteeringV09_main_2lflm 0000000180316170 f   c97_six_plus_six_AcmsteeringV09_main_2lflm.obj
 0001:00315560       c97_six_plus_six_AcmsteeringV09_main_2lflm_method_dispatcher 0000000180316560 f   c97_six_plus_six_AcmsteeringV09_main_2lflm.obj
 0001:00317a50       sf_c98_six_plus_six_AcmsteeringV09_main_2lflm_get_eml_resolved_functions_info 0000000180318a50 f   c98_six_plus_six_AcmsteeringV09_main_2lflm.obj
 0001:00321340       sf_c98_six_plus_six_AcmsteeringV09_main_2lflm_get_check_sum 0000000180322340 f   c98_six_plus_six_AcmsteeringV09_main_2lflm.obj
 0001:003213c0       sf_c98_six_plus_six_AcmsteeringV09_main_2lflm_get_autoinheritance_info 00000001803223c0 f   c98_six_plus_six_AcmsteeringV09_main_2lflm.obj
 0001:00321bb0       sf_c98_six_plus_six_AcmsteeringV09_main_2lflm_third_party_uses_info 0000000180322bb0 f   c98_six_plus_six_AcmsteeringV09_main_2lflm.obj
 0001:00321be0       sf_c98_six_plus_six_AcmsteeringV09_main_2lflm_updateBuildInfo_args_info 0000000180322be0 f   c98_six_plus_six_AcmsteeringV09_main_2lflm.obj
 0001:00321c10       sf_internal_get_sim_state_c98_six_plus_six_AcmsteeringV09_main_2lflm 0000000180322c10 f   c98_six_plus_six_AcmsteeringV09_main_2lflm.obj
 0001:00321f70       sf_internal_set_sim_state_c98_six_plus_six_AcmsteeringV09_main_2lflm 0000000180322f70 f   c98_six_plus_six_AcmsteeringV09_main_2lflm.obj
 0001:00322360       c98_six_plus_six_AcmsteeringV09_main_2lflm_method_dispatcher 0000000180323360 f   c98_six_plus_six_AcmsteeringV09_main_2lflm.obj
 0001:00324860       sf_c99_six_plus_six_AcmsteeringV09_main_2lflm_get_eml_resolved_functions_info 0000000180325860 f   c99_six_plus_six_AcmsteeringV09_main_2lflm.obj
 0001:00326950       sf_c99_six_plus_six_AcmsteeringV09_main_2lflm_get_check_sum 0000000180327950 f   c99_six_plus_six_AcmsteeringV09_main_2lflm.obj
 0001:003269d0       sf_c99_six_plus_six_AcmsteeringV09_main_2lflm_get_autoinheritance_info 00000001803279d0 f   c99_six_plus_six_AcmsteeringV09_main_2lflm.obj
 0001:003271c0       sf_c99_six_plus_six_AcmsteeringV09_main_2lflm_third_party_uses_info 00000001803281c0 f   c99_six_plus_six_AcmsteeringV09_main_2lflm.obj
 0001:003271f0       sf_c99_six_plus_six_AcmsteeringV09_main_2lflm_updateBuildInfo_args_info 00000001803281f0 f   c99_six_plus_six_AcmsteeringV09_main_2lflm.obj
 0001:00327220       sf_internal_get_sim_state_c99_six_plus_six_AcmsteeringV09_main_2lflm 0000000180328220 f   c99_six_plus_six_AcmsteeringV09_main_2lflm.obj
 0001:00327580       sf_internal_set_sim_state_c99_six_plus_six_AcmsteeringV09_main_2lflm 0000000180328580 f   c99_six_plus_six_AcmsteeringV09_main_2lflm.obj
 0001:00327970       c99_six_plus_six_AcmsteeringV09_main_2lflm_method_dispatcher 0000000180328970 f   c99_six_plus_six_AcmsteeringV09_main_2lflm.obj
 0001:00329c90       sf_c100_six_plus_six_AcmsteeringV09_main_2lflm_get_eml_resolved_functions_info 000000018032ac90 f   c100_six_plus_six_AcmsteeringV09_main_2lflm.obj
 0001:0032bd80       sf_c100_six_plus_six_AcmsteeringV09_main_2lflm_get_check_sum 000000018032cd80 f   c100_six_plus_six_AcmsteeringV09_main_2lflm.obj
 0001:0032be00       sf_c100_six_plus_six_AcmsteeringV09_main_2lflm_get_autoinheritance_info 000000018032ce00 f   c100_six_plus_six_AcmsteeringV09_main_2lflm.obj
 0001:0032c5f0       sf_c100_six_plus_six_AcmsteeringV09_main_2lflm_third_party_uses_info 000000018032d5f0 f   c100_six_plus_six_AcmsteeringV09_main_2lflm.obj
 0001:0032c620       sf_c100_six_plus_six_AcmsteeringV09_main_2lflm_updateBuildInfo_args_info 000000018032d620 f   c100_six_plus_six_AcmsteeringV09_main_2lflm.obj
 0001:0032c650       sf_internal_get_sim_state_c100_six_plus_six_AcmsteeringV09_main_2lflm 000000018032d650 f   c100_six_plus_six_AcmsteeringV09_main_2lflm.obj
 0001:0032c9b0       sf_internal_set_sim_state_c100_six_plus_six_AcmsteeringV09_main_2lflm 000000018032d9b0 f   c100_six_plus_six_AcmsteeringV09_main_2lflm.obj
 0001:0032cda0       c100_six_plus_six_AcmsteeringV09_main_2lflm_method_dispatcher 000000018032dda0 f   c100_six_plus_six_AcmsteeringV09_main_2lflm.obj
 0001:0032f0c0       sf_c101_six_plus_six_AcmsteeringV09_main_2lflm_get_eml_resolved_functions_info 00000001803300c0 f   c101_six_plus_six_AcmsteeringV09_main_2lflm.obj
 0001:003389b0       sf_c101_six_plus_six_AcmsteeringV09_main_2lflm_get_check_sum 00000001803399b0 f   c101_six_plus_six_AcmsteeringV09_main_2lflm.obj
 0001:00338a30       sf_c101_six_plus_six_AcmsteeringV09_main_2lflm_get_autoinheritance_info 0000000180339a30 f   c101_six_plus_six_AcmsteeringV09_main_2lflm.obj
 0001:00339220       sf_c101_six_plus_six_AcmsteeringV09_main_2lflm_third_party_uses_info 000000018033a220 f   c101_six_plus_six_AcmsteeringV09_main_2lflm.obj
 0001:00339250       sf_c101_six_plus_six_AcmsteeringV09_main_2lflm_updateBuildInfo_args_info 000000018033a250 f   c101_six_plus_six_AcmsteeringV09_main_2lflm.obj
 0001:00339280       sf_internal_get_sim_state_c101_six_plus_six_AcmsteeringV09_main_2lflm 000000018033a280 f   c101_six_plus_six_AcmsteeringV09_main_2lflm.obj
 0001:003395e0       sf_internal_set_sim_state_c101_six_plus_six_AcmsteeringV09_main_2lflm 000000018033a5e0 f   c101_six_plus_six_AcmsteeringV09_main_2lflm.obj
 0001:003399d0       c101_six_plus_six_AcmsteeringV09_main_2lflm_method_dispatcher 000000018033a9d0 f   c101_six_plus_six_AcmsteeringV09_main_2lflm.obj
 0001:0033bed0       sf_c102_six_plus_six_AcmsteeringV09_main_2lflm_get_eml_resolved_functions_info 000000018033ced0 f   c102_six_plus_six_AcmsteeringV09_main_2lflm.obj
 0001:003457c0       sf_c102_six_plus_six_AcmsteeringV09_main_2lflm_get_check_sum 00000001803467c0 f   c102_six_plus_six_AcmsteeringV09_main_2lflm.obj
 0001:00345840       sf_c102_six_plus_six_AcmsteeringV09_main_2lflm_get_autoinheritance_info 0000000180346840 f   c102_six_plus_six_AcmsteeringV09_main_2lflm.obj
 0001:00346030       sf_c102_six_plus_six_AcmsteeringV09_main_2lflm_third_party_uses_info 0000000180347030 f   c102_six_plus_six_AcmsteeringV09_main_2lflm.obj
 0001:00346060       sf_c102_six_plus_six_AcmsteeringV09_main_2lflm_updateBuildInfo_args_info 0000000180347060 f   c102_six_plus_six_AcmsteeringV09_main_2lflm.obj
 0001:00346090       sf_internal_get_sim_state_c102_six_plus_six_AcmsteeringV09_main_2lflm 0000000180347090 f   c102_six_plus_six_AcmsteeringV09_main_2lflm.obj
 0001:003463f0       sf_internal_set_sim_state_c102_six_plus_six_AcmsteeringV09_main_2lflm 00000001803473f0 f   c102_six_plus_six_AcmsteeringV09_main_2lflm.obj
 0001:003467e0       c102_six_plus_six_AcmsteeringV09_main_2lflm_method_dispatcher 00000001803477e0 f   c102_six_plus_six_AcmsteeringV09_main_2lflm.obj
 0001:00348ce0       sf_c103_six_plus_six_AcmsteeringV09_main_2lflm_get_eml_resolved_functions_info 0000000180349ce0 f   c103_six_plus_six_AcmsteeringV09_main_2lflm.obj
 0001:003525d0       sf_c103_six_plus_six_AcmsteeringV09_main_2lflm_get_check_sum 00000001803535d0 f   c103_six_plus_six_AcmsteeringV09_main_2lflm.obj
 0001:00352650       sf_c103_six_plus_six_AcmsteeringV09_main_2lflm_get_autoinheritance_info 0000000180353650 f   c103_six_plus_six_AcmsteeringV09_main_2lflm.obj
 0001:00352e40       sf_c103_six_plus_six_AcmsteeringV09_main_2lflm_third_party_uses_info 0000000180353e40 f   c103_six_plus_six_AcmsteeringV09_main_2lflm.obj
 0001:00352e70       sf_c103_six_plus_six_AcmsteeringV09_main_2lflm_updateBuildInfo_args_info 0000000180353e70 f   c103_six_plus_six_AcmsteeringV09_main_2lflm.obj
 0001:00352ea0       sf_internal_get_sim_state_c103_six_plus_six_AcmsteeringV09_main_2lflm 0000000180353ea0 f   c103_six_plus_six_AcmsteeringV09_main_2lflm.obj
 0001:00353200       sf_internal_set_sim_state_c103_six_plus_six_AcmsteeringV09_main_2lflm 0000000180354200 f   c103_six_plus_six_AcmsteeringV09_main_2lflm.obj
 0001:003535f0       c103_six_plus_six_AcmsteeringV09_main_2lflm_method_dispatcher 00000001803545f0 f   c103_six_plus_six_AcmsteeringV09_main_2lflm.obj
 0001:00355af0       sf_c104_six_plus_six_AcmsteeringV09_main_2lflm_get_eml_resolved_functions_info 0000000180356af0 f   c104_six_plus_six_AcmsteeringV09_main_2lflm.obj
 0001:00357700       sf_c104_six_plus_six_AcmsteeringV09_main_2lflm_get_check_sum 0000000180358700 f   c104_six_plus_six_AcmsteeringV09_main_2lflm.obj
 0001:00357780       sf_c104_six_plus_six_AcmsteeringV09_main_2lflm_get_autoinheritance_info 0000000180358780 f   c104_six_plus_six_AcmsteeringV09_main_2lflm.obj
 0001:0035a230       sf_c104_six_plus_six_AcmsteeringV09_main_2lflm_third_party_uses_info 000000018035b230 f   c104_six_plus_six_AcmsteeringV09_main_2lflm.obj
 0001:0035a260       sf_c104_six_plus_six_AcmsteeringV09_main_2lflm_updateBuildInfo_args_info 000000018035b260 f   c104_six_plus_six_AcmsteeringV09_main_2lflm.obj
 0001:0035a290       sf_internal_get_sim_state_c104_six_plus_six_AcmsteeringV09_main_2lflm 000000018035b290 f   c104_six_plus_six_AcmsteeringV09_main_2lflm.obj
 0001:0035b240       sf_internal_set_sim_state_c104_six_plus_six_AcmsteeringV09_main_2lflm 000000018035c240 f   c104_six_plus_six_AcmsteeringV09_main_2lflm.obj
 0001:0035bbc0       c104_six_plus_six_AcmsteeringV09_main_2lflm_method_dispatcher 000000018035cbc0 f   c104_six_plus_six_AcmsteeringV09_main_2lflm.obj
 0001:00362470       sf_c105_six_plus_six_AcmsteeringV09_main_2lflm_get_eml_resolved_functions_info 0000000180363470 f   c105_six_plus_six_AcmsteeringV09_main_2lflm.obj
 0001:003624f0       sf_c105_six_plus_six_AcmsteeringV09_main_2lflm_get_check_sum 00000001803634f0 f   c105_six_plus_six_AcmsteeringV09_main_2lflm.obj
 0001:00362570       sf_c105_six_plus_six_AcmsteeringV09_main_2lflm_get_autoinheritance_info 0000000180363570 f   c105_six_plus_six_AcmsteeringV09_main_2lflm.obj
 0001:003637b0       sf_c105_six_plus_six_AcmsteeringV09_main_2lflm_third_party_uses_info 00000001803647b0 f   c105_six_plus_six_AcmsteeringV09_main_2lflm.obj
 0001:003637e0       sf_c105_six_plus_six_AcmsteeringV09_main_2lflm_updateBuildInfo_args_info 00000001803647e0 f   c105_six_plus_six_AcmsteeringV09_main_2lflm.obj
 0001:00363810       sf_internal_get_sim_state_c105_six_plus_six_AcmsteeringV09_main_2lflm 0000000180364810 f   c105_six_plus_six_AcmsteeringV09_main_2lflm.obj
 0001:00363f40       sf_internal_set_sim_state_c105_six_plus_six_AcmsteeringV09_main_2lflm 0000000180364f40 f   c105_six_plus_six_AcmsteeringV09_main_2lflm.obj
 0001:003644b0       c105_six_plus_six_AcmsteeringV09_main_2lflm_method_dispatcher 00000001803654b0 f   c105_six_plus_six_AcmsteeringV09_main_2lflm.obj
 0001:00367f60       sf_c106_six_plus_six_AcmsteeringV09_main_2lflm_get_eml_resolved_functions_info 0000000180368f60 f   c106_six_plus_six_AcmsteeringV09_main_2lflm.obj
 0001:00367fe0       sf_c106_six_plus_six_AcmsteeringV09_main_2lflm_get_check_sum 0000000180368fe0 f   c106_six_plus_six_AcmsteeringV09_main_2lflm.obj
 0001:00368060       sf_c106_six_plus_six_AcmsteeringV09_main_2lflm_get_autoinheritance_info 0000000180369060 f   c106_six_plus_six_AcmsteeringV09_main_2lflm.obj
 0001:003692a0       sf_c106_six_plus_six_AcmsteeringV09_main_2lflm_third_party_uses_info 000000018036a2a0 f   c106_six_plus_six_AcmsteeringV09_main_2lflm.obj
 0001:003692d0       sf_c106_six_plus_six_AcmsteeringV09_main_2lflm_updateBuildInfo_args_info 000000018036a2d0 f   c106_six_plus_six_AcmsteeringV09_main_2lflm.obj
 0001:00369300       sf_internal_get_sim_state_c106_six_plus_six_AcmsteeringV09_main_2lflm 000000018036a300 f   c106_six_plus_six_AcmsteeringV09_main_2lflm.obj
 0001:00369a40       sf_internal_set_sim_state_c106_six_plus_six_AcmsteeringV09_main_2lflm 000000018036aa40 f   c106_six_plus_six_AcmsteeringV09_main_2lflm.obj
 0001:00369fb0       c106_six_plus_six_AcmsteeringV09_main_2lflm_method_dispatcher 000000018036afb0 f   c106_six_plus_six_AcmsteeringV09_main_2lflm.obj
 0001:0036da60       sf_c107_six_plus_six_AcmsteeringV09_main_2lflm_get_eml_resolved_functions_info 000000018036ea60 f   c107_six_plus_six_AcmsteeringV09_main_2lflm.obj
 0001:0036e2a0       sf_c107_six_plus_six_AcmsteeringV09_main_2lflm_get_check_sum 000000018036f2a0 f   c107_six_plus_six_AcmsteeringV09_main_2lflm.obj
 0001:0036e320       sf_c107_six_plus_six_AcmsteeringV09_main_2lflm_get_autoinheritance_info 000000018036f320 f   c107_six_plus_six_AcmsteeringV09_main_2lflm.obj
 0001:0036e890       sf_c107_six_plus_six_AcmsteeringV09_main_2lflm_third_party_uses_info 000000018036f890 f   c107_six_plus_six_AcmsteeringV09_main_2lflm.obj
 0001:0036e8c0       sf_c107_six_plus_six_AcmsteeringV09_main_2lflm_updateBuildInfo_args_info 000000018036f8c0 f   c107_six_plus_six_AcmsteeringV09_main_2lflm.obj
 0001:0036e8f0       sf_internal_get_sim_state_c107_six_plus_six_AcmsteeringV09_main_2lflm 000000018036f8f0 f   c107_six_plus_six_AcmsteeringV09_main_2lflm.obj
 0001:0036ec50       sf_internal_set_sim_state_c107_six_plus_six_AcmsteeringV09_main_2lflm 000000018036fc50 f   c107_six_plus_six_AcmsteeringV09_main_2lflm.obj
 0001:0036f020       c107_six_plus_six_AcmsteeringV09_main_2lflm_method_dispatcher 0000000180370020 f   c107_six_plus_six_AcmsteeringV09_main_2lflm.obj
 0001:003710b0       sf_c109_six_plus_six_AcmsteeringV09_main_2lflm_get_eml_resolved_functions_info 00000001803720b0 f   c109_six_plus_six_AcmsteeringV09_main_2lflm.obj
 0001:003718f0       sf_c109_six_plus_six_AcmsteeringV09_main_2lflm_get_check_sum 00000001803728f0 f   c109_six_plus_six_AcmsteeringV09_main_2lflm.obj
 0001:00371970       sf_c109_six_plus_six_AcmsteeringV09_main_2lflm_get_autoinheritance_info 0000000180372970 f   c109_six_plus_six_AcmsteeringV09_main_2lflm.obj
 0001:00371ee0       sf_c109_six_plus_six_AcmsteeringV09_main_2lflm_third_party_uses_info 0000000180372ee0 f   c109_six_plus_six_AcmsteeringV09_main_2lflm.obj
 0001:00371f10       sf_c109_six_plus_six_AcmsteeringV09_main_2lflm_updateBuildInfo_args_info 0000000180372f10 f   c109_six_plus_six_AcmsteeringV09_main_2lflm.obj
 0001:00371f40       sf_internal_get_sim_state_c109_six_plus_six_AcmsteeringV09_main_2lflm 0000000180372f40 f   c109_six_plus_six_AcmsteeringV09_main_2lflm.obj
 0001:003722a0       sf_internal_set_sim_state_c109_six_plus_six_AcmsteeringV09_main_2lflm 00000001803732a0 f   c109_six_plus_six_AcmsteeringV09_main_2lflm.obj
 0001:00372670       c109_six_plus_six_AcmsteeringV09_main_2lflm_method_dispatcher 0000000180373670 f   c109_six_plus_six_AcmsteeringV09_main_2lflm.obj
 0001:00374700       sf_c185_six_plus_six_AcmsteeringV09_main_2lflm_get_eml_resolved_functions_info 0000000180375700 f   c185_six_plus_six_AcmsteeringV09_main_2lflm.obj
 0001:00375940       sf_c185_six_plus_six_AcmsteeringV09_main_2lflm_get_check_sum 0000000180376940 f   c185_six_plus_six_AcmsteeringV09_main_2lflm.obj
 0001:003759c0       sf_c185_six_plus_six_AcmsteeringV09_main_2lflm_get_autoinheritance_info 00000001803769c0 f   c185_six_plus_six_AcmsteeringV09_main_2lflm.obj
 0001:00376310       sf_c185_six_plus_six_AcmsteeringV09_main_2lflm_third_party_uses_info 0000000180377310 f   c185_six_plus_six_AcmsteeringV09_main_2lflm.obj
 0001:00376340       sf_c185_six_plus_six_AcmsteeringV09_main_2lflm_updateBuildInfo_args_info 0000000180377340 f   c185_six_plus_six_AcmsteeringV09_main_2lflm.obj
 0001:00376370       sf_internal_get_sim_state_c185_six_plus_six_AcmsteeringV09_main_2lflm 0000000180377370 f   c185_six_plus_six_AcmsteeringV09_main_2lflm.obj
 0001:00376850       sf_internal_set_sim_state_c185_six_plus_six_AcmsteeringV09_main_2lflm 0000000180377850 f   c185_six_plus_six_AcmsteeringV09_main_2lflm.obj
 0001:00376cd0       c185_six_plus_six_AcmsteeringV09_main_2lflm_method_dispatcher 0000000180377cd0 f   c185_six_plus_six_AcmsteeringV09_main_2lflm.obj
 0001:00379d00       sf_c186_six_plus_six_AcmsteeringV09_main_2lflm_get_eml_resolved_functions_info 000000018037ad00 f   c186_six_plus_six_AcmsteeringV09_main_2lflm.obj
 0001:00379d80       sf_c186_six_plus_six_AcmsteeringV09_main_2lflm_get_check_sum 000000018037ad80 f   c186_six_plus_six_AcmsteeringV09_main_2lflm.obj
 0001:00379e00       sf_c186_six_plus_six_AcmsteeringV09_main_2lflm_get_autoinheritance_info 000000018037ae00 f   c186_six_plus_six_AcmsteeringV09_main_2lflm.obj
 0001:0037a220       sf_c186_six_plus_six_AcmsteeringV09_main_2lflm_third_party_uses_info 000000018037b220 f   c186_six_plus_six_AcmsteeringV09_main_2lflm.obj
 0001:0037a250       sf_c186_six_plus_six_AcmsteeringV09_main_2lflm_updateBuildInfo_args_info 000000018037b250 f   c186_six_plus_six_AcmsteeringV09_main_2lflm.obj
 0001:0037a280       sf_internal_get_sim_state_c186_six_plus_six_AcmsteeringV09_main_2lflm 000000018037b280 f   c186_six_plus_six_AcmsteeringV09_main_2lflm.obj
 0001:0037a5e0       sf_internal_set_sim_state_c186_six_plus_six_AcmsteeringV09_main_2lflm 000000018037b5e0 f   c186_six_plus_six_AcmsteeringV09_main_2lflm.obj
 0001:0037a9d0       c186_six_plus_six_AcmsteeringV09_main_2lflm_method_dispatcher 000000018037b9d0 f   c186_six_plus_six_AcmsteeringV09_main_2lflm.obj
 0001:0037c730       sf_c187_six_plus_six_AcmsteeringV09_main_2lflm_get_eml_resolved_functions_info 000000018037d730 f   c187_six_plus_six_AcmsteeringV09_main_2lflm.obj
 0001:0037c7b0       sf_c187_six_plus_six_AcmsteeringV09_main_2lflm_get_check_sum 000000018037d7b0 f   c187_six_plus_six_AcmsteeringV09_main_2lflm.obj
 0001:0037c830       sf_c187_six_plus_six_AcmsteeringV09_main_2lflm_get_autoinheritance_info 000000018037d830 f   c187_six_plus_six_AcmsteeringV09_main_2lflm.obj
 0001:0037cc50       sf_c187_six_plus_six_AcmsteeringV09_main_2lflm_third_party_uses_info 000000018037dc50 f   c187_six_plus_six_AcmsteeringV09_main_2lflm.obj
 0001:0037cc80       sf_c187_six_plus_six_AcmsteeringV09_main_2lflm_updateBuildInfo_args_info 000000018037dc80 f   c187_six_plus_six_AcmsteeringV09_main_2lflm.obj
 0001:0037ccb0       sf_internal_get_sim_state_c187_six_plus_six_AcmsteeringV09_main_2lflm 000000018037dcb0 f   c187_six_plus_six_AcmsteeringV09_main_2lflm.obj
 0001:0037d010       sf_internal_set_sim_state_c187_six_plus_six_AcmsteeringV09_main_2lflm 000000018037e010 f   c187_six_plus_six_AcmsteeringV09_main_2lflm.obj
 0001:0037d400       c187_six_plus_six_AcmsteeringV09_main_2lflm_method_dispatcher 000000018037e400 f   c187_six_plus_six_AcmsteeringV09_main_2lflm.obj
 0001:0037f170       sf_c188_six_plus_six_AcmsteeringV09_main_2lflm_get_eml_resolved_functions_info 0000000180380170 f   c188_six_plus_six_AcmsteeringV09_main_2lflm.obj
 0001:0037f1f0       sf_c188_six_plus_six_AcmsteeringV09_main_2lflm_get_check_sum 00000001803801f0 f   c188_six_plus_six_AcmsteeringV09_main_2lflm.obj
 0001:0037f270       sf_c188_six_plus_six_AcmsteeringV09_main_2lflm_get_autoinheritance_info 0000000180380270 f   c188_six_plus_six_AcmsteeringV09_main_2lflm.obj
 0001:0037f690       sf_c188_six_plus_six_AcmsteeringV09_main_2lflm_third_party_uses_info 0000000180380690 f   c188_six_plus_six_AcmsteeringV09_main_2lflm.obj
 0001:0037f6c0       sf_c188_six_plus_six_AcmsteeringV09_main_2lflm_updateBuildInfo_args_info 00000001803806c0 f   c188_six_plus_six_AcmsteeringV09_main_2lflm.obj
 0001:0037f6f0       sf_internal_get_sim_state_c188_six_plus_six_AcmsteeringV09_main_2lflm 00000001803806f0 f   c188_six_plus_six_AcmsteeringV09_main_2lflm.obj
 0001:0037fa50       sf_internal_set_sim_state_c188_six_plus_six_AcmsteeringV09_main_2lflm 0000000180380a50 f   c188_six_plus_six_AcmsteeringV09_main_2lflm.obj
 0001:0037fe40       c188_six_plus_six_AcmsteeringV09_main_2lflm_method_dispatcher 0000000180380e40 f   c188_six_plus_six_AcmsteeringV09_main_2lflm.obj
 0001:00381bb0       sf_c195_six_plus_six_AcmsteeringV09_main_2lflm_get_eml_resolved_functions_info 0000000180382bb0 f   c195_six_plus_six_AcmsteeringV09_main_2lflm.obj
 0001:00381c30       sf_c195_six_plus_six_AcmsteeringV09_main_2lflm_get_check_sum 0000000180382c30 f   c195_six_plus_six_AcmsteeringV09_main_2lflm.obj
 0001:00381cb0       sf_c195_six_plus_six_AcmsteeringV09_main_2lflm_get_autoinheritance_info 0000000180382cb0 f   c195_six_plus_six_AcmsteeringV09_main_2lflm.obj
 0001:003820d0       sf_c195_six_plus_six_AcmsteeringV09_main_2lflm_third_party_uses_info 00000001803830d0 f   c195_six_plus_six_AcmsteeringV09_main_2lflm.obj
 0001:00382100       sf_c195_six_plus_six_AcmsteeringV09_main_2lflm_updateBuildInfo_args_info 0000000180383100 f   c195_six_plus_six_AcmsteeringV09_main_2lflm.obj
 0001:00382130       sf_internal_get_sim_state_c195_six_plus_six_AcmsteeringV09_main_2lflm 0000000180383130 f   c195_six_plus_six_AcmsteeringV09_main_2lflm.obj
 0001:00382490       sf_internal_set_sim_state_c195_six_plus_six_AcmsteeringV09_main_2lflm 0000000180383490 f   c195_six_plus_six_AcmsteeringV09_main_2lflm.obj
 0001:00382880       c195_six_plus_six_AcmsteeringV09_main_2lflm_method_dispatcher 0000000180383880 f   c195_six_plus_six_AcmsteeringV09_main_2lflm.obj
 0001:003845e0       sf_c199_six_plus_six_AcmsteeringV09_main_2lflm_get_eml_resolved_functions_info 00000001803855e0 f   c199_six_plus_six_AcmsteeringV09_main_2lflm.obj
 0001:00384660       sf_c199_six_plus_six_AcmsteeringV09_main_2lflm_get_check_sum 0000000180385660 f   c199_six_plus_six_AcmsteeringV09_main_2lflm.obj
 0001:003846e0       sf_c199_six_plus_six_AcmsteeringV09_main_2lflm_get_autoinheritance_info 00000001803856e0 f   c199_six_plus_six_AcmsteeringV09_main_2lflm.obj
 0001:00385920       sf_c199_six_plus_six_AcmsteeringV09_main_2lflm_third_party_uses_info 0000000180386920 f   c199_six_plus_six_AcmsteeringV09_main_2lflm.obj
 0001:00385950       sf_c199_six_plus_six_AcmsteeringV09_main_2lflm_updateBuildInfo_args_info 0000000180386950 f   c199_six_plus_six_AcmsteeringV09_main_2lflm.obj
 0001:00385980       sf_internal_get_sim_state_c199_six_plus_six_AcmsteeringV09_main_2lflm 0000000180386980 f   c199_six_plus_six_AcmsteeringV09_main_2lflm.obj
 0001:003860d0       sf_internal_set_sim_state_c199_six_plus_six_AcmsteeringV09_main_2lflm 00000001803870d0 f   c199_six_plus_six_AcmsteeringV09_main_2lflm.obj
 0001:00386640       c199_six_plus_six_AcmsteeringV09_main_2lflm_method_dispatcher 0000000180387640 f   c199_six_plus_six_AcmsteeringV09_main_2lflm.obj
 0001:0038a100       sf_process_check_sum_call  000000018038b100 f   six_plus_six_AcmsteeringV09_main_2lflm_sfun_registry.obj
 0001:0038a150       sf_process_autoinheritance_call 000000018038b150 f   six_plus_six_AcmsteeringV09_main_2lflm_sfun_registry.obj
 0001:0038a2f0       sf_process_get_third_party_uses_info_call 000000018038b2f0 f   six_plus_six_AcmsteeringV09_main_2lflm_sfun_registry.obj
 0001:0038a490       sf_process_get_updateBuildInfo_args_info_call 000000018038b490 f   six_plus_six_AcmsteeringV09_main_2lflm_sfun_registry.obj
 0001:0038a630       sf_process_get_eml_resolved_functions_info_call 000000018038b630 f   six_plus_six_AcmsteeringV09_main_2lflm_sfun_registry.obj
 0001:0038a7b0       sf_mex_unlock_call         000000018038b7b0 f   six_plus_six_AcmsteeringV09_main_2lflm_sfun_registry.obj
 0001:0038a860       sf_machine_global_initializer_called 000000018038b860 f   six_plus_six_AcmsteeringV09_main_2lflm_sfun_registry.obj
 0001:0038a890       sf_machine_global_method_dispatcher 000000018038b890 f   six_plus_six_AcmsteeringV09_main_2lflm_sfun_registry.obj
 0001:0038a8f0       sf_machine_global_terminator 000000018038b8f0 f   six_plus_six_AcmsteeringV09_main_2lflm_sfun_registry.obj
 0001:0038a940       sf_register_machine_exported_symbols 000000018038b940 f   six_plus_six_AcmsteeringV09_main_2lflm_sfun_registry.obj
 0001:0038a960       callCustomFcn              000000018038b960 f   six_plus_six_AcmsteeringV09_main_2lflm_sfun_registry.obj
 0001:0038a970       sf_machine_global_initializer 000000018038b970 f   six_plus_six_AcmsteeringV09_main_2lflm_sfun_registry.obj
 0001:0038a9f0       mdlGetSimState             000000018038b9f0 f   six_plus_six_AcmsteeringV09_main_2lflm_sfun_registry.obj
 0001:0038aa70       mdlSetSimState             000000018038ba70 f   six_plus_six_AcmsteeringV09_main_2lflm_sfun_registry.obj
 0001:0038aab0       _ssSetStateAbsTol          000000018038bab0 f   six_plus_six_AcmsteeringV09_main_2lflm_sfun_registry.obj
 0001:0038ab90       _ssGetAbsTol               000000018038bb90 f   six_plus_six_AcmsteeringV09_main_2lflm_sfun_registry.obj
 0001:0038ac00       _ssSetInputPortMatrixDimensions 000000018038bc00 f   six_plus_six_AcmsteeringV09_main_2lflm_sfun_registry.obj
 0001:0038ad10       _ssSetOutputPortMatrixDimensions 000000018038bd10 f   six_plus_six_AcmsteeringV09_main_2lflm_sfun_registry.obj
 0001:0038ae20       _ssSetInputPortVectorDimension 000000018038be20 f   six_plus_six_AcmsteeringV09_main_2lflm_sfun_registry.obj
 0001:0038aef0       _ssSetOutputPortVectorDimension 000000018038bef0 f   six_plus_six_AcmsteeringV09_main_2lflm_sfun_registry.obj
 0001:0038afc0       ssIsRunTimeParamTunable    000000018038bfc0 f   six_plus_six_AcmsteeringV09_main_2lflm_sfun_registry.obj
 0001:0038b030       ssGetSFuncBlockHandle      000000018038c030 f   six_plus_six_AcmsteeringV09_main_2lflm_sfun_registry.obj
 0001:0038b0a0       _ssGetCurrentInputPortWidth 000000018038c0a0 f   six_plus_six_AcmsteeringV09_main_2lflm_sfun_registry.obj
 0001:0038b1c0       _ssGetCurrentOutputPortWidth 000000018038c1c0 f   six_plus_six_AcmsteeringV09_main_2lflm_sfun_registry.obj
 0001:0038b2e0       _ssGetCallSystemNumFcnCallDestinations 000000018038c2e0 f   six_plus_six_AcmsteeringV09_main_2lflm_sfun_registry.obj
 0001:0038b350       ssWarning                  000000018038c350 f   six_plus_six_AcmsteeringV09_main_2lflm_sfun_registry.obj
 0001:0038b460       ssGetIsZeroCrossControlDisabled 000000018038c460 f   six_plus_six_AcmsteeringV09_main_2lflm_sfun_registry.obj
 0001:0038b4d0       ssSetIsInputPortUsedForContZcSignal 000000018038c4d0 f   six_plus_six_AcmsteeringV09_main_2lflm_sfun_registry.obj
 0001:0038b540       ssSetZcSignalIsZcElementDisc 000000018038c540 f   six_plus_six_AcmsteeringV09_main_2lflm_sfun_registry.obj
 0001:0038b5f0       ssSetZcSignalName          000000018038c5f0 f   six_plus_six_AcmsteeringV09_main_2lflm_sfun_registry.obj
 0001:0038b660       ssSetZcSignalWidth         000000018038c660 f   six_plus_six_AcmsteeringV09_main_2lflm_sfun_registry.obj
 0001:0038b6d0       ssSetZcSignalZcEventType   000000018038c6d0 f   six_plus_six_AcmsteeringV09_main_2lflm_sfun_registry.obj
 0001:0038b740       ssSetZcSignalType          000000018038c740 f   six_plus_six_AcmsteeringV09_main_2lflm_sfun_registry.obj
 0001:0038b7b0       ssSetZcSignalZcTol         000000018038c7b0 f   six_plus_six_AcmsteeringV09_main_2lflm_sfun_registry.obj
 0001:0038b820       ssSetZcSignalNeedsEventNotification 000000018038c820 f   six_plus_six_AcmsteeringV09_main_2lflm_sfun_registry.obj
 0001:0038b890       ssCreateAndAddZcSignalInfo 000000018038c890 f   six_plus_six_AcmsteeringV09_main_2lflm_sfun_registry.obj
 0001:0038b900       ssCloneAndAddZcSignalInfo  000000018038c900 f   six_plus_six_AcmsteeringV09_main_2lflm_sfun_registry.obj
 0001:0038b970       ssGetNumZcSignals          000000018038c970 f   six_plus_six_AcmsteeringV09_main_2lflm_sfun_registry.obj
 0001:0038b9e0       ssGetZcSignalVector        000000018038c9e0 f   six_plus_six_AcmsteeringV09_main_2lflm_sfun_registry.obj
 0001:0038ba50       ssGetZcSignalZcEvents      000000018038ca50 f   six_plus_six_AcmsteeringV09_main_2lflm_sfun_registry.obj
 0001:0038bac0       ssGetZcSignalName          000000018038cac0 f   six_plus_six_AcmsteeringV09_main_2lflm_sfun_registry.obj
 0001:0038bb30       ssGetZcSignalWidth         000000018038cb30 f   six_plus_six_AcmsteeringV09_main_2lflm_sfun_registry.obj
 0001:0038bba0       ssGetZcSignalZcEventType   000000018038cba0 f   six_plus_six_AcmsteeringV09_main_2lflm_sfun_registry.obj
 0001:0038bc10       ssGetZcSignalType          000000018038cc10 f   six_plus_six_AcmsteeringV09_main_2lflm_sfun_registry.obj
 0001:0038bc80       ssGetZcSignalZcTol         000000018038cc80 f   six_plus_six_AcmsteeringV09_main_2lflm_sfun_registry.obj
 0001:0038bd00       ssGetZcSignalNeedsEventNotification 000000018038cd00 f   six_plus_six_AcmsteeringV09_main_2lflm_sfun_registry.obj
 0001:0038bd70       ssGetZcSignalIsZcElementDisc 000000018038cd70 f   six_plus_six_AcmsteeringV09_main_2lflm_sfun_registry.obj
 0001:0038be10       ssGetIsInputPortElementContinuous 000000018038ce10 f   six_plus_six_AcmsteeringV09_main_2lflm_sfun_registry.obj
 0001:0038beb0       _ssGetInputPortSignalPtrsFcn 000000018038ceb0 f   six_plus_six_AcmsteeringV09_main_2lflm_sfun_registry.obj
 0001:0038c170       _ssGetInputPortSignalFcn   000000018038d170 f   six_plus_six_AcmsteeringV09_main_2lflm_sfun_registry.obj
 0001:0038c390       _ssSetInputPortDirectFeedThroughFcn 000000018038d390 f   six_plus_six_AcmsteeringV09_main_2lflm_sfun_registry.obj
 0001:0038c4f0       _ssSetInputPortReusableFcn 000000018038d4f0 f   six_plus_six_AcmsteeringV09_main_2lflm_sfun_registry.obj
 0001:0038c5e0       _ssSetOutputPortReusableFcn 000000018038d5e0 f   six_plus_six_AcmsteeringV09_main_2lflm_sfun_registry.obj
 0001:0038c6c0       ssGetDTypeIdFromMxArray    000000018038d6c0 f   six_plus_six_AcmsteeringV09_main_2lflm_sfun_registry.obj
 0001:0038c7e0       ssWriteRTWStr              000000018038d7e0 f   six_plus_six_AcmsteeringV09_main_2lflm_sfun_registry.obj
 0001:0038c840       ssWriteRTWMxVectParam      000000018038d840 f   six_plus_six_AcmsteeringV09_main_2lflm_sfun_registry.obj
 0001:0038c8a0       ssWriteRTWMx2dMatParam     000000018038d8a0 f   six_plus_six_AcmsteeringV09_main_2lflm_sfun_registry.obj
 0001:0038c920       ssWriteRTWNameValuePair    000000018038d920 f   six_plus_six_AcmsteeringV09_main_2lflm_sfun_registry.obj
 0001:0038ce10       ssWriteRTWParameters       000000018038de10 f   six_plus_six_AcmsteeringV09_main_2lflm_sfun_registry.obj
 0001:0038d410       ssWriteRTWParamSettings    000000018038e410 f   six_plus_six_AcmsteeringV09_main_2lflm_sfun_registry.obj
 0001:0038dae0       ssWriteRTWWorkVect         000000018038eae0 f   six_plus_six_AcmsteeringV09_main_2lflm_sfun_registry.obj
 0001:0038dfe0       mexFunction                000000018038efe0 f   six_plus_six_AcmsteeringV09_main_2lflm_sfun_registry.obj
 0001:00390460       ProcessMexSfunctionEveryCall 0000000180391460 f   six_plus_six_AcmsteeringV09_main_2lflm_sfun_registry.obj
 0001:003905e2       sf_debug_set_machine_data_thresholds 00000001803915e2 f   sf_runtime:sf_runtime.dll
 0001:003905e8       sf_debug_set_machine_event_thresholds 00000001803915e8 f   sf_runtime:sf_runtime.dll
 0001:003905ee       sf_debug_initialize_machine 00000001803915ee f   sf_runtime:sf_runtime.dll
 0001:003905f4       sf_load_rtw_optimization_info 00000001803915f4 f   sf_runtime:sf_runtime.dll
 0001:003905fa       sf_mex_assign              00000001803915fa f   sf_runtime:sf_runtime.dll
 0001:00390600       sf_mex_create              0000000180391600 f   sf_runtime:sf_runtime.dll
 0001:00390606       sf_mex_error_message       0000000180391606 f   sf_runtime:sf_runtime.dll
 0001:0039060c       sf_mex_call_matlab         000000018039160c f   sf_runtime:sf_runtime.dll
 0001:00390612       sf_mex_setcell             0000000180391612 f   sf_runtime:sf_runtime.dll
 0001:00390618       sf_mex_createcellmatrix    0000000180391618 f   sf_runtime:sf_runtime.dll
 0001:0039061e       sf_mex_decode_encoded_mx_struct_array 000000018039161e f   sf_runtime:sf_runtime.dll
 0001:00390624       sf_mex_destroy             0000000180391624 f   sf_runtime:sf_runtime.dll
 0001:0039062a       sf_mex_getcell             000000018039162a f   sf_runtime:sf_runtime.dll
 0001:00390630       sf_mex_dup                 0000000180391630 f   sf_runtime:sf_runtime.dll
 0001:00390636       sf_mex_import              0000000180391636 f   sf_runtime:sf_runtime.dll
 0001:0039063c       sf_set_rtw_dwork_info      000000018039163c f   sf_runtime:sf_runtime.dll
 0001:00390642       sf_mark_chart_reusable_outputs 0000000180391642 f   sf_runtime:sf_runtime.dll
 0001:00390648       sf_mark_chart_expressionable_inputs 0000000180391648 f   sf_runtime:sf_runtime.dll
 0001:0039064e       sf_update_buildInfo        000000018039164e f   sf_runtime:sf_runtime.dll
 0001:00390654       sf_rtw_info_uint_prop      0000000180391654 f   sf_runtime:sf_runtime.dll
 0001:0039065a       sf_is_chart_inlinable      000000018039165a f   sf_runtime:sf_runtime.dll
 0001:00390660       sim_mode_is_external       0000000180391660 f   sf_runtime:sf_runtime.dll
 0001:00390666       sim_mode_is_rtw_gen        0000000180391666 f   sf_runtime:sf_runtime.dll
 0001:0039066c       sf_debug_reset_current_state_configuration 000000018039166c f   sf_runtime:sf_runtime.dll
 0001:00390672       sf_debug_set_instance_data_value_ptr 0000000180391672 f   sf_runtime:sf_runtime.dll
 0001:00390678       sf_debug_set_chart_data_compiled_props 0000000180391678 f   sf_runtime:sf_runtime.dll
 0001:0039067e       cv_eml_init_if             000000018039167e f   sf_runtime:sf_runtime.dll
 0001:00390684       cv_eml_init_fcn            0000000180391684 f   sf_runtime:sf_runtime.dll
 0001:0039068a       cv_eml_init_script         000000018039168a f   sf_runtime:sf_runtime.dll
 0001:00390690       sf_debug_cv_init_trans     0000000180391690 f   sf_runtime:sf_runtime.dll
 0001:00390696       sf_debug_cv_init_state     0000000180391696 f   sf_runtime:sf_runtime.dll
 0001:0039069c       sf_debug_cv_init_chart     000000018039169c f   sf_runtime:sf_runtime.dll
 0001:003906a2       sf_debug_set_chart_decomposition 00000001803916a2 f   sf_runtime:sf_runtime.dll
 0001:003906a8       sf_debug_set_chart_substate_count 00000001803916a8 f   sf_runtime:sf_runtime.dll
 0001:003906ae       sf_debug_set_chart_state_info 00000001803916ae f   sf_runtime:sf_runtime.dll
 0001:003906b4       sf_debug_set_chart_data_props 00000001803916b4 f   sf_runtime:sf_runtime.dll
 0001:003906ba       sf_debug_set_chart_event_thresholds 00000001803916ba f   sf_runtime:sf_runtime.dll
 0001:003906c0       sf_debug_set_chart_disable_implicit_casting 00000001803916c0 f   sf_runtime:sf_runtime.dll
 0001:003906c6       sf_debug_initialize_chart  00000001803916c6 f   sf_runtime:sf_runtime.dll
 0001:003906cc       sf_get_time                00000001803916cc f   sf_runtime:sf_runtime.dll
 0001:003906d2       sf_debug_check_for_state_inconsistency 00000001803916d2 f   sf_runtime:sf_runtime.dll
 0001:003906d8       sf_debug_symbol_scope_pop  00000001803916d8 f   sf_runtime:sf_runtime.dll
 0001:003906de       eml_debug_line_call        00000001803916de f   sf_runtime:sf_runtime.dll
 0001:003906e4       cv_eml_eval                00000001803916e4 f   sf_runtime:sf_runtime.dll
 0001:003906ea       sf_debug_symbol_scope_add_eml 00000001803916ea f   sf_runtime:sf_runtime.dll
 0001:003906f0       sf_debug_symbol_scope_add_eml_importable 00000001803916f0 f   sf_runtime:sf_runtime.dll
 0001:003906f6       sf_debug_symbol_scope_push_eml 00000001803916f6 f   sf_runtime:sf_runtime.dll
 0001:003906fc       sf_debug_data_range_wrapper 00000001803916fc f   sf_runtime:sf_runtime.dll
 0001:00390702       sf_debug_call              0000000180391702 f   sf_runtime:sf_runtime.dll
 0001:00390708       sf_debug_symbol_scope_push 0000000180391708 f   sf_runtime:sf_runtime.dll
 0001:0039070e       sf_clear_rtw_identifier    000000018039170e f   sf_runtime:sf_runtime.dll
 0001:00390714       sf_mex_emlrtNameCapturePostProcessR2012a 0000000180391714 f   sf_runtime:sf_runtime.dll
 0001:0039071a       sf_mex_createstruct        000000018039171a f   sf_runtime:sf_runtime.dll
 0001:00390720       sf_mex_duplicatearraysafe  0000000180391720 f   sf_runtime:sf_runtime.dll
 0001:00390726       sf_mex_addfield            0000000180391726 f   sf_runtime:sf_runtime.dll
 0001:0039072c       cv_eml_init_mcdc           000000018039172c f   sf_runtime:sf_runtime.dll
 0001:00390732       cv_eml_init_saturation     0000000180391732 f   sf_runtime:sf_runtime.dll
 0001:00390738       cv_eval_saturation         0000000180391738 f   sf_runtime:sf_runtime.dll
 0001:0039073e       sf_debug_terminate         000000018039173e f   sf_runtime:sf_runtime.dll
 0001:00390744       sf_debug_create_debug_instance_struct 0000000180391744 f   sf_runtime:sf_runtime.dll
 0001:0039074a       sf_debug_api               000000018039174a f   sf_runtime:sf_runtime.dll
 0001:00390750       callMdlMethodAndReportError 0000000180391750 f   sf_runtime:sf_runtime.dll
 0001:00390756       call_sf_machine_global_method_dispatcher 0000000180391756 f   sf_runtime:sf_runtime.dll
 0001:0039075c       sf_clear_error_manager_info 000000018039175c f   sf_runtime:sf_runtime.dll
 0001:00390762       sf_mex_error_direct_call   0000000180391762 f   sf_runtime:sf_runtime.dll
 0001:00390768       mxGetScalar                0000000180391768 f   libmx:libmx.dll
 0001:0039076e       mxGetPr                    000000018039176e f   libmx:libmx.dll
 0001:00390774       mxCreateDoubleMatrix_730   0000000180391774 f   libmx:libmx.dll
 0001:0039077a       mxGetString_730            000000018039177a f   libmx:libmx.dll
 0001:00390780       mxIsChar                   0000000180391780 f   libmx:libmx.dll
 0001:00390786       mxDestroyArray             0000000180391786 f   libmx:libmx.dll
 0001:0039078c       mxDuplicateArray           000000018039178c f   libmx:libmx.dll
 0001:00390792       mxCreateDoubleScalar       0000000180391792 f   libmx:libmx.dll
 0001:00390798       mxSetField_730             0000000180391798 f   libmx:libmx.dll
 0001:0039079e       mxCreateString             000000018039179e f   libmx:libmx.dll
 0001:003907a4       mxCreateStructMatrix_730   00000001803917a4 f   libmx:libmx.dll
 0001:003907aa       mxCreateCellMatrix_730     00000001803917aa f   libmx:libmx.dll
 0001:003907b0       mxGetClassID               00000001803917b0 f   libmx:libmx.dll
 0001:003907b6       mxIsNumeric                00000001803917b6 f   libmx:libmx.dll
 0001:003907bc       mxIsComplex                00000001803917bc f   libmx:libmx.dll
 0001:003907c2       mxGetN                     00000001803917c2 f   libmx:libmx.dll
 0001:003907c8       mxGetM                     00000001803917c8 f   libmx:libmx.dll
 0001:003907ce       mxCalloc                   00000001803917ce f   libmx:libmx.dll
 0001:003907d4       mexMakeArrayPersistent     00000001803917d4 f   libmex:libmex.dll
 0001:003907da       mexUnlock                  00000001803917da f   libmex:libmex.dll
 0001:003907e0       mexIsLocked                00000001803917e0 f   libmex:libmex.dll
 0001:003907e6       mexWarnMsgTxt              00000001803917e6 f   libmex:libmex.dll
 0001:003907ec       mexCallMATLAB              00000001803917ec f   libmex:libmex.dll
 0001:003907f2       mexErrMsgTxt               00000001803917f2 f   libmex:libmex.dll
 0001:003907f8       mexLock                    00000001803917f8 f   libmex:libmex.dll
 0001:003907fe       utMalloc                   00000001803917fe f   libut:libut.dll
 0001:00390804       utFree                     0000000180391804 f   libut:libut.dll
 0001:0039080a       muDoubleScalarIsNaN        000000018039180a f   libmwmathutil:libmwmathutil.dll
 0001:00390810       muSingleScalarIsNaN        0000000180391810 f   libmwmathutil:libmwmathutil.dll
 0001:00390816       muSingleScalarMin          0000000180391816 f   libmwmathutil:libmwmathutil.dll
 0001:0039081c       muDoubleScalarFloor        000000018039181c f   libmwmathutil:libmwmathutil.dll
 0001:00390822       muDoubleScalarAbs          0000000180391822 f   libmwmathutil:libmwmathutil.dll
 0001:00390828       muDoubleScalarRound        0000000180391828 f   libmwmathutil:libmwmathutil.dll
 0001:0039082e       muDoubleScalarSin          000000018039182e f   libmwmathutil:libmwmathutil.dll
 0001:00390834       muDoubleScalarCos          0000000180391834 f   libmwmathutil:libmwmathutil.dll
 0001:0039083c       __GSHandlerCheckCommon     000000018039183c f   MSVCRT:gshandler.obj
 0001:003908a0       __GSHandlerCheck           00000001803918a0 f   MSVCRT:gshandler.obj
 0001:003908be       strcmp                     00000001803918be f   MSVCRT:MSVCR100.dll
 0001:003908e0       __security_check_cookie    00000001803918e0 f   MSVCRT:amdsecgs.obj
 0001:00390900       memset                     0000000180391900 f   MSVCRT:MSVCR100.dll
 0001:00390906       strlen                     0000000180391906 f   MSVCRT:MSVCR100.dll
 0001:00390920       _alloca_probe              0000000180391920     MSVCRT:chkstk.obj
 0001:00390920       __chkstk                   0000000180391920 f   MSVCRT:chkstk.obj
 0001:0039096e       memcpy                     000000018039196e f   MSVCRT:MSVCR100.dll
 0001:00390974       free                       0000000180391974 f   MSVCRT:MSVCR100.dll
 0001:0039097a       sprintf                    000000018039197a f   MSVCRT:MSVCR100.dll
 0001:00390980       malloc                     0000000180391980 f   MSVCRT:MSVCR100.dll
 0001:00390986       strcat                     0000000180391986 f   MSVCRT:MSVCR100.dll
 0001:0039098c       NtCurrentTeb               000000018039198c f i MSVCRT:crtdll.obj
 0001:003909f8       _CRT_INIT                  00000001803919f8 f   MSVCRT:crtdll.obj
 0001:00390d90       _DllMainCRTStartup         0000000180391d90 f   MSVCRT:crtdll.obj
 0001:00390dd0       __report_gsfailure         0000000180391dd0 f   MSVCRT:gs_report.obj
 0001:00390f1c       __clean_type_info_names    0000000180391f1c f   MSVCRT:tncleanup.obj
 0001:00390f28       _onexit                    0000000180391f28 f   MSVCRT:atonexit.obj
 0001:00390fd8       atexit                     0000000180391fd8 f   MSVCRT:atonexit.obj
 0001:00390ff0       _RTC_Initialize            0000000180391ff0 f   MSVCRT:_initsect_.obj
 0001:00391028       _RTC_Terminate             0000000180392028 f   MSVCRT:_initsect_.obj
 0001:00391060       _malloc_crt                0000000180392060 f   MSVCRT:MSVCR100.dll
 0001:00391070       _ValidateImageBase         0000000180392070 f   MSVCRT:pesect.obj
 0001:003910a0       _FindPESection             00000001803920a0 f   MSVCRT:pesect.obj
 0001:003910f0       _IsNonwritableInCurrentImage 00000001803920f0 f   MSVCRT:pesect.obj
 0001:00391132       _initterm                  0000000180392132 f   MSVCRT:MSVCR100.dll
 0001:00391138       _initterm_e                0000000180392138 f   MSVCRT:MSVCR100.dll
 0001:0039113e       _encoded_null              000000018039213e f   MSVCRT:MSVCR100.dll
 0001:00391144       _amsg_exit                 0000000180392144 f   MSVCRT:MSVCR100.dll
 0001:0039114a       __C_specific_handler       000000018039214a f   MSVCRT:MSVCR100.dll
 0001:00391150       __CppXcptFilter            0000000180392150 f   MSVCRT:MSVCR100.dll
 0001:00391158       DllMain                    0000000180392158 f   MSVCRT:dllmain.obj
 0001:0039117c       __security_init_cookie     000000018039217c f   MSVCRT:gs_support.obj
 0001:00391230       __crt_debugger_hook        0000000180392230 f   MSVCRT:MSVCR100.dll
 0001:00391236       __clean_type_info_names_internal 0000000180392236 f   MSVCRT:MSVCR100.dll
 0001:0039123c       _unlock                    000000018039223c f   MSVCRT:MSVCR100.dll
 0001:00391242       __dllonexit                0000000180392242 f   MSVCRT:MSVCR100.dll
 0001:00391248       _lock                      0000000180392248 f   MSVCRT:MSVCR100.dll
 0001:0039124e       EncodePointer              000000018039224e f   kernel32:KERNEL32.dll
 0001:00391254       DecodePointer              0000000180392254 f   kernel32:KERNEL32.dll
 0001:0039125a       Sleep                      000000018039225a f   kernel32:KERNEL32.dll
 0001:00391260       TerminateProcess           0000000180392260 f   kernel32:KERNEL32.dll
 0001:00391266       GetCurrentProcess          0000000180392266 f   kernel32:KERNEL32.dll
 0001:0039126c       UnhandledExceptionFilter   000000018039226c f   kernel32:KERNEL32.dll
 0001:00391272       SetUnhandledExceptionFilter 0000000180392272 f   kernel32:KERNEL32.dll
 0001:00391278       IsDebuggerPresent          0000000180392278 f   kernel32:KERNEL32.dll
 0001:0039127e       RtlVirtualUnwind           000000018039227e f   kernel32:KERNEL32.dll
 0001:00391284       RtlLookupFunctionEntry     0000000180392284 f   kernel32:KERNEL32.dll
 0001:0039128a       RtlCaptureContext          000000018039228a f   kernel32:KERNEL32.dll
 0001:00391290       DisableThreadLibraryCalls  0000000180392290 f   kernel32:KERNEL32.dll
 0001:00391296       QueryPerformanceCounter    0000000180392296 f   kernel32:KERNEL32.dll
 0001:0039129c       GetTickCount               000000018039229c f   kernel32:KERNEL32.dll
 0001:003912a2       GetCurrentThreadId         00000001803922a2 f   kernel32:KERNEL32.dll
 0001:003912a8       GetCurrentProcessId        00000001803922a8 f   kernel32:KERNEL32.dll
 0001:003912ae       GetSystemTimeAsFileTime    00000001803922ae f   kernel32:KERNEL32.dll
 0002:00000000       __imp_GetSystemTimeAsFileTime 0000000180393000     kernel32:KERNEL32.dll
 0002:00000008       __imp_GetCurrentProcessId  0000000180393008     kernel32:KERNEL32.dll
 0002:00000010       __imp_GetCurrentThreadId   0000000180393010     kernel32:KERNEL32.dll
 0002:00000018       __imp_GetTickCount         0000000180393018     kernel32:KERNEL32.dll
 0002:00000020       __imp_QueryPerformanceCounter 0000000180393020     kernel32:KERNEL32.dll
 0002:00000028       __imp_DisableThreadLibraryCalls 0000000180393028     kernel32:KERNEL32.dll
 0002:00000030       __imp_RtlCaptureContext    0000000180393030     kernel32:KERNEL32.dll
 0002:00000038       __imp_RtlLookupFunctionEntry 0000000180393038     kernel32:KERNEL32.dll
 0002:00000040       __imp_RtlVirtualUnwind     0000000180393040     kernel32:KERNEL32.dll
 0002:00000048       __imp_IsDebuggerPresent    0000000180393048     kernel32:KERNEL32.dll
 0002:00000050       __imp_SetUnhandledExceptionFilter 0000000180393050     kernel32:KERNEL32.dll
 0002:00000058       __imp_UnhandledExceptionFilter 0000000180393058     kernel32:KERNEL32.dll
 0002:00000060       __imp_GetCurrentProcess    0000000180393060     kernel32:KERNEL32.dll
 0002:00000068       __imp_TerminateProcess     0000000180393068     kernel32:KERNEL32.dll
 0002:00000070       __imp_Sleep                0000000180393070     kernel32:KERNEL32.dll
 0002:00000078       __imp_DecodePointer        0000000180393078     kernel32:KERNEL32.dll
 0002:00000080       __imp_EncodePointer        0000000180393080     kernel32:KERNEL32.dll
 0002:00000088       \177KERNEL32_NULL_THUNK_DATA 0000000180393088     kernel32:KERNEL32.dll
 0002:00000090       __imp__onexit              0000000180393090     MSVCRT:MSVCR100.dll
 0002:00000098       __imp__lock                0000000180393098     MSVCRT:MSVCR100.dll
 0002:000000a0       __imp___dllonexit          00000001803930a0     MSVCRT:MSVCR100.dll
 0002:000000a8       __imp__unlock              00000001803930a8     MSVCRT:MSVCR100.dll
 0002:000000b0       __imp___clean_type_info_names_internal 00000001803930b0     MSVCRT:MSVCR100.dll
 0002:000000b8       __imp___crt_debugger_hook  00000001803930b8     MSVCRT:MSVCR100.dll
 0002:000000c0       __imp___CppXcptFilter      00000001803930c0     MSVCRT:MSVCR100.dll
 0002:000000c8       __imp___C_specific_handler 00000001803930c8     MSVCRT:MSVCR100.dll
 0002:000000d0       __imp__amsg_exit           00000001803930d0     MSVCRT:MSVCR100.dll
 0002:000000d8       __imp__encoded_null        00000001803930d8     MSVCRT:MSVCR100.dll
 0002:000000e0       __imp__initterm_e          00000001803930e0     MSVCRT:MSVCR100.dll
 0002:000000e8       __imp__initterm            00000001803930e8     MSVCRT:MSVCR100.dll
 0002:000000f0       __imp__malloc_crt          00000001803930f0     MSVCRT:MSVCR100.dll
 0002:000000f8       __imp_strcat               00000001803930f8     MSVCRT:MSVCR100.dll
 0002:00000100       __imp_malloc               0000000180393100     MSVCRT:MSVCR100.dll
 0002:00000108       __imp_sprintf              0000000180393108     MSVCRT:MSVCR100.dll
 0002:00000110       __imp_free                 0000000180393110     MSVCRT:MSVCR100.dll
 0002:00000118       __imp_memcpy               0000000180393118     MSVCRT:MSVCR100.dll
 0002:00000120       __imp_strlen               0000000180393120     MSVCRT:MSVCR100.dll
 0002:00000128       __imp_memset               0000000180393128     MSVCRT:MSVCR100.dll
 0002:00000130       __imp_strcmp               0000000180393130     MSVCRT:MSVCR100.dll
 0002:00000138       \177MSVCR100_NULL_THUNK_DATA 0000000180393138     MSVCRT:MSVCR100.dll
 0002:00000140       __imp_mexMakeArrayPersistent 0000000180393140     libmex:libmex.dll
 0002:00000148       __imp_mexIsLocked          0000000180393148     libmex:libmex.dll
 0002:00000150       __imp_mexWarnMsgTxt        0000000180393150     libmex:libmex.dll
 0002:00000158       __imp_mexCallMATLAB        0000000180393158     libmex:libmex.dll
 0002:00000160       __imp_mexErrMsgTxt         0000000180393160     libmex:libmex.dll
 0002:00000168       __imp_mexLock              0000000180393168     libmex:libmex.dll
 0002:00000170       __imp_mexUnlock            0000000180393170     libmex:libmex.dll
 0002:00000178       \177libmex_NULL_THUNK_DATA 0000000180393178     libmex:libmex.dll
 0002:00000180       __imp_muSingleScalarMin    0000000180393180     libmwmathutil:libmwmathutil.dll
 0002:00000188       __imp_muDoubleScalarFloor  0000000180393188     libmwmathutil:libmwmathutil.dll
 0002:00000190       __imp_muDoubleScalarAbs    0000000180393190     libmwmathutil:libmwmathutil.dll
 0002:00000198       __imp_muDoubleScalarRound  0000000180393198     libmwmathutil:libmwmathutil.dll
 0002:000001a0       __imp_muDoubleScalarSin    00000001803931a0     libmwmathutil:libmwmathutil.dll
 0002:000001a8       __imp_muDoubleScalarCos    00000001803931a8     libmwmathutil:libmwmathutil.dll
 0002:000001b0       __imp_muDoubleScalarIsNaN  00000001803931b0     libmwmathutil:libmwmathutil.dll
 0002:000001b8       __imp_muSingleScalarIsNaN  00000001803931b8     libmwmathutil:libmwmathutil.dll
 0002:000001c0       \177libmwmathutil_NULL_THUNK_DATA 00000001803931c0     libmwmathutil:libmwmathutil.dll
 0002:000001c8       __imp_mxCalloc             00000001803931c8     libmx:libmx.dll
 0002:000001d0       __imp_mxGetM               00000001803931d0     libmx:libmx.dll
 0002:000001d8       __imp_mxGetN               00000001803931d8     libmx:libmx.dll
 0002:000001e0       __imp_mxIsComplex          00000001803931e0     libmx:libmx.dll
 0002:000001e8       __imp_mxIsNumeric          00000001803931e8     libmx:libmx.dll
 0002:000001f0       __imp_mxGetClassID         00000001803931f0     libmx:libmx.dll
 0002:000001f8       __imp_mxCreateCellMatrix_730 00000001803931f8     libmx:libmx.dll
 0002:00000200       __imp_mxCreateStructMatrix_730 0000000180393200     libmx:libmx.dll
 0002:00000208       __imp_mxGetScalar          0000000180393208     libmx:libmx.dll
 0002:00000210       __imp_mxGetPr              0000000180393210     libmx:libmx.dll
 0002:00000218       __imp_mxCreateDoubleMatrix_730 0000000180393218     libmx:libmx.dll
 0002:00000220       __imp_mxGetString_730      0000000180393220     libmx:libmx.dll
 0002:00000228       __imp_mxIsChar             0000000180393228     libmx:libmx.dll
 0002:00000230       __imp_mxDestroyArray       0000000180393230     libmx:libmx.dll
 0002:00000238       __imp_mxDuplicateArray     0000000180393238     libmx:libmx.dll
 0002:00000240       __imp_mxCreateDoubleScalar 0000000180393240     libmx:libmx.dll
 0002:00000248       __imp_mxSetField_730       0000000180393248     libmx:libmx.dll
 0002:00000250       __imp_mxCreateString       0000000180393250     libmx:libmx.dll
 0002:00000258       \177libmx_NULL_THUNK_DATA  0000000180393258     libmx:libmx.dll
 0002:00000260       __imp_utMalloc             0000000180393260     libut:libut.dll
 0002:00000268       __imp_utFree               0000000180393268     libut:libut.dll
 0002:00000270       \177libut_NULL_THUNK_DATA  0000000180393270     libut:libut.dll
 0002:00000278       __imp_call_sf_machine_global_method_dispatcher 0000000180393278     sf_runtime:sf_runtime.dll
 0002:00000280       __imp_callMdlMethodAndReportError 0000000180393280     sf_runtime:sf_runtime.dll
 0002:00000288       __imp_sf_debug_api         0000000180393288     sf_runtime:sf_runtime.dll
 0002:00000290       __imp_sf_debug_create_debug_instance_struct 0000000180393290     sf_runtime:sf_runtime.dll
 0002:00000298       __imp_sf_debug_terminate   0000000180393298     sf_runtime:sf_runtime.dll
 0002:000002a0       __imp_cv_eval_saturation   00000001803932a0     sf_runtime:sf_runtime.dll
 0002:000002a8       __imp_sf_clear_error_manager_info 00000001803932a8     sf_runtime:sf_runtime.dll
 0002:000002b0       __imp_cv_eml_init_mcdc     00000001803932b0     sf_runtime:sf_runtime.dll
 0002:000002b8       __imp_sf_mex_addfield      00000001803932b8     sf_runtime:sf_runtime.dll
 0002:000002c0       __imp_sf_mex_duplicatearraysafe 00000001803932c0     sf_runtime:sf_runtime.dll
 0002:000002c8       __imp_sf_mex_createstruct  00000001803932c8     sf_runtime:sf_runtime.dll
 0002:000002d0       __imp_sf_mex_emlrtNameCapturePostProcessR2012a 00000001803932d0     sf_runtime:sf_runtime.dll
 0002:000002d8       __imp_sf_clear_rtw_identifier 00000001803932d8     sf_runtime:sf_runtime.dll
 0002:000002e0       __imp_sf_debug_symbol_scope_push 00000001803932e0     sf_runtime:sf_runtime.dll
 0002:000002e8       __imp_sf_mex_error_direct_call 00000001803932e8     sf_runtime:sf_runtime.dll
 0002:000002f0       __imp_cv_eml_init_saturation 00000001803932f0     sf_runtime:sf_runtime.dll
 0002:000002f8       __imp_sf_debug_call        00000001803932f8     sf_runtime:sf_runtime.dll
 0002:00000300       __imp_sf_debug_data_range_wrapper 0000000180393300     sf_runtime:sf_runtime.dll
 0002:00000308       __imp_sf_debug_symbol_scope_push_eml 0000000180393308     sf_runtime:sf_runtime.dll
 0002:00000310       __imp_sf_debug_symbol_scope_add_eml_importable 0000000180393310     sf_runtime:sf_runtime.dll
 0002:00000318       __imp_sf_debug_symbol_scope_add_eml 0000000180393318     sf_runtime:sf_runtime.dll
 0002:00000320       __imp_cv_eml_eval          0000000180393320     sf_runtime:sf_runtime.dll
 0002:00000328       __imp_eml_debug_line_call  0000000180393328     sf_runtime:sf_runtime.dll
 0002:00000330       __imp_sf_debug_symbol_scope_pop 0000000180393330     sf_runtime:sf_runtime.dll
 0002:00000338       __imp_sf_debug_check_for_state_inconsistency 0000000180393338     sf_runtime:sf_runtime.dll
 0002:00000340       __imp_sf_get_time          0000000180393340     sf_runtime:sf_runtime.dll
 0002:00000348       __imp_sf_debug_initialize_chart 0000000180393348     sf_runtime:sf_runtime.dll
 0002:00000350       __imp_sf_debug_set_chart_disable_implicit_casting 0000000180393350     sf_runtime:sf_runtime.dll
 0002:00000358       __imp_sf_debug_set_chart_event_thresholds 0000000180393358     sf_runtime:sf_runtime.dll
 0002:00000360       __imp_sf_debug_set_chart_data_props 0000000180393360     sf_runtime:sf_runtime.dll
 0002:00000368       __imp_sf_debug_set_chart_state_info 0000000180393368     sf_runtime:sf_runtime.dll
 0002:00000370       __imp_sf_debug_set_chart_substate_count 0000000180393370     sf_runtime:sf_runtime.dll
 0002:00000378       __imp_sf_debug_set_chart_decomposition 0000000180393378     sf_runtime:sf_runtime.dll
 0002:00000380       __imp_sf_debug_cv_init_chart 0000000180393380     sf_runtime:sf_runtime.dll
 0002:00000388       __imp_sf_debug_cv_init_state 0000000180393388     sf_runtime:sf_runtime.dll
 0002:00000390       __imp_sf_debug_cv_init_trans 0000000180393390     sf_runtime:sf_runtime.dll
 0002:00000398       __imp_cv_eml_init_script   0000000180393398     sf_runtime:sf_runtime.dll
 0002:000003a0       __imp_cv_eml_init_fcn      00000001803933a0     sf_runtime:sf_runtime.dll
 0002:000003a8       __imp_cv_eml_init_if       00000001803933a8     sf_runtime:sf_runtime.dll
 0002:000003b0       __imp_sf_debug_set_chart_data_compiled_props 00000001803933b0     sf_runtime:sf_runtime.dll
 0002:000003b8       __imp_sf_debug_set_instance_data_value_ptr 00000001803933b8     sf_runtime:sf_runtime.dll
 0002:000003c0       __imp_sf_debug_reset_current_state_configuration 00000001803933c0     sf_runtime:sf_runtime.dll
 0002:000003c8       __imp_sim_mode_is_rtw_gen  00000001803933c8     sf_runtime:sf_runtime.dll
 0002:000003d0       __imp_sim_mode_is_external 00000001803933d0     sf_runtime:sf_runtime.dll
 0002:000003d8       __imp_sf_is_chart_inlinable 00000001803933d8     sf_runtime:sf_runtime.dll
 0002:000003e0       __imp_sf_rtw_info_uint_prop 00000001803933e0     sf_runtime:sf_runtime.dll
 0002:000003e8       __imp_sf_update_buildInfo  00000001803933e8     sf_runtime:sf_runtime.dll
 0002:000003f0       __imp_sf_mark_chart_expressionable_inputs 00000001803933f0     sf_runtime:sf_runtime.dll
 0002:000003f8       __imp_sf_mark_chart_reusable_outputs 00000001803933f8     sf_runtime:sf_runtime.dll
 0002:00000400       __imp_sf_set_rtw_dwork_info 0000000180393400     sf_runtime:sf_runtime.dll
 0002:00000408       __imp_sf_mex_import        0000000180393408     sf_runtime:sf_runtime.dll
 0002:00000410       __imp_sf_mex_dup           0000000180393410     sf_runtime:sf_runtime.dll
 0002:00000418       __imp_sf_mex_getcell       0000000180393418     sf_runtime:sf_runtime.dll
 0002:00000420       __imp_sf_mex_destroy       0000000180393420     sf_runtime:sf_runtime.dll
 0002:00000428       __imp_sf_mex_decode_encoded_mx_struct_array 0000000180393428     sf_runtime:sf_runtime.dll
 0002:00000430       __imp_sf_mex_createcellmatrix 0000000180393430     sf_runtime:sf_runtime.dll
 0002:00000438       __imp_sf_mex_setcell       0000000180393438     sf_runtime:sf_runtime.dll
 0002:00000440       __imp_sf_mex_call_matlab   0000000180393440     sf_runtime:sf_runtime.dll
 0002:00000448       __imp_sf_mex_error_message 0000000180393448     sf_runtime:sf_runtime.dll
 0002:00000450       __imp_sf_mex_create        0000000180393450     sf_runtime:sf_runtime.dll
 0002:00000458       __imp_sf_mex_assign        0000000180393458     sf_runtime:sf_runtime.dll
 0002:00000460       __imp_sf_load_rtw_optimization_info 0000000180393460     sf_runtime:sf_runtime.dll
 0002:00000468       __imp_sf_debug_initialize_machine 0000000180393468     sf_runtime:sf_runtime.dll
 0002:00000470       __imp_sf_debug_set_machine_event_thresholds 0000000180393470     sf_runtime:sf_runtime.dll
 0002:00000478       __imp_sf_debug_set_machine_data_thresholds 0000000180393478     sf_runtime:sf_runtime.dll
 0002:00000480       \177sf_runtime_NULL_THUNK_DATA 0000000180393480     sf_runtime:sf_runtime.dll
 0002:00000488       __xc_a                     0000000180393488     MSVCRT:cinitexe.obj
 0002:00000490       __xc_z                     0000000180393490     MSVCRT:cinitexe.obj
 0002:00000498       __xi_a                     0000000180393498     MSVCRT:cinitexe.obj
 0002:000004a8       __xi_z                     00000001803934a8     MSVCRT:cinitexe.obj
 0002:000004b0       __real@41d7e50af9c00000    00000001803934b0     six_plus_six_AcmsteeringV09_main_2lflm_sfun.obj
 0002:000004b8       __real@41a927897e000000    00000001803934b8     six_plus_six_AcmsteeringV09_main_2lflm_sfun.obj
 0002:000004c0       __real@41d1fb65f9400000    00000001803934c0     six_plus_six_AcmsteeringV09_main_2lflm_sfun.obj
 0002:000004c8       __real@41be4d0337000000    00000001803934c8     six_plus_six_AcmsteeringV09_main_2lflm_sfun.obj
 0002:000004d0       __real@41c8d9806a800000    00000001803934d0     six_plus_six_AcmsteeringV09_main_2lflm_sfun.obj
 0002:000004d8       __real@41d1f38be6c00000    00000001803934d8     six_plus_six_AcmsteeringV09_main_2lflm_sfun.obj
 0002:000004e0       __real@41e341355f400000    00000001803934e0     six_plus_six_AcmsteeringV09_main_2lflm_sfun.obj
 0002:000004e8       __real@41b03b3216000000    00000001803934e8     six_plus_six_AcmsteeringV09_main_2lflm_sfun.obj
 0002:000004f0       __real@41ede72813c00000    00000001803934f0     six_plus_six_AcmsteeringV09_main_2lflm_sfun.obj
 0002:000004f8       __real@41d8025641c00000    00000001803934f8     six_plus_six_AcmsteeringV09_main_2lflm_sfun.obj
 0002:00000500       __real@41db045df3000000    0000000180393500     six_plus_six_AcmsteeringV09_main_2lflm_sfun.obj
 0002:00000508       __real@41d8ea401d800000    0000000180393508     six_plus_six_AcmsteeringV09_main_2lflm_sfun.obj
 0002:00000510       __real@41d9a5349f800000    0000000180393510     six_plus_six_AcmsteeringV09_main_2lflm_sfun.obj
 0002:00000518       __real@41bf182f04000000    0000000180393518     six_plus_six_AcmsteeringV09_main_2lflm_sfun.obj
 0002:00000520       __real@41ee325ac9400000    0000000180393520     six_plus_six_AcmsteeringV09_main_2lflm_sfun.obj
 0002:00000528       __real@41b04d0fd8000000    0000000180393528     six_plus_six_AcmsteeringV09_main_2lflm_sfun.obj
 0002:00000530       __real@41c242d71c000000    0000000180393530     c1_six_plus_six_AcmsteeringV09_main_2lflm.obj
 0002:00000538       __real@41d4032899800000    0000000180393538     c1_six_plus_six_AcmsteeringV09_main_2lflm.obj
 0002:00000540       __real@4172788ab0000000    0000000180393540     c1_six_plus_six_AcmsteeringV09_main_2lflm.obj
 0002:00000548       __real@41ac3f2346000000    0000000180393548     c1_six_plus_six_AcmsteeringV09_main_2lflm.obj
 0002:00000550       __real@4022000000000000    0000000180393550     c1_six_plus_six_AcmsteeringV09_main_2lflm.obj
 0002:00000558       __real@3ff0000000000000    0000000180393558     c1_six_plus_six_AcmsteeringV09_main_2lflm.obj
 0002:00000560       __real@437f0000            0000000180393560     c1_six_plus_six_AcmsteeringV09_main_2lflm.obj
 0002:00000564       __real@3f800000            0000000180393564     c1_six_plus_six_AcmsteeringV09_main_2lflm.obj
 0002:00000568       __real@41d30cff97000000    0000000180393568     c2_six_plus_six_AcmsteeringV09_main_2lflm.obj
 0002:00000570       __real@41e7ae5242800000    0000000180393570     c2_six_plus_six_AcmsteeringV09_main_2lflm.obj
 0002:00000578       __real@41d3790021800000    0000000180393578     c2_six_plus_six_AcmsteeringV09_main_2lflm.obj
 0002:00000580       __real@41e51830cde00000    0000000180393580     c2_six_plus_six_AcmsteeringV09_main_2lflm.obj
 0002:00000588       __real@40000000            0000000180393588     c2_six_plus_six_AcmsteeringV09_main_2lflm.obj
 0002:0000058c       __real@3f6ccccd            000000018039358c     c2_six_plus_six_AcmsteeringV09_main_2lflm.obj
 0002:00000590       __real@3e19999a            0000000180393590     c2_six_plus_six_AcmsteeringV09_main_2lflm.obj
 0002:00000598       __real@4018000000000000    0000000180393598     c2_six_plus_six_AcmsteeringV09_main_2lflm.obj
 0002:000005a0       __real@41d41d8e08400000    00000001803935a0     c4_six_plus_six_AcmsteeringV09_main_2lflm.obj
 0002:000005a8       __real@41cf3fe43a000000    00000001803935a8     c4_six_plus_six_AcmsteeringV09_main_2lflm.obj
 0002:000005b0       __real@41e5559ce6000000    00000001803935b0     c4_six_plus_six_AcmsteeringV09_main_2lflm.obj
 0002:000005b8       __real@416e0a25e0000000    00000001803935b8     c4_six_plus_six_AcmsteeringV09_main_2lflm.obj
 0002:000005c0       __real@40800000            00000001803935c0     c4_six_plus_six_AcmsteeringV09_main_2lflm.obj
 0002:000005c4       __real@00000000            00000001803935c4     c4_six_plus_six_AcmsteeringV09_main_2lflm.obj
 0002:000005c8       __real@4024000000000000    00000001803935c8     c4_six_plus_six_AcmsteeringV09_main_2lflm.obj
 0002:000005d0       __real@41d33b0218c00000    00000001803935d0     c5_six_plus_six_AcmsteeringV09_main_2lflm.obj
 0002:000005d8       __real@41e6fdf7d8c00000    00000001803935d8     c5_six_plus_six_AcmsteeringV09_main_2lflm.obj
 0002:000005e0       __real@41934efc78000000    00000001803935e0     c5_six_plus_six_AcmsteeringV09_main_2lflm.obj
 0002:000005e8       __real@41c311566d800000    00000001803935e8     c5_six_plus_six_AcmsteeringV09_main_2lflm.obj
 0002:000005f0       __real@40666666            00000001803935f0     c5_six_plus_six_AcmsteeringV09_main_2lflm.obj
 0002:000005f8       __real@4000000000000000    00000001803935f8     c5_six_plus_six_AcmsteeringV09_main_2lflm.obj
 0002:00000600       __real@41ec88c7aba00000    0000000180393600     c6_six_plus_six_AcmsteeringV09_main_2lflm.obj
 0002:00000608       __real@41d948fd19800000    0000000180393608     c6_six_plus_six_AcmsteeringV09_main_2lflm.obj
 0002:00000610       __real@41cb75581d800000    0000000180393610     c6_six_plus_six_AcmsteeringV09_main_2lflm.obj
 0002:00000618       __real@41c8fab23e800000    0000000180393618     c6_six_plus_six_AcmsteeringV09_main_2lflm.obj
 0002:00000620       __real@40efffe000000000    0000000180393620     c6_six_plus_six_AcmsteeringV09_main_2lflm.obj
 0002:00000628       __real@40e0000000000000    0000000180393628     c6_six_plus_six_AcmsteeringV09_main_2lflm.obj
 0002:00000630       __real@41ec602fef200000    0000000180393630     c8_six_plus_six_AcmsteeringV09_main_2lflm.obj
 0002:00000638       __real@41d49abddb800000    0000000180393638     c8_six_plus_six_AcmsteeringV09_main_2lflm.obj
 0002:00000640       __real@41ef06b5fb200000    0000000180393640     c8_six_plus_six_AcmsteeringV09_main_2lflm.obj
 0002:00000648       __real@41ec986085e00000    0000000180393648     c8_six_plus_six_AcmsteeringV09_main_2lflm.obj
 0002:00000650       __mask@@NegDouble@         0000000180393650     c8_six_plus_six_AcmsteeringV09_main_2lflm.obj
 0002:00000660       __real@4014000000000000    0000000180393660     c8_six_plus_six_AcmsteeringV09_main_2lflm.obj
 0002:00000668       __real@41daed5e48c00000    0000000180393668     c9_six_plus_six_AcmsteeringV09_main_2lflm.obj
 0002:00000670       __real@41cd9962c1000000    0000000180393670     c9_six_plus_six_AcmsteeringV09_main_2lflm.obj
 0002:00000678       __real@41e21f1c01600000    0000000180393678     c9_six_plus_six_AcmsteeringV09_main_2lflm.obj
 0002:00000680       __real@41dfddc588000000    0000000180393680     c9_six_plus_six_AcmsteeringV09_main_2lflm.obj
 0002:00000688       __real@4010000000000000    0000000180393688     c9_six_plus_six_AcmsteeringV09_main_2lflm.obj
 0002:00000690       __real@40400000            0000000180393690     c9_six_plus_six_AcmsteeringV09_main_2lflm.obj
 0002:00000698       __real@0000000000000000    0000000180393698     c9_six_plus_six_AcmsteeringV09_main_2lflm.obj
 0002:000006a0       __real@4030000000000000    00000001803936a0     c9_six_plus_six_AcmsteeringV09_main_2lflm.obj
 0002:000006a8       __real@41e22b7d95e00000    00000001803936a8     c19_six_plus_six_AcmsteeringV09_main_2lflm.obj
 0002:000006b0       __real@41dcc4bd01c00000    00000001803936b0     c19_six_plus_six_AcmsteeringV09_main_2lflm.obj
 0002:000006b8       __real@41d778b099000000    00000001803936b8     c19_six_plus_six_AcmsteeringV09_main_2lflm.obj
 0002:000006c0       __real@41b871536d000000    00000001803936c0     c19_six_plus_six_AcmsteeringV09_main_2lflm.obj
 0002:000006c8       __real@41ef39169cc00000    00000001803936c8     c31_six_plus_six_AcmsteeringV09_main_2lflm.obj
 0002:000006d0       __real@41e3047c30400000    00000001803936d0     c31_six_plus_six_AcmsteeringV09_main_2lflm.obj
 0002:000006d8       __real@41dde0d7a1400000    00000001803936d8     c31_six_plus_six_AcmsteeringV09_main_2lflm.obj
 0002:000006e0       __real@41e1b6264b600000    00000001803936e0     c31_six_plus_six_AcmsteeringV09_main_2lflm.obj
 0002:000006e8       __real@42fa0000            00000001803936e8     c31_six_plus_six_AcmsteeringV09_main_2lflm.obj
 0002:000006ec       __real@43160000            00000001803936ec     c31_six_plus_six_AcmsteeringV09_main_2lflm.obj
 0002:000006f0       __real@46153400            00000001803936f0     c31_six_plus_six_AcmsteeringV09_main_2lflm.obj
 0002:000006f8       __real@4020000000000000    00000001803936f8     c31_six_plus_six_AcmsteeringV09_main_2lflm.obj
 0002:00000700       __real@4041000000000000    0000000180393700     c31_six_plus_six_AcmsteeringV09_main_2lflm.obj
 0002:00000708       __real@41e1198908200000    0000000180393708     c38_six_plus_six_AcmsteeringV09_main_2lflm.obj
 0002:00000710       __real@41ee890171e00000    0000000180393710     c38_six_plus_six_AcmsteeringV09_main_2lflm.obj
 0002:00000718       __real@41ccd4d6d4000000    0000000180393718     c38_six_plus_six_AcmsteeringV09_main_2lflm.obj
 0002:00000720       __real@41eeaafda2200000    0000000180393720     c38_six_plus_six_AcmsteeringV09_main_2lflm.obj
 0002:00000728       __real@4008000000000000    0000000180393728     c38_six_plus_six_AcmsteeringV09_main_2lflm.obj
 0002:00000730       __real@41e118ccb7e00000    0000000180393730     c44_six_plus_six_AcmsteeringV09_main_2lflm.obj
 0002:00000738       __real@41e2c5340e200000    0000000180393738     c44_six_plus_six_AcmsteeringV09_main_2lflm.obj
 0002:00000740       __real@41e75571c4c00000    0000000180393740     c44_six_plus_six_AcmsteeringV09_main_2lflm.obj
 0002:00000748       __real@41b04a26cd000000    0000000180393748     c44_six_plus_six_AcmsteeringV09_main_2lflm.obj
 0002:00000750       __real@41dc8f3582800000    0000000180393750     c49_six_plus_six_AcmsteeringV09_main_2lflm.obj
 0002:00000758       __real@41d446c28f000000    0000000180393758     c49_six_plus_six_AcmsteeringV09_main_2lflm.obj
 0002:00000760       __real@41dcc485c7800000    0000000180393760     c49_six_plus_six_AcmsteeringV09_main_2lflm.obj
 0002:00000768       __real@41e92426b9e00000    0000000180393768     c49_six_plus_six_AcmsteeringV09_main_2lflm.obj
 0002:00000770       __real@4031000000000000    0000000180393770     c49_six_plus_six_AcmsteeringV09_main_2lflm.obj
 0002:00000778       __real@4032000000000000    0000000180393778     c49_six_plus_six_AcmsteeringV09_main_2lflm.obj
 0002:00000780       __real@41e3b4a1ea800000    0000000180393780     c68_six_plus_six_AcmsteeringV09_main_2lflm.obj
 0002:00000788       __real@41e3af8096a00000    0000000180393788     c68_six_plus_six_AcmsteeringV09_main_2lflm.obj
 0002:00000790       __real@41e5c5c1cc000000    0000000180393790     c68_six_plus_six_AcmsteeringV09_main_2lflm.obj
 0002:00000798       __real@41629a3d20000000    0000000180393798     c68_six_plus_six_AcmsteeringV09_main_2lflm.obj
 0002:000007a0       __real@402c000000000000    00000001803937a0     c68_six_plus_six_AcmsteeringV09_main_2lflm.obj
 0002:000007a8       __real@41e828d813000000    00000001803937a8     c69_six_plus_six_AcmsteeringV09_main_2lflm.obj
 0002:000007b0       __real@41d4b70f87400000    00000001803937b0     c69_six_plus_six_AcmsteeringV09_main_2lflm.obj
 0002:000007b8       __real@41e2dcf1bf400000    00000001803937b8     c69_six_plus_six_AcmsteeringV09_main_2lflm.obj
 0002:000007c0       __real@41b4fcab4e000000    00000001803937c0     c69_six_plus_six_AcmsteeringV09_main_2lflm.obj
 0002:000007c8       __real@41d040b689000000    00000001803937c8     c70_six_plus_six_AcmsteeringV09_main_2lflm.obj
 0002:000007d0       __real@41dd7b0052000000    00000001803937d0     c70_six_plus_six_AcmsteeringV09_main_2lflm.obj
 0002:000007d8       __real@41d142c5d7c00000    00000001803937d8     c70_six_plus_six_AcmsteeringV09_main_2lflm.obj
 0002:000007e0       __real@41d0841c5ac00000    00000001803937e0     c70_six_plus_six_AcmsteeringV09_main_2lflm.obj
 0002:000007e8       __real@41bb95e783000000    00000001803937e8     c71_six_plus_six_AcmsteeringV09_main_2lflm.obj
 0002:000007f0       __real@41e9f667ea800000    00000001803937f0     c71_six_plus_six_AcmsteeringV09_main_2lflm.obj
 0002:000007f8       __real@41e817f0baa00000    00000001803937f8     c71_six_plus_six_AcmsteeringV09_main_2lflm.obj
 0002:00000800       __real@41ec3a0d51000000    0000000180393800     c71_six_plus_six_AcmsteeringV09_main_2lflm.obj
 0002:00000808       __real@41daf77b8c800000    0000000180393808     c72_six_plus_six_AcmsteeringV09_main_2lflm.obj
 0002:00000810       __real@41d0e40602c00000    0000000180393810     c72_six_plus_six_AcmsteeringV09_main_2lflm.obj
 0002:00000818       __real@41e4e4dd30600000    0000000180393818     c72_six_plus_six_AcmsteeringV09_main_2lflm.obj
 0002:00000820       __real@41c32f7f65000000    0000000180393820     c72_six_plus_six_AcmsteeringV09_main_2lflm.obj
 0002:00000828       __real@41b000b375000000    0000000180393828     c73_six_plus_six_AcmsteeringV09_main_2lflm.obj
 0002:00000830       __real@41c9fd7773000000    0000000180393830     c73_six_plus_six_AcmsteeringV09_main_2lflm.obj
 0002:00000838       __real@41e96bc3ae600000    0000000180393838     c73_six_plus_six_AcmsteeringV09_main_2lflm.obj
 0002:00000840       __real@41e133e303e00000    0000000180393840     c73_six_plus_six_AcmsteeringV09_main_2lflm.obj
 0002:00000848       __real@41da9e052c800000    0000000180393848     c74_six_plus_six_AcmsteeringV09_main_2lflm.obj
 0002:00000850       __real@41d26b52c9000000    0000000180393850     c74_six_plus_six_AcmsteeringV09_main_2lflm.obj
 0002:00000858       __real@41cfc73382000000    0000000180393858     c74_six_plus_six_AcmsteeringV09_main_2lflm.obj
 0002:00000860       __real@41890d9c50000000    0000000180393860     c74_six_plus_six_AcmsteeringV09_main_2lflm.obj
 0002:00000868       __real@41d006edf8000000    0000000180393868     c75_six_plus_six_AcmsteeringV09_main_2lflm.obj
 0002:00000870       __real@41e9d4e71d400000    0000000180393870     c75_six_plus_six_AcmsteeringV09_main_2lflm.obj
 0002:00000878       __real@41e07e08ae400000    0000000180393878     c75_six_plus_six_AcmsteeringV09_main_2lflm.obj
 0002:00000880       __real@41c3bccd10800000    0000000180393880     c75_six_plus_six_AcmsteeringV09_main_2lflm.obj
 0002:00000888       __real@41ebd98856e00000    0000000180393888     c76_six_plus_six_AcmsteeringV09_main_2lflm.obj
 0002:00000890       __real@41e4d1699aa00000    0000000180393890     c76_six_plus_six_AcmsteeringV09_main_2lflm.obj
 0002:00000898       __real@41dc75a516c00000    0000000180393898     c76_six_plus_six_AcmsteeringV09_main_2lflm.obj
 0002:000008a0       __real@41d9716798c00000    00000001803938a0     c76_six_plus_six_AcmsteeringV09_main_2lflm.obj
 0002:000008a8       __real@4035000000000000    00000001803938a8     c76_six_plus_six_AcmsteeringV09_main_2lflm.obj
 0002:000008b0       __real@41dad26297400000    00000001803938b0     c82_six_plus_six_AcmsteeringV09_main_2lflm.obj
 0002:000008b8       __real@41e732ca56a00000    00000001803938b8     c82_six_plus_six_AcmsteeringV09_main_2lflm.obj
 0002:000008c0       __real@41dea9f68f800000    00000001803938c0     c82_six_plus_six_AcmsteeringV09_main_2lflm.obj
 0002:000008c8       __real@41ed743a02400000    00000001803938c8     c82_six_plus_six_AcmsteeringV09_main_2lflm.obj
 0002:000008d0       __real@401c000000000000    00000001803938d0     c82_six_plus_six_AcmsteeringV09_main_2lflm.obj
 0002:000008d8       __real@41b9323417000000    00000001803938d8     c85_six_plus_six_AcmsteeringV09_main_2lflm.obj
 0002:000008e0       __real@41e13b34afa00000    00000001803938e0     c85_six_plus_six_AcmsteeringV09_main_2lflm.obj
 0002:000008e8       __real@41e92e1db4000000    00000001803938e8     c85_six_plus_six_AcmsteeringV09_main_2lflm.obj
 0002:000008f0       __real@41d73c66fa400000    00000001803938f0     c85_six_plus_six_AcmsteeringV09_main_2lflm.obj
 0002:000008f8       __real@4070000000000000    00000001803938f8     c85_six_plus_six_AcmsteeringV09_main_2lflm.obj
 0002:00000900       __real@40f0000000000000    0000000180393900     c85_six_plus_six_AcmsteeringV09_main_2lflm.obj
 0002:00000908       __real@4170000000000000    0000000180393908     c85_six_plus_six_AcmsteeringV09_main_2lflm.obj
 0002:00000910       __real@41f0000000000000    0000000180393910     c85_six_plus_six_AcmsteeringV09_main_2lflm.obj
 0002:00000918       __real@4057c00000000000    0000000180393918     c85_six_plus_six_AcmsteeringV09_main_2lflm.obj
 0002:00000920       __real@402e000000000000    0000000180393920     c85_six_plus_six_AcmsteeringV09_main_2lflm.obj
 0002:00000928       __real@4062c00000000000    0000000180393928     c85_six_plus_six_AcmsteeringV09_main_2lflm.obj
 0002:00000930       __real@3cb0000000000000    0000000180393930     c85_six_plus_six_AcmsteeringV09_main_2lflm.obj
 0002:00000938       __real@41c1141b89800000    0000000180393938     c88_six_plus_six_AcmsteeringV09_main_2lflm.obj
 0002:00000940       __real@41e9499f7b600000    0000000180393940     c88_six_plus_six_AcmsteeringV09_main_2lflm.obj
 0002:00000948       __real@41b9144cb1000000    0000000180393948     c88_six_plus_six_AcmsteeringV09_main_2lflm.obj
 0002:00000950       __real@41d0437e04400000    0000000180393950     c88_six_plus_six_AcmsteeringV09_main_2lflm.obj
 0002:00000958       __real@41cf92d644000000    0000000180393958     c99_six_plus_six_AcmsteeringV09_main_2lflm.obj
 0002:00000960       __real@41dbc0ee5d800000    0000000180393960     c99_six_plus_six_AcmsteeringV09_main_2lflm.obj
 0002:00000968       __real@41d69b26eb000000    0000000180393968     c99_six_plus_six_AcmsteeringV09_main_2lflm.obj
 0002:00000970       __real@41bffdcb35000000    0000000180393970     c99_six_plus_six_AcmsteeringV09_main_2lflm.obj
 0002:00000978       __real@3e7ad7f29abcaf48    0000000180393978     c99_six_plus_six_AcmsteeringV09_main_2lflm.obj
 0002:00000980       __real@41dc69b817000000    0000000180393980     c104_six_plus_six_AcmsteeringV09_main_2lflm.obj
 0002:00000988       __real@41c9e43148000000    0000000180393988     c104_six_plus_six_AcmsteeringV09_main_2lflm.obj
 0002:00000990       __real@41eed3b31ee00000    0000000180393990     c104_six_plus_six_AcmsteeringV09_main_2lflm.obj
 0002:00000998       __real@41e6485621800000    0000000180393998     c104_six_plus_six_AcmsteeringV09_main_2lflm.obj
 0002:000009a0       __real@400921fb54442d18    00000001803939a0     c104_six_plus_six_AcmsteeringV09_main_2lflm.obj
 0002:000009a8       __real@4066800000000000    00000001803939a8     c104_six_plus_six_AcmsteeringV09_main_2lflm.obj
 0002:000009b0       __real@41ef5a7441000000    00000001803939b0     c105_six_plus_six_AcmsteeringV09_main_2lflm.obj
 0002:000009b8       __real@418d4ab040000000    00000001803939b8     c105_six_plus_six_AcmsteeringV09_main_2lflm.obj
 0002:000009c0       __real@41e861ab06a00000    00000001803939c0     c105_six_plus_six_AcmsteeringV09_main_2lflm.obj
 0002:000009c8       __real@41da3e83d6000000    00000001803939c8     c105_six_plus_six_AcmsteeringV09_main_2lflm.obj
 0002:000009d0       __real@41e29d3fe4400000    00000001803939d0     c107_six_plus_six_AcmsteeringV09_main_2lflm.obj
 0002:000009d8       __real@4190cc0c10000000    00000001803939d8     c107_six_plus_six_AcmsteeringV09_main_2lflm.obj
 0002:000009e0       __real@4183f6b2a0000000    00000001803939e0     c107_six_plus_six_AcmsteeringV09_main_2lflm.obj
 0002:000009e8       __real@41e5d5c033c00000    00000001803939e8     c107_six_plus_six_AcmsteeringV09_main_2lflm.obj
 0002:000009f0       __real@41e55718e1400000    00000001803939f0     c185_six_plus_six_AcmsteeringV09_main_2lflm.obj
 0002:000009f8       __real@41a5d4578e000000    00000001803939f8     c185_six_plus_six_AcmsteeringV09_main_2lflm.obj
 0002:00000a00       __real@41da086f4bc00000    0000000180393a00     c185_six_plus_six_AcmsteeringV09_main_2lflm.obj
 0002:00000a08       __real@41dc750901000000    0000000180393a08     c185_six_plus_six_AcmsteeringV09_main_2lflm.obj
 0002:00000a10       __real@408a400000000000    0000000180393a10     c185_six_plus_six_AcmsteeringV09_main_2lflm.obj
 0002:00000a18       __real@4091180000000000    0000000180393a18     c185_six_plus_six_AcmsteeringV09_main_2lflm.obj
 0002:00000a20       __real@407a400000000000    0000000180393a20     c185_six_plus_six_AcmsteeringV09_main_2lflm.obj
 0002:00000a28       __real@c07a300000000000    0000000180393a28     c185_six_plus_six_AcmsteeringV09_main_2lflm.obj
 0002:00000a30       __real@40977c0000000000    0000000180393a30     c185_six_plus_six_AcmsteeringV09_main_2lflm.obj
 0002:00000a38       __real@40a3880000000000    0000000180393a38     c185_six_plus_six_AcmsteeringV09_main_2lflm.obj
 0002:00000a40       __real@407f400000000000    0000000180393a40     c185_six_plus_six_AcmsteeringV09_main_2lflm.obj
 0002:00000a48       __real@407a600000000000    0000000180393a48     c185_six_plus_six_AcmsteeringV09_main_2lflm.obj
 0002:00000a50       __real@4059000000000000    0000000180393a50     c185_six_plus_six_AcmsteeringV09_main_2lflm.obj
 0002:00000a58       __real@c07a200000000000    0000000180393a58     c185_six_plus_six_AcmsteeringV09_main_2lflm.obj
 0002:00000a60       __real@4097a00000000000    0000000180393a60     c185_six_plus_six_AcmsteeringV09_main_2lflm.obj
 0002:00000a70       DYNAMIC_DIMENSION_DEF      0000000180393a70     six_plus_six_AcmsteeringV09_main_2lflm_sfun_registry.obj
 0002:00000a90       _ssBadLevel2InputAccessMsg 0000000180393a90     six_plus_six_AcmsteeringV09_main_2lflm_sfun_registry.obj
 0002:00000c20       _ssBadLevel2DirectFeedMsg  0000000180393c20     six_plus_six_AcmsteeringV09_main_2lflm_sfun_registry.obj
 0002:00000d60       _ssBadLevel2DirectFeedSolutionMsg 0000000180393d60     six_plus_six_AcmsteeringV09_main_2lflm_sfun_registry.obj
 0002:00000dd0       _ssBadLevel2ZeroDirectFeedMsg 0000000180393dd0     six_plus_six_AcmsteeringV09_main_2lflm_sfun_registry.obj
 0002:00000f10       _ssBadLevel2ZeroDirectFeedMsg2 0000000180393f10     six_plus_six_AcmsteeringV09_main_2lflm_sfun_registry.obj
 0002:00000ff8       __real@bff0000000000000    0000000180393ff8     six_plus_six_AcmsteeringV09_main_2lflm_sfun_registry.obj
 0002:00001000       __real@41602cbca0000000    0000000180394000     six_plus_six_AcmsteeringV09_main_2lflm_sfun_registry.obj
 0002:00001008       _pRawDllMain               0000000180394008     MSVCRT:crtdll.obj
 0002:00001008       _pDefaultRawDllMain        0000000180394008     MSVCRT:crtdll.obj
 0002:00001020       ?ProcessDetach@NativeDll@<CrtImplementationDetails>@@0IB 0000000180394020     MSVCRT:tncleanup.obj
 0002:00001024       ?ProcessAttach@NativeDll@<CrtImplementationDetails>@@0IB 0000000180394024     MSVCRT:tncleanup.obj
 0002:00001028       ?ThreadAttach@NativeDll@<CrtImplementationDetails>@@0IB 0000000180394028     MSVCRT:tncleanup.obj
 0002:0000102c       ?ThreadDetach@NativeDll@<CrtImplementationDetails>@@0IB 000000018039402c     MSVCRT:tncleanup.obj
 0002:00001030       ?ProcessVerifier@NativeDll@<CrtImplementationDetails>@@0IB 0000000180394030     MSVCRT:tncleanup.obj
 0002:00001038       __rtc_iaa                  0000000180394038     MSVCRT:_initsect_.obj
 0002:00001040       __rtc_izz                  0000000180394040     MSVCRT:_initsect_.obj
 0002:00001048       __rtc_taa                  0000000180394048     MSVCRT:_initsect_.obj
 0002:00001050       __rtc_tzz                  0000000180394050     MSVCRT:_initsect_.obj
 0002:0000a0fc       __IMPORT_DESCRIPTOR_sf_runtime 000000018039d0fc     sf_runtime:sf_runtime.dll
 0002:0000a110       __IMPORT_DESCRIPTOR_libmx  000000018039d110     libmx:libmx.dll
 0002:0000a124       __IMPORT_DESCRIPTOR_libmex 000000018039d124     libmex:libmex.dll
 0002:0000a138       __IMPORT_DESCRIPTOR_libut  000000018039d138     libut:libut.dll
 0002:0000a14c       __IMPORT_DESCRIPTOR_libmwmathutil 000000018039d14c     libmwmathutil:libmwmathutil.dll
 0002:0000a160       __IMPORT_DESCRIPTOR_MSVCR100 000000018039d160     MSVCRT:MSVCR100.dll
 0002:0000a174       __IMPORT_DESCRIPTOR_KERNEL32 000000018039d174     kernel32:KERNEL32.dll
 0002:0000a188       __NULL_IMPORT_DESCRIPTOR   000000018039d188     sf_runtime:sf_runtime.dll
 0003:000b6328       DYNAMIC_DIMENSION          0000000180455328     six_plus_six_AcmsteeringV09_main_2lflm_sfun_registry.obj
 0003:000b6f28       __security_cookie          0000000180455f28     MSVCRT:gs_cookie.obj
 0003:000b6f30       __security_cookie_complement 0000000180455f30     MSVCRT:gs_cookie.obj
 0003:000b6f38       _fltused                   0000000180455f38     MSVCRT:dllsupp.obj
 0003:000b6f40       __native_dllmain_reason    0000000180455f40     MSVCRT:natstart.obj
 0003:000b6f44       __native_vcclrit_reason    0000000180455f44     MSVCRT:natstart.obj
 0003:000b7548       sfGlobalDebugInstanceStruct 0000000180456548     six_plus_six_AcmsteeringV09_main_2lflm_sfun_registry.obj
 0003:000b7ad0       ?__type_info_root_node@@3U__type_info_node@@A 0000000180456ad0     MSVCRT:tncleanup.obj
 0003:000b7ae0       _six_plus_six_AcmsteeringV09_main_2lflmMachineNumber_ 0000000180456ae0     <common>
 0003:000b7ae4       __native_startup_state     0000000180456ae4     <common>
 0003:000b7ae8       __native_startup_lock      0000000180456ae8     <common>
 0003:000b7af0       __onexitend                0000000180456af0     <common>
 0003:000b7af8       __onexitbegin              0000000180456af8     <common>
 0003:000b7b00       __dyn_tls_init_callback    0000000180456b00     <common>

 entry point at        0001:00390d90

 Static symbols

 0001:00009200       get_sim_state_c1_six_plus_six_AcmsteeringV09_main_2lflm 000000018000a200 f   c1_six_plus_six_AcmsteeringV09_main_2lflm.obj
 0001:000093a0       sf_get_sim_state_info_c1_six_plus_six_AcmsteeringV09_main_2lflm 000000018000a3a0 f   c1_six_plus_six_AcmsteeringV09_main_2lflm.obj
 0001:00009570       set_sim_state_c1_six_plus_six_AcmsteeringV09_main_2lflm 000000018000a570 f   c1_six_plus_six_AcmsteeringV09_main_2lflm.obj
 0001:00009650       c1_update_debugger_state_c1_six_plus_six_AcmsteeringV09_main_2lf 000000018000a650 f   c1_six_plus_six_AcmsteeringV09_main_2lflm.obj
 0001:00009660       c1_emlrt_marshallIn        000000018000a660 f   c1_six_plus_six_AcmsteeringV09_main_2lflm.obj
 0001:000096d0       c1_b_emlrt_marshallIn      000000018000a6d0 f   c1_six_plus_six_AcmsteeringV09_main_2lflm.obj
 0001:00009760       c1_e_emlrt_marshallIn      000000018000a760 f   c1_six_plus_six_AcmsteeringV09_main_2lflm.obj
 0001:000097c0       c1_f_emlrt_marshallIn      000000018000a7c0 f   c1_six_plus_six_AcmsteeringV09_main_2lflm.obj
 0001:000098c0       mdlProcessParameters_c1_six_plus_six_AcmsteeringV09_main_2lflm 000000018000a8c0 f   c1_six_plus_six_AcmsteeringV09_main_2lflm.obj
 0001:000099a0       initialize_params_c1_six_plus_six_AcmsteeringV09_main_2lflm 000000018000a9a0 f   c1_six_plus_six_AcmsteeringV09_main_2lflm.obj
 0001:000099b0       mdlSetWorkWidths_c1_six_plus_six_AcmsteeringV09_main_2lflm 000000018000a9b0 f   c1_six_plus_six_AcmsteeringV09_main_2lflm.obj
 0001:00009e80       sf_get_instance_specialization 000000018000ae80 f   c1_six_plus_six_AcmsteeringV09_main_2lflm.obj
 0001:00009e90       mdlStart_c1_six_plus_six_AcmsteeringV09_main_2lflm 000000018000ae90 f   c1_six_plus_six_AcmsteeringV09_main_2lflm.obj
 0001:0000a0c0       init_dsm_address_info      000000018000b0c0 f   c1_six_plus_six_AcmsteeringV09_main_2lflm.obj
 0001:0000a0d0       chart_debug_initialization 000000018000b0d0 f   c1_six_plus_six_AcmsteeringV09_main_2lflm.obj
 0001:0000a880       init_script_number_translation 000000018000b880 f   c1_six_plus_six_AcmsteeringV09_main_2lflm.obj
 0001:0000a8a0       c1_sf_marshallOut          000000018000b8a0 f   c1_six_plus_six_AcmsteeringV09_main_2lflm.obj
 0001:0000a960       c1_sf_marshallIn           000000018000b960 f   c1_six_plus_six_AcmsteeringV09_main_2lflm.obj
 0001:0000aa00       sf_opaque_initialize_c1_six_plus_six_AcmsteeringV09_main_2lflm 000000018000ba00 f   c1_six_plus_six_AcmsteeringV09_main_2lflm.obj
 0001:0000aa40       initialize_c1_six_plus_six_AcmsteeringV09_main_2lflm 000000018000ba40 f   c1_six_plus_six_AcmsteeringV09_main_2lflm.obj
 0001:0000aa90       sf_opaque_enable_c1_six_plus_six_AcmsteeringV09_main_2lflm 000000018000ba90 f   c1_six_plus_six_AcmsteeringV09_main_2lflm.obj
 0001:0000aab0       enable_c1_six_plus_six_AcmsteeringV09_main_2lflm 000000018000bab0 f   c1_six_plus_six_AcmsteeringV09_main_2lflm.obj
 0001:0000aae0       sf_opaque_disable_c1_six_plus_six_AcmsteeringV09_main_2lflm 000000018000bae0 f   c1_six_plus_six_AcmsteeringV09_main_2lflm.obj
 0001:0000ab00       disable_c1_six_plus_six_AcmsteeringV09_main_2lflm 000000018000bb00 f   c1_six_plus_six_AcmsteeringV09_main_2lflm.obj
 0001:0000ab30       sf_opaque_gateway_c1_six_plus_six_AcmsteeringV09_main_2lflm 000000018000bb30 f   c1_six_plus_six_AcmsteeringV09_main_2lflm.obj
 0001:0000ab50       sf_gateway_c1_six_plus_six_AcmsteeringV09_main_2lflm 000000018000bb50 f   c1_six_plus_six_AcmsteeringV09_main_2lflm.obj
 0001:0000b270       c1_b_sf_marshallOut        000000018000c270 f   c1_six_plus_six_AcmsteeringV09_main_2lflm.obj
 0001:0000b320       c1_b_sf_marshallIn         000000018000c320 f   c1_six_plus_six_AcmsteeringV09_main_2lflm.obj
 0001:0000b3c0       c1_c_emlrt_marshallIn      000000018000c3c0 f   c1_six_plus_six_AcmsteeringV09_main_2lflm.obj
 0001:0000b450       sf_opaque_get_sim_state_c1_six_plus_six_AcmsteeringV09_main_2lflm 000000018000c450 f   c1_six_plus_six_AcmsteeringV09_main_2lflm.obj
 0001:0000b470       sf_opaque_set_sim_state_c1_six_plus_six_AcmsteeringV09_main_2lflm 000000018000c470 f   c1_six_plus_six_AcmsteeringV09_main_2lflm.obj
 0001:0000b4a0       sf_opaque_terminate_c1_six_plus_six_AcmsteeringV09_main_2lflm 000000018000c4a0 f   c1_six_plus_six_AcmsteeringV09_main_2lflm.obj
 0001:0000b540       finalize_c1_six_plus_six_AcmsteeringV09_main_2lflm 000000018000c540 f   c1_six_plus_six_AcmsteeringV09_main_2lflm.obj
 0001:0000b550       sf_opaque_init_subchart_simstructs 000000018000c550 f   c1_six_plus_six_AcmsteeringV09_main_2lflm.obj
 0001:0000b570       initSimStructsc1_six_plus_six_AcmsteeringV09_main_2lflm 000000018000c570 f   c1_six_plus_six_AcmsteeringV09_main_2lflm.obj
 0001:0000b580       mdlRTW_c1_six_plus_six_AcmsteeringV09_main_2lflm 000000018000c580 f   c1_six_plus_six_AcmsteeringV09_main_2lflm.obj
 0001:0000b630       c2_info_helper             000000018000c630 f   c2_six_plus_six_AcmsteeringV09_main_2lflm.obj
 0001:0000ce60       c2_emlrt_marshallOut       000000018000de60 f   c2_six_plus_six_AcmsteeringV09_main_2lflm.obj
 0001:0000cef0       c2_b_emlrt_marshallOut     000000018000def0 f   c2_six_plus_six_AcmsteeringV09_main_2lflm.obj
 0001:0000dbc0       get_sim_state_c2_six_plus_six_AcmsteeringV09_main_2lflm 000000018000ebc0 f   c2_six_plus_six_AcmsteeringV09_main_2lflm.obj
 0001:0000dd60       sf_get_sim_state_info_c2_six_plus_six_AcmsteeringV09_main_2lflm 000000018000ed60 f   c2_six_plus_six_AcmsteeringV09_main_2lflm.obj
 0001:0000df30       set_sim_state_c2_six_plus_six_AcmsteeringV09_main_2lflm 000000018000ef30 f   c2_six_plus_six_AcmsteeringV09_main_2lflm.obj
 0001:0000e010       c2_update_debugger_state_c2_six_plus_six_AcmsteeringV09_main_2lf 000000018000f010 f   c2_six_plus_six_AcmsteeringV09_main_2lflm.obj
 0001:0000e020       c2_emlrt_marshallIn        000000018000f020 f   c2_six_plus_six_AcmsteeringV09_main_2lflm.obj
 0001:0000e090       c2_b_emlrt_marshallIn      000000018000f090 f   c2_six_plus_six_AcmsteeringV09_main_2lflm.obj
 0001:0000e120       c2_e_emlrt_marshallIn      000000018000f120 f   c2_six_plus_six_AcmsteeringV09_main_2lflm.obj
 0001:0000e180       c2_f_emlrt_marshallIn      000000018000f180 f   c2_six_plus_six_AcmsteeringV09_main_2lflm.obj
 0001:0000e280       mdlProcessParameters_c2_six_plus_six_AcmsteeringV09_main_2lflm 000000018000f280 f   c2_six_plus_six_AcmsteeringV09_main_2lflm.obj
 0001:0000e360       initialize_params_c2_six_plus_six_AcmsteeringV09_main_2lflm 000000018000f360 f   c2_six_plus_six_AcmsteeringV09_main_2lflm.obj
 0001:0000e370       mdlSetWorkWidths_c2_six_plus_six_AcmsteeringV09_main_2lflm 000000018000f370 f   c2_six_plus_six_AcmsteeringV09_main_2lflm.obj
 0001:0000e930       sf_get_instance_specialization 000000018000f930 f   c2_six_plus_six_AcmsteeringV09_main_2lflm.obj
 0001:0000e940       mdlStart_c2_six_plus_six_AcmsteeringV09_main_2lflm 000000018000f940 f   c2_six_plus_six_AcmsteeringV09_main_2lflm.obj
 0001:0000eb70       init_dsm_address_info      000000018000fb70 f   c2_six_plus_six_AcmsteeringV09_main_2lflm.obj
 0001:0000eb80       chart_debug_initialization 000000018000fb80 f   c2_six_plus_six_AcmsteeringV09_main_2lflm.obj
 0001:0000f9a0       init_script_number_translation 00000001800109a0 f   c2_six_plus_six_AcmsteeringV09_main_2lflm.obj
 0001:0000f9c0       c2_sf_marshallOut          00000001800109c0 f   c2_six_plus_six_AcmsteeringV09_main_2lflm.obj
 0001:0000fa80       c2_sf_marshallIn           0000000180010a80 f   c2_six_plus_six_AcmsteeringV09_main_2lflm.obj
 0001:0000fb20       sf_opaque_initialize_c2_six_plus_six_AcmsteeringV09_main_2lflm 0000000180010b20 f   c2_six_plus_six_AcmsteeringV09_main_2lflm.obj
 0001:0000fb60       initialize_c2_six_plus_six_AcmsteeringV09_main_2lflm 0000000180010b60 f   c2_six_plus_six_AcmsteeringV09_main_2lflm.obj
 0001:0000fbb0       sf_opaque_enable_c2_six_plus_six_AcmsteeringV09_main_2lflm 0000000180010bb0 f   c2_six_plus_six_AcmsteeringV09_main_2lflm.obj
 0001:0000fbd0       enable_c2_six_plus_six_AcmsteeringV09_main_2lflm 0000000180010bd0 f   c2_six_plus_six_AcmsteeringV09_main_2lflm.obj
 0001:0000fc00       sf_opaque_disable_c2_six_plus_six_AcmsteeringV09_main_2lflm 0000000180010c00 f   c2_six_plus_six_AcmsteeringV09_main_2lflm.obj
 0001:0000fc20       disable_c2_six_plus_six_AcmsteeringV09_main_2lflm 0000000180010c20 f   c2_six_plus_six_AcmsteeringV09_main_2lflm.obj
 0001:0000fc50       sf_opaque_gateway_c2_six_plus_six_AcmsteeringV09_main_2lflm 0000000180010c50 f   c2_six_plus_six_AcmsteeringV09_main_2lflm.obj
 0001:0000fc70       sf_gateway_c2_six_plus_six_AcmsteeringV09_main_2lflm 0000000180010c70 f   c2_six_plus_six_AcmsteeringV09_main_2lflm.obj
 0001:00010890       c2_b_sf_marshallOut        0000000180011890 f   c2_six_plus_six_AcmsteeringV09_main_2lflm.obj
 0001:00010940       c2_b_sf_marshallIn         0000000180011940 f   c2_six_plus_six_AcmsteeringV09_main_2lflm.obj
 0001:000109e0       c2_c_emlrt_marshallIn      00000001800119e0 f   c2_six_plus_six_AcmsteeringV09_main_2lflm.obj
 0001:00010a70       sf_opaque_get_sim_state_c2_six_plus_six_AcmsteeringV09_main_2lflm 0000000180011a70 f   c2_six_plus_six_AcmsteeringV09_main_2lflm.obj
 0001:00010a90       sf_opaque_set_sim_state_c2_six_plus_six_AcmsteeringV09_main_2lflm 0000000180011a90 f   c2_six_plus_six_AcmsteeringV09_main_2lflm.obj
 0001:00010ac0       sf_opaque_terminate_c2_six_plus_six_AcmsteeringV09_main_2lflm 0000000180011ac0 f   c2_six_plus_six_AcmsteeringV09_main_2lflm.obj
 0001:00010b60       finalize_c2_six_plus_six_AcmsteeringV09_main_2lflm 0000000180011b60 f   c2_six_plus_six_AcmsteeringV09_main_2lflm.obj
 0001:00010b70       sf_opaque_init_subchart_simstructs 0000000180011b70 f   c2_six_plus_six_AcmsteeringV09_main_2lflm.obj
 0001:00010b90       initSimStructsc2_six_plus_six_AcmsteeringV09_main_2lflm 0000000180011b90 f   c2_six_plus_six_AcmsteeringV09_main_2lflm.obj
 0001:00010ba0       mdlRTW_c2_six_plus_six_AcmsteeringV09_main_2lflm 0000000180011ba0 f   c2_six_plus_six_AcmsteeringV09_main_2lflm.obj
 0001:00011260       get_sim_state_c3_six_plus_six_AcmsteeringV09_main_2lflm 0000000180012260 f   c3_six_plus_six_AcmsteeringV09_main_2lflm.obj
 0001:00011400       sf_get_sim_state_info_c3_six_plus_six_AcmsteeringV09_main_2lflm 0000000180012400 f   c3_six_plus_six_AcmsteeringV09_main_2lflm.obj
 0001:000115d0       set_sim_state_c3_six_plus_six_AcmsteeringV09_main_2lflm 00000001800125d0 f   c3_six_plus_six_AcmsteeringV09_main_2lflm.obj
 0001:000116b0       c3_update_debugger_state_c3_six_plus_six_AcmsteeringV09_main_2lf 00000001800126b0 f   c3_six_plus_six_AcmsteeringV09_main_2lflm.obj
 0001:000116c0       c3_emlrt_marshallIn        00000001800126c0 f   c3_six_plus_six_AcmsteeringV09_main_2lflm.obj
 0001:00011730       c3_b_emlrt_marshallIn      0000000180012730 f   c3_six_plus_six_AcmsteeringV09_main_2lflm.obj
 0001:000117c0       c3_e_emlrt_marshallIn      00000001800127c0 f   c3_six_plus_six_AcmsteeringV09_main_2lflm.obj
 0001:00011820       c3_f_emlrt_marshallIn      0000000180012820 f   c3_six_plus_six_AcmsteeringV09_main_2lflm.obj
 0001:00011920       mdlProcessParameters_c3_six_plus_six_AcmsteeringV09_main_2lflm 0000000180012920 f   c3_six_plus_six_AcmsteeringV09_main_2lflm.obj
 0001:00011a00       initialize_params_c3_six_plus_six_AcmsteeringV09_main_2lflm 0000000180012a00 f   c3_six_plus_six_AcmsteeringV09_main_2lflm.obj
 0001:00011a10       mdlSetWorkWidths_c3_six_plus_six_AcmsteeringV09_main_2lflm 0000000180012a10 f   c3_six_plus_six_AcmsteeringV09_main_2lflm.obj
 0001:00011ee0       sf_get_instance_specialization 0000000180012ee0 f   c3_six_plus_six_AcmsteeringV09_main_2lflm.obj
 0001:00011ef0       mdlStart_c3_six_plus_six_AcmsteeringV09_main_2lflm 0000000180012ef0 f   c3_six_plus_six_AcmsteeringV09_main_2lflm.obj
 0001:00012120       init_dsm_address_info      0000000180013120 f   c3_six_plus_six_AcmsteeringV09_main_2lflm.obj
 0001:00012130       chart_debug_initialization 0000000180013130 f   c3_six_plus_six_AcmsteeringV09_main_2lflm.obj
 0001:000128e0       init_script_number_translation 00000001800138e0 f   c3_six_plus_six_AcmsteeringV09_main_2lflm.obj
 0001:00012900       c3_sf_marshallOut          0000000180013900 f   c3_six_plus_six_AcmsteeringV09_main_2lflm.obj
 0001:000129c0       c3_sf_marshallIn           00000001800139c0 f   c3_six_plus_six_AcmsteeringV09_main_2lflm.obj
 0001:00012a60       sf_opaque_initialize_c3_six_plus_six_AcmsteeringV09_main_2lflm 0000000180013a60 f   c3_six_plus_six_AcmsteeringV09_main_2lflm.obj
 0001:00012aa0       initialize_c3_six_plus_six_AcmsteeringV09_main_2lflm 0000000180013aa0 f   c3_six_plus_six_AcmsteeringV09_main_2lflm.obj
 0001:00012af0       sf_opaque_enable_c3_six_plus_six_AcmsteeringV09_main_2lflm 0000000180013af0 f   c3_six_plus_six_AcmsteeringV09_main_2lflm.obj
 0001:00012b10       enable_c3_six_plus_six_AcmsteeringV09_main_2lflm 0000000180013b10 f   c3_six_plus_six_AcmsteeringV09_main_2lflm.obj
 0001:00012b40       sf_opaque_disable_c3_six_plus_six_AcmsteeringV09_main_2lflm 0000000180013b40 f   c3_six_plus_six_AcmsteeringV09_main_2lflm.obj
 0001:00012b60       disable_c3_six_plus_six_AcmsteeringV09_main_2lflm 0000000180013b60 f   c3_six_plus_six_AcmsteeringV09_main_2lflm.obj
 0001:00012b90       sf_opaque_gateway_c3_six_plus_six_AcmsteeringV09_main_2lflm 0000000180013b90 f   c3_six_plus_six_AcmsteeringV09_main_2lflm.obj
 0001:00012bb0       sf_gateway_c3_six_plus_six_AcmsteeringV09_main_2lflm 0000000180013bb0 f   c3_six_plus_six_AcmsteeringV09_main_2lflm.obj
 0001:000132d0       c3_b_sf_marshallOut        00000001800142d0 f   c3_six_plus_six_AcmsteeringV09_main_2lflm.obj
 0001:00013380       c3_b_sf_marshallIn         0000000180014380 f   c3_six_plus_six_AcmsteeringV09_main_2lflm.obj
 0001:00013420       c3_c_emlrt_marshallIn      0000000180014420 f   c3_six_plus_six_AcmsteeringV09_main_2lflm.obj
 0001:000134b0       sf_opaque_get_sim_state_c3_six_plus_six_AcmsteeringV09_main_2lflm 00000001800144b0 f   c3_six_plus_six_AcmsteeringV09_main_2lflm.obj
 0001:000134d0       sf_opaque_set_sim_state_c3_six_plus_six_AcmsteeringV09_main_2lflm 00000001800144d0 f   c3_six_plus_six_AcmsteeringV09_main_2lflm.obj
 0001:00013500       sf_opaque_terminate_c3_six_plus_six_AcmsteeringV09_main_2lflm 0000000180014500 f   c3_six_plus_six_AcmsteeringV09_main_2lflm.obj
 0001:000135a0       finalize_c3_six_plus_six_AcmsteeringV09_main_2lflm 00000001800145a0 f   c3_six_plus_six_AcmsteeringV09_main_2lflm.obj
 0001:000135b0       sf_opaque_init_subchart_simstructs 00000001800145b0 f   c3_six_plus_six_AcmsteeringV09_main_2lflm.obj
 0001:000135d0       initSimStructsc3_six_plus_six_AcmsteeringV09_main_2lflm 00000001800145d0 f   c3_six_plus_six_AcmsteeringV09_main_2lflm.obj
 0001:000135e0       mdlRTW_c3_six_plus_six_AcmsteeringV09_main_2lflm 00000001800145e0 f   c3_six_plus_six_AcmsteeringV09_main_2lflm.obj
 0001:00013690       c4_info_helper             0000000180014690 f   c4_six_plus_six_AcmsteeringV09_main_2lflm.obj
 0001:00015130       c4_emlrt_marshallOut       0000000180016130 f   c4_six_plus_six_AcmsteeringV09_main_2lflm.obj
 0001:000151c0       c4_b_emlrt_marshallOut     00000001800161c0 f   c4_six_plus_six_AcmsteeringV09_main_2lflm.obj
 0001:000163a0       get_sim_state_c4_six_plus_six_AcmsteeringV09_main_2lflm 00000001800173a0 f   c4_six_plus_six_AcmsteeringV09_main_2lflm.obj
 0001:00016540       sf_get_sim_state_info_c4_six_plus_six_AcmsteeringV09_main_2lflm 0000000180017540 f   c4_six_plus_six_AcmsteeringV09_main_2lflm.obj
 0001:00016710       set_sim_state_c4_six_plus_six_AcmsteeringV09_main_2lflm 0000000180017710 f   c4_six_plus_six_AcmsteeringV09_main_2lflm.obj
 0001:000167f0       c4_update_debugger_state_c4_six_plus_six_AcmsteeringV09_main_2lf 00000001800177f0 f   c4_six_plus_six_AcmsteeringV09_main_2lflm.obj
 0001:00016800       c4_emlrt_marshallIn        0000000180017800 f   c4_six_plus_six_AcmsteeringV09_main_2lflm.obj
 0001:00016870       c4_b_emlrt_marshallIn      0000000180017870 f   c4_six_plus_six_AcmsteeringV09_main_2lflm.obj
 0001:00016900       c4_e_emlrt_marshallIn      0000000180017900 f   c4_six_plus_six_AcmsteeringV09_main_2lflm.obj
 0001:00016960       c4_f_emlrt_marshallIn      0000000180017960 f   c4_six_plus_six_AcmsteeringV09_main_2lflm.obj
 0001:00016a60       mdlProcessParameters_c4_six_plus_six_AcmsteeringV09_main_2lflm 0000000180017a60 f   c4_six_plus_six_AcmsteeringV09_main_2lflm.obj
 0001:00016b40       initialize_params_c4_six_plus_six_AcmsteeringV09_main_2lflm 0000000180017b40 f   c4_six_plus_six_AcmsteeringV09_main_2lflm.obj
 0001:00016b50       mdlSetWorkWidths_c4_six_plus_six_AcmsteeringV09_main_2lflm 0000000180017b50 f   c4_six_plus_six_AcmsteeringV09_main_2lflm.obj
 0001:000171d0       sf_get_instance_specialization 00000001800181d0 f   c4_six_plus_six_AcmsteeringV09_main_2lflm.obj
 0001:000171e0       mdlStart_c4_six_plus_six_AcmsteeringV09_main_2lflm 00000001800181e0 f   c4_six_plus_six_AcmsteeringV09_main_2lflm.obj
 0001:00017410       init_dsm_address_info      0000000180018410 f   c4_six_plus_six_AcmsteeringV09_main_2lflm.obj
 0001:00017420       chart_debug_initialization 0000000180018420 f   c4_six_plus_six_AcmsteeringV09_main_2lflm.obj
 0001:00018820       init_script_number_translation 0000000180019820 f   c4_six_plus_six_AcmsteeringV09_main_2lflm.obj
 0001:00018840       c4_sf_marshallOut          0000000180019840 f   c4_six_plus_six_AcmsteeringV09_main_2lflm.obj
 0001:00018900       c4_sf_marshallIn           0000000180019900 f   c4_six_plus_six_AcmsteeringV09_main_2lflm.obj
 0001:000189a0       sf_opaque_initialize_c4_six_plus_six_AcmsteeringV09_main_2lflm 00000001800199a0 f   c4_six_plus_six_AcmsteeringV09_main_2lflm.obj
 0001:000189e0       initialize_c4_six_plus_six_AcmsteeringV09_main_2lflm 00000001800199e0 f   c4_six_plus_six_AcmsteeringV09_main_2lflm.obj
 0001:00018a30       sf_opaque_enable_c4_six_plus_six_AcmsteeringV09_main_2lflm 0000000180019a30 f   c4_six_plus_six_AcmsteeringV09_main_2lflm.obj
 0001:00018a50       enable_c4_six_plus_six_AcmsteeringV09_main_2lflm 0000000180019a50 f   c4_six_plus_six_AcmsteeringV09_main_2lflm.obj
 0001:00018a80       sf_opaque_disable_c4_six_plus_six_AcmsteeringV09_main_2lflm 0000000180019a80 f   c4_six_plus_six_AcmsteeringV09_main_2lflm.obj
 0001:00018aa0       disable_c4_six_plus_six_AcmsteeringV09_main_2lflm 0000000180019aa0 f   c4_six_plus_six_AcmsteeringV09_main_2lflm.obj
 0001:00018ad0       sf_opaque_gateway_c4_six_plus_six_AcmsteeringV09_main_2lflm 0000000180019ad0 f   c4_six_plus_six_AcmsteeringV09_main_2lflm.obj
 0001:00018af0       sf_gateway_c4_six_plus_six_AcmsteeringV09_main_2lflm 0000000180019af0 f   c4_six_plus_six_AcmsteeringV09_main_2lflm.obj
 0001:000190a0       c4_chartstep_c4_six_plus_six_AcmsteeringV09_main_2lflm 000000018001a0a0 f   c4_six_plus_six_AcmsteeringV09_main_2lflm.obj
 0001:00019ee0       c4_b_sf_marshallOut        000000018001aee0 f   c4_six_plus_six_AcmsteeringV09_main_2lflm.obj
 0001:00019f90       c4_b_sf_marshallIn         000000018001af90 f   c4_six_plus_six_AcmsteeringV09_main_2lflm.obj
 0001:0001a030       c4_c_emlrt_marshallIn      000000018001b030 f   c4_six_plus_six_AcmsteeringV09_main_2lflm.obj
 0001:0001a0c0       sf_opaque_get_sim_state_c4_six_plus_six_AcmsteeringV09_main_2lflm 000000018001b0c0 f   c4_six_plus_six_AcmsteeringV09_main_2lflm.obj
 0001:0001a0e0       sf_opaque_set_sim_state_c4_six_plus_six_AcmsteeringV09_main_2lflm 000000018001b0e0 f   c4_six_plus_six_AcmsteeringV09_main_2lflm.obj
 0001:0001a110       sf_opaque_terminate_c4_six_plus_six_AcmsteeringV09_main_2lflm 000000018001b110 f   c4_six_plus_six_AcmsteeringV09_main_2lflm.obj
 0001:0001a1b0       finalize_c4_six_plus_six_AcmsteeringV09_main_2lflm 000000018001b1b0 f   c4_six_plus_six_AcmsteeringV09_main_2lflm.obj
 0001:0001a1c0       sf_opaque_init_subchart_simstructs 000000018001b1c0 f   c4_six_plus_six_AcmsteeringV09_main_2lflm.obj
 0001:0001a1e0       initSimStructsc4_six_plus_six_AcmsteeringV09_main_2lflm 000000018001b1e0 f   c4_six_plus_six_AcmsteeringV09_main_2lflm.obj
 0001:0001a1f0       mdlRTW_c4_six_plus_six_AcmsteeringV09_main_2lflm 000000018001b1f0 f   c4_six_plus_six_AcmsteeringV09_main_2lflm.obj
 0001:0001a2a0       c5_info_helper             000000018001b2a0 f   c5_six_plus_six_AcmsteeringV09_main_2lflm.obj
 0001:0001dd10       c5_emlrt_marshallOut       000000018001ed10 f   c5_six_plus_six_AcmsteeringV09_main_2lflm.obj
 0001:0001dda0       c5_b_emlrt_marshallOut     000000018001eda0 f   c5_six_plus_six_AcmsteeringV09_main_2lflm.obj
 0001:0001e560       get_sim_state_c5_six_plus_six_AcmsteeringV09_main_2lflm 000000018001f560 f   c5_six_plus_six_AcmsteeringV09_main_2lflm.obj
 0001:0001e710       sf_get_sim_state_info_c5_six_plus_six_AcmsteeringV09_main_2lflm 000000018001f710 f   c5_six_plus_six_AcmsteeringV09_main_2lflm.obj
 0001:0001e8e0       set_sim_state_c5_six_plus_six_AcmsteeringV09_main_2lflm 000000018001f8e0 f   c5_six_plus_six_AcmsteeringV09_main_2lflm.obj
 0001:0001e9c0       c5_update_debugger_state_c5_six_plus_six_AcmsteeringV09_main_2lf 000000018001f9c0 f   c5_six_plus_six_AcmsteeringV09_main_2lflm.obj
 0001:0001e9d0       c5_emlrt_marshallIn        000000018001f9d0 f   c5_six_plus_six_AcmsteeringV09_main_2lflm.obj
 0001:0001ea40       c5_b_emlrt_marshallIn      000000018001fa40 f   c5_six_plus_six_AcmsteeringV09_main_2lflm.obj
 0001:0001ead0       c5_e_emlrt_marshallIn      000000018001fad0 f   c5_six_plus_six_AcmsteeringV09_main_2lflm.obj
 0001:0001eb30       c5_f_emlrt_marshallIn      000000018001fb30 f   c5_six_plus_six_AcmsteeringV09_main_2lflm.obj
 0001:0001ec30       mdlProcessParameters_c5_six_plus_six_AcmsteeringV09_main_2lflm 000000018001fc30 f   c5_six_plus_six_AcmsteeringV09_main_2lflm.obj
 0001:0001ed10       initialize_params_c5_six_plus_six_AcmsteeringV09_main_2lflm 000000018001fd10 f   c5_six_plus_six_AcmsteeringV09_main_2lflm.obj
 0001:0001ed20       mdlSetWorkWidths_c5_six_plus_six_AcmsteeringV09_main_2lflm 000000018001fd20 f   c5_six_plus_six_AcmsteeringV09_main_2lflm.obj
 0001:0001f220       sf_get_instance_specialization 0000000180020220 f   c5_six_plus_six_AcmsteeringV09_main_2lflm.obj
 0001:0001f230       mdlStart_c5_six_plus_six_AcmsteeringV09_main_2lflm 0000000180020230 f   c5_six_plus_six_AcmsteeringV09_main_2lflm.obj
 0001:0001f460       init_dsm_address_info      0000000180020460 f   c5_six_plus_six_AcmsteeringV09_main_2lflm.obj
 0001:0001f470       chart_debug_initialization 0000000180020470 f   c5_six_plus_six_AcmsteeringV09_main_2lflm.obj
 0001:0001fd10       init_script_number_translation 0000000180020d10 f   c5_six_plus_six_AcmsteeringV09_main_2lflm.obj
 0001:0001fd30       c5_sf_marshallOut          0000000180020d30 f   c5_six_plus_six_AcmsteeringV09_main_2lflm.obj
 0001:0001fdf0       c5_sf_marshallIn           0000000180020df0 f   c5_six_plus_six_AcmsteeringV09_main_2lflm.obj
 0001:0001fe90       sf_opaque_initialize_c5_six_plus_six_AcmsteeringV09_main_2lflm 0000000180020e90 f   c5_six_plus_six_AcmsteeringV09_main_2lflm.obj
 0001:0001fed0       initialize_c5_six_plus_six_AcmsteeringV09_main_2lflm 0000000180020ed0 f   c5_six_plus_six_AcmsteeringV09_main_2lflm.obj
 0001:0001ff20       sf_opaque_enable_c5_six_plus_six_AcmsteeringV09_main_2lflm 0000000180020f20 f   c5_six_plus_six_AcmsteeringV09_main_2lflm.obj
 0001:0001ff40       enable_c5_six_plus_six_AcmsteeringV09_main_2lflm 0000000180020f40 f   c5_six_plus_six_AcmsteeringV09_main_2lflm.obj
 0001:0001ff70       sf_opaque_disable_c5_six_plus_six_AcmsteeringV09_main_2lflm 0000000180020f70 f   c5_six_plus_six_AcmsteeringV09_main_2lflm.obj
 0001:0001ff90       disable_c5_six_plus_six_AcmsteeringV09_main_2lflm 0000000180020f90 f   c5_six_plus_six_AcmsteeringV09_main_2lflm.obj
 0001:0001ffc0       sf_opaque_gateway_c5_six_plus_six_AcmsteeringV09_main_2lflm 0000000180020fc0 f   c5_six_plus_six_AcmsteeringV09_main_2lflm.obj
 0001:0001ffe0       sf_gateway_c5_six_plus_six_AcmsteeringV09_main_2lflm 0000000180020fe0 f   c5_six_plus_six_AcmsteeringV09_main_2lflm.obj
 0001:000207b0       c5_b_sf_marshallOut        00000001800217b0 f   c5_six_plus_six_AcmsteeringV09_main_2lflm.obj
 0001:00020860       c5_b_sf_marshallIn         0000000180021860 f   c5_six_plus_six_AcmsteeringV09_main_2lflm.obj
 0001:00020900       c5_c_emlrt_marshallIn      0000000180021900 f   c5_six_plus_six_AcmsteeringV09_main_2lflm.obj
 0001:00020990       c5_eml_scalar_eg           0000000180021990 f   c5_six_plus_six_AcmsteeringV09_main_2lflm.obj
 0001:000209a0       sf_opaque_get_sim_state_c5_six_plus_six_AcmsteeringV09_main_2lflm 00000001800219a0 f   c5_six_plus_six_AcmsteeringV09_main_2lflm.obj
 0001:000209c0       sf_opaque_set_sim_state_c5_six_plus_six_AcmsteeringV09_main_2lflm 00000001800219c0 f   c5_six_plus_six_AcmsteeringV09_main_2lflm.obj
 0001:000209f0       sf_opaque_terminate_c5_six_plus_six_AcmsteeringV09_main_2lflm 00000001800219f0 f   c5_six_plus_six_AcmsteeringV09_main_2lflm.obj
 0001:00020a90       finalize_c5_six_plus_six_AcmsteeringV09_main_2lflm 0000000180021a90 f   c5_six_plus_six_AcmsteeringV09_main_2lflm.obj
 0001:00020aa0       sf_opaque_init_subchart_simstructs 0000000180021aa0 f   c5_six_plus_six_AcmsteeringV09_main_2lflm.obj
 0001:00020ac0       initSimStructsc5_six_plus_six_AcmsteeringV09_main_2lflm 0000000180021ac0 f   c5_six_plus_six_AcmsteeringV09_main_2lflm.obj
 0001:00020ad0       mdlRTW_c5_six_plus_six_AcmsteeringV09_main_2lflm 0000000180021ad0 f   c5_six_plus_six_AcmsteeringV09_main_2lflm.obj
 0001:00021190       get_sim_state_c6_six_plus_six_AcmsteeringV09_main_2lflm 0000000180022190 f   c6_six_plus_six_AcmsteeringV09_main_2lflm.obj
 0001:00021330       sf_get_sim_state_info_c6_six_plus_six_AcmsteeringV09_main_2lflm 0000000180022330 f   c6_six_plus_six_AcmsteeringV09_main_2lflm.obj
 0001:00021500       set_sim_state_c6_six_plus_six_AcmsteeringV09_main_2lflm 0000000180022500 f   c6_six_plus_six_AcmsteeringV09_main_2lflm.obj
 0001:000215e0       c6_update_debugger_state_c6_six_plus_six_AcmsteeringV09_main_2lf 00000001800225e0 f   c6_six_plus_six_AcmsteeringV09_main_2lflm.obj
 0001:000215f0       c6_emlrt_marshallIn        00000001800225f0 f   c6_six_plus_six_AcmsteeringV09_main_2lflm.obj
 0001:00021660       c6_b_emlrt_marshallIn      0000000180022660 f   c6_six_plus_six_AcmsteeringV09_main_2lflm.obj
 0001:000216f0       c6_d_emlrt_marshallIn      00000001800226f0 f   c6_six_plus_six_AcmsteeringV09_main_2lflm.obj
 0001:00021750       c6_e_emlrt_marshallIn      0000000180022750 f   c6_six_plus_six_AcmsteeringV09_main_2lflm.obj
 0001:00021850       mdlProcessParameters_c6_six_plus_six_AcmsteeringV09_main_2lflm 0000000180022850 f   c6_six_plus_six_AcmsteeringV09_main_2lflm.obj
 0001:00021930       initialize_params_c6_six_plus_six_AcmsteeringV09_main_2lflm 0000000180022930 f   c6_six_plus_six_AcmsteeringV09_main_2lflm.obj
 0001:00021940       mdlSetWorkWidths_c6_six_plus_six_AcmsteeringV09_main_2lflm 0000000180022940 f   c6_six_plus_six_AcmsteeringV09_main_2lflm.obj
 0001:00021e10       sf_get_instance_specialization 0000000180022e10 f   c6_six_plus_six_AcmsteeringV09_main_2lflm.obj
 0001:00021e20       mdlStart_c6_six_plus_six_AcmsteeringV09_main_2lflm 0000000180022e20 f   c6_six_plus_six_AcmsteeringV09_main_2lflm.obj
 0001:00022050       init_dsm_address_info      0000000180023050 f   c6_six_plus_six_AcmsteeringV09_main_2lflm.obj
 0001:00022060       chart_debug_initialization 0000000180023060 f   c6_six_plus_six_AcmsteeringV09_main_2lflm.obj
 0001:00022810       init_script_number_translation 0000000180023810 f   c6_six_plus_six_AcmsteeringV09_main_2lflm.obj
 0001:00022830       c6_sf_marshallOut          0000000180023830 f   c6_six_plus_six_AcmsteeringV09_main_2lflm.obj
 0001:000228e0       c6_sf_marshallIn           00000001800238e0 f   c6_six_plus_six_AcmsteeringV09_main_2lflm.obj
 0001:00022980       sf_opaque_initialize_c6_six_plus_six_AcmsteeringV09_main_2lflm 0000000180023980 f   c6_six_plus_six_AcmsteeringV09_main_2lflm.obj
 0001:000229c0       initialize_c6_six_plus_six_AcmsteeringV09_main_2lflm 00000001800239c0 f   c6_six_plus_six_AcmsteeringV09_main_2lflm.obj
 0001:00022a10       sf_opaque_enable_c6_six_plus_six_AcmsteeringV09_main_2lflm 0000000180023a10 f   c6_six_plus_six_AcmsteeringV09_main_2lflm.obj
 0001:00022a30       enable_c6_six_plus_six_AcmsteeringV09_main_2lflm 0000000180023a30 f   c6_six_plus_six_AcmsteeringV09_main_2lflm.obj
 0001:00022a60       sf_opaque_disable_c6_six_plus_six_AcmsteeringV09_main_2lflm 0000000180023a60 f   c6_six_plus_six_AcmsteeringV09_main_2lflm.obj
 0001:00022a80       disable_c6_six_plus_six_AcmsteeringV09_main_2lflm 0000000180023a80 f   c6_six_plus_six_AcmsteeringV09_main_2lflm.obj
 0001:00022ab0       sf_opaque_gateway_c6_six_plus_six_AcmsteeringV09_main_2lflm 0000000180023ab0 f   c6_six_plus_six_AcmsteeringV09_main_2lflm.obj
 0001:00022ad0       sf_gateway_c6_six_plus_six_AcmsteeringV09_main_2lflm 0000000180023ad0 f   c6_six_plus_six_AcmsteeringV09_main_2lflm.obj
 0001:00023200       sf_opaque_get_sim_state_c6_six_plus_six_AcmsteeringV09_main_2lflm 0000000180024200 f   c6_six_plus_six_AcmsteeringV09_main_2lflm.obj
 0001:00023220       sf_opaque_set_sim_state_c6_six_plus_six_AcmsteeringV09_main_2lflm 0000000180024220 f   c6_six_plus_six_AcmsteeringV09_main_2lflm.obj
 0001:00023250       sf_opaque_terminate_c6_six_plus_six_AcmsteeringV09_main_2lflm 0000000180024250 f   c6_six_plus_six_AcmsteeringV09_main_2lflm.obj
 0001:000232f0       finalize_c6_six_plus_six_AcmsteeringV09_main_2lflm 00000001800242f0 f   c6_six_plus_six_AcmsteeringV09_main_2lflm.obj
 0001:00023300       sf_opaque_init_subchart_simstructs 0000000180024300 f   c6_six_plus_six_AcmsteeringV09_main_2lflm.obj
 0001:00023320       initSimStructsc6_six_plus_six_AcmsteeringV09_main_2lflm 0000000180024320 f   c6_six_plus_six_AcmsteeringV09_main_2lflm.obj
 0001:00023330       mdlRTW_c6_six_plus_six_AcmsteeringV09_main_2lflm 0000000180024330 f   c6_six_plus_six_AcmsteeringV09_main_2lflm.obj
 0001:000239f0       get_sim_state_c7_six_plus_six_AcmsteeringV09_main_2lflm 00000001800249f0 f   c7_six_plus_six_AcmsteeringV09_main_2lflm.obj
 0001:00023b90       sf_get_sim_state_info_c7_six_plus_six_AcmsteeringV09_main_2lflm 0000000180024b90 f   c7_six_plus_six_AcmsteeringV09_main_2lflm.obj
 0001:00023d60       set_sim_state_c7_six_plus_six_AcmsteeringV09_main_2lflm 0000000180024d60 f   c7_six_plus_six_AcmsteeringV09_main_2lflm.obj
 0001:00023e40       c7_update_debugger_state_c7_six_plus_six_AcmsteeringV09_main_2lf 0000000180024e40 f   c7_six_plus_six_AcmsteeringV09_main_2lflm.obj
 0001:00023e50       c7_emlrt_marshallIn        0000000180024e50 f   c7_six_plus_six_AcmsteeringV09_main_2lflm.obj
 0001:00023ec0       c7_b_emlrt_marshallIn      0000000180024ec0 f   c7_six_plus_six_AcmsteeringV09_main_2lflm.obj
 0001:00023f50       c7_e_emlrt_marshallIn      0000000180024f50 f   c7_six_plus_six_AcmsteeringV09_main_2lflm.obj
 0001:00023fb0       c7_f_emlrt_marshallIn      0000000180024fb0 f   c7_six_plus_six_AcmsteeringV09_main_2lflm.obj
 0001:000240b0       mdlProcessParameters_c7_six_plus_six_AcmsteeringV09_main_2lflm 00000001800250b0 f   c7_six_plus_six_AcmsteeringV09_main_2lflm.obj
 0001:00024190       initialize_params_c7_six_plus_six_AcmsteeringV09_main_2lflm 0000000180025190 f   c7_six_plus_six_AcmsteeringV09_main_2lflm.obj
 0001:000241a0       mdlSetWorkWidths_c7_six_plus_six_AcmsteeringV09_main_2lflm 00000001800251a0 f   c7_six_plus_six_AcmsteeringV09_main_2lflm.obj
 0001:00024670       sf_get_instance_specialization 0000000180025670 f   c7_six_plus_six_AcmsteeringV09_main_2lflm.obj
 0001:00024680       mdlStart_c7_six_plus_six_AcmsteeringV09_main_2lflm 0000000180025680 f   c7_six_plus_six_AcmsteeringV09_main_2lflm.obj
 0001:000248b0       init_dsm_address_info      00000001800258b0 f   c7_six_plus_six_AcmsteeringV09_main_2lflm.obj
 0001:000248c0       chart_debug_initialization 00000001800258c0 f   c7_six_plus_six_AcmsteeringV09_main_2lflm.obj
 0001:00025070       init_script_number_translation 0000000180026070 f   c7_six_plus_six_AcmsteeringV09_main_2lflm.obj
 0001:00025090       c7_sf_marshallOut          0000000180026090 f   c7_six_plus_six_AcmsteeringV09_main_2lflm.obj
 0001:00025150       c7_sf_marshallIn           0000000180026150 f   c7_six_plus_six_AcmsteeringV09_main_2lflm.obj
 0001:000251f0       sf_opaque_initialize_c7_six_plus_six_AcmsteeringV09_main_2lflm 00000001800261f0 f   c7_six_plus_six_AcmsteeringV09_main_2lflm.obj
 0001:00025230       initialize_c7_six_plus_six_AcmsteeringV09_main_2lflm 0000000180026230 f   c7_six_plus_six_AcmsteeringV09_main_2lflm.obj
 0001:00025280       sf_opaque_enable_c7_six_plus_six_AcmsteeringV09_main_2lflm 0000000180026280 f   c7_six_plus_six_AcmsteeringV09_main_2lflm.obj
 0001:000252a0       enable_c7_six_plus_six_AcmsteeringV09_main_2lflm 00000001800262a0 f   c7_six_plus_six_AcmsteeringV09_main_2lflm.obj
 0001:000252d0       sf_opaque_disable_c7_six_plus_six_AcmsteeringV09_main_2lflm 00000001800262d0 f   c7_six_plus_six_AcmsteeringV09_main_2lflm.obj
 0001:000252f0       disable_c7_six_plus_six_AcmsteeringV09_main_2lflm 00000001800262f0 f   c7_six_plus_six_AcmsteeringV09_main_2lflm.obj
 0001:00025320       sf_opaque_gateway_c7_six_plus_six_AcmsteeringV09_main_2lflm 0000000180026320 f   c7_six_plus_six_AcmsteeringV09_main_2lflm.obj
 0001:00025340       sf_gateway_c7_six_plus_six_AcmsteeringV09_main_2lflm 0000000180026340 f   c7_six_plus_six_AcmsteeringV09_main_2lflm.obj
 0001:00025a60       c7_b_sf_marshallOut        0000000180026a60 f   c7_six_plus_six_AcmsteeringV09_main_2lflm.obj
 0001:00025b10       c7_b_sf_marshallIn         0000000180026b10 f   c7_six_plus_six_AcmsteeringV09_main_2lflm.obj
 0001:00025bb0       c7_c_emlrt_marshallIn      0000000180026bb0 f   c7_six_plus_six_AcmsteeringV09_main_2lflm.obj
 0001:00025c40       sf_opaque_get_sim_state_c7_six_plus_six_AcmsteeringV09_main_2lflm 0000000180026c40 f   c7_six_plus_six_AcmsteeringV09_main_2lflm.obj
 0001:00025c60       sf_opaque_set_sim_state_c7_six_plus_six_AcmsteeringV09_main_2lflm 0000000180026c60 f   c7_six_plus_six_AcmsteeringV09_main_2lflm.obj
 0001:00025c90       sf_opaque_terminate_c7_six_plus_six_AcmsteeringV09_main_2lflm 0000000180026c90 f   c7_six_plus_six_AcmsteeringV09_main_2lflm.obj
 0001:00025d30       finalize_c7_six_plus_six_AcmsteeringV09_main_2lflm 0000000180026d30 f   c7_six_plus_six_AcmsteeringV09_main_2lflm.obj
 0001:00025d40       sf_opaque_init_subchart_simstructs 0000000180026d40 f   c7_six_plus_six_AcmsteeringV09_main_2lflm.obj
 0001:00025d60       initSimStructsc7_six_plus_six_AcmsteeringV09_main_2lflm 0000000180026d60 f   c7_six_plus_six_AcmsteeringV09_main_2lflm.obj
 0001:00025d70       mdlRTW_c7_six_plus_six_AcmsteeringV09_main_2lflm 0000000180026d70 f   c7_six_plus_six_AcmsteeringV09_main_2lflm.obj
 0001:00025e20       c8_info_helper             0000000180026e20 f   c8_six_plus_six_AcmsteeringV09_main_2lflm.obj
 0001:000278c0       c8_emlrt_marshallOut       00000001800288c0 f   c8_six_plus_six_AcmsteeringV09_main_2lflm.obj
 0001:00027950       c8_b_emlrt_marshallOut     0000000180028950 f   c8_six_plus_six_AcmsteeringV09_main_2lflm.obj
 0001:00028620       get_sim_state_c8_six_plus_six_AcmsteeringV09_main_2lflm 0000000180029620 f   c8_six_plus_six_AcmsteeringV09_main_2lflm.obj
 0001:00028880       sf_get_sim_state_info_c8_six_plus_six_AcmsteeringV09_main_2lflm 0000000180029880 f   c8_six_plus_six_AcmsteeringV09_main_2lflm.obj
 0001:00028a50       set_sim_state_c8_six_plus_six_AcmsteeringV09_main_2lflm 0000000180029a50 f   c8_six_plus_six_AcmsteeringV09_main_2lflm.obj
 0001:00028b70       c8_update_debugger_state_c8_six_plus_six_AcmsteeringV09_main_2lf 0000000180029b70 f   c8_six_plus_six_AcmsteeringV09_main_2lflm.obj
 0001:00028b80       c8_emlrt_marshallIn        0000000180029b80 f   c8_six_plus_six_AcmsteeringV09_main_2lflm.obj
 0001:00028bf0       c8_b_emlrt_marshallIn      0000000180029bf0 f   c8_six_plus_six_AcmsteeringV09_main_2lflm.obj
 0001:00028c80       c8_e_emlrt_marshallIn      0000000180029c80 f   c8_six_plus_six_AcmsteeringV09_main_2lflm.obj
 0001:00028ce0       c8_f_emlrt_marshallIn      0000000180029ce0 f   c8_six_plus_six_AcmsteeringV09_main_2lflm.obj
 0001:00028de0       mdlProcessParameters_c8_six_plus_six_AcmsteeringV09_main_2lflm 0000000180029de0 f   c8_six_plus_six_AcmsteeringV09_main_2lflm.obj
 0001:00028ec0       initialize_params_c8_six_plus_six_AcmsteeringV09_main_2lflm 0000000180029ec0 f   c8_six_plus_six_AcmsteeringV09_main_2lflm.obj
 0001:00028ed0       mdlSetWorkWidths_c8_six_plus_six_AcmsteeringV09_main_2lflm 0000000180029ed0 f   c8_six_plus_six_AcmsteeringV09_main_2lflm.obj
 0001:00029460       sf_get_instance_specialization 000000018002a460 f   c8_six_plus_six_AcmsteeringV09_main_2lflm.obj
 0001:00029470       mdlStart_c8_six_plus_six_AcmsteeringV09_main_2lflm 000000018002a470 f   c8_six_plus_six_AcmsteeringV09_main_2lflm.obj
 0001:000296a0       init_dsm_address_info      000000018002a6a0 f   c8_six_plus_six_AcmsteeringV09_main_2lflm.obj
 0001:000296b0       chart_debug_initialization 000000018002a6b0 f   c8_six_plus_six_AcmsteeringV09_main_2lflm.obj
 0001:0002a5a0       init_script_number_translation 000000018002b5a0 f   c8_six_plus_six_AcmsteeringV09_main_2lflm.obj
 0001:0002a5c0       c8_sf_marshallOut          000000018002b5c0 f   c8_six_plus_six_AcmsteeringV09_main_2lflm.obj
 0001:0002a680       c8_sf_marshallIn           000000018002b680 f   c8_six_plus_six_AcmsteeringV09_main_2lflm.obj
 0001:0002a720       c8_b_sf_marshallOut        000000018002b720 f   c8_six_plus_six_AcmsteeringV09_main_2lflm.obj
 0001:0002a7d0       sf_opaque_initialize_c8_six_plus_six_AcmsteeringV09_main_2lflm 000000018002b7d0 f   c8_six_plus_six_AcmsteeringV09_main_2lflm.obj
 0001:0002a810       initialize_c8_six_plus_six_AcmsteeringV09_main_2lflm 000000018002b810 f   c8_six_plus_six_AcmsteeringV09_main_2lflm.obj
 0001:0002a860       sf_opaque_enable_c8_six_plus_six_AcmsteeringV09_main_2lflm 000000018002b860 f   c8_six_plus_six_AcmsteeringV09_main_2lflm.obj
 0001:0002a880       enable_c8_six_plus_six_AcmsteeringV09_main_2lflm 000000018002b880 f   c8_six_plus_six_AcmsteeringV09_main_2lflm.obj
 0001:0002a8b0       sf_opaque_disable_c8_six_plus_six_AcmsteeringV09_main_2lflm 000000018002b8b0 f   c8_six_plus_six_AcmsteeringV09_main_2lflm.obj
 0001:0002a8d0       disable_c8_six_plus_six_AcmsteeringV09_main_2lflm 000000018002b8d0 f   c8_six_plus_six_AcmsteeringV09_main_2lflm.obj
 0001:0002a900       sf_opaque_gateway_c8_six_plus_six_AcmsteeringV09_main_2lflm 000000018002b900 f   c8_six_plus_six_AcmsteeringV09_main_2lflm.obj
 0001:0002a920       sf_gateway_c8_six_plus_six_AcmsteeringV09_main_2lflm 000000018002b920 f   c8_six_plus_six_AcmsteeringV09_main_2lflm.obj
 0001:0002ad20       c8_chartstep_c8_six_plus_six_AcmsteeringV09_main_2lflm 000000018002bd20 f   c8_six_plus_six_AcmsteeringV09_main_2lflm.obj
 0001:0002bc80       c8_b_sf_marshallIn         000000018002cc80 f   c8_six_plus_six_AcmsteeringV09_main_2lflm.obj
 0001:0002bd20       c8_c_emlrt_marshallIn      000000018002cd20 f   c8_six_plus_six_AcmsteeringV09_main_2lflm.obj
 0001:0002bdb0       c8_eml_scalar_eg           000000018002cdb0 f   c8_six_plus_six_AcmsteeringV09_main_2lflm.obj
 0001:0002bdc0       sf_opaque_get_sim_state_c8_six_plus_six_AcmsteeringV09_main_2lflm 000000018002cdc0 f   c8_six_plus_six_AcmsteeringV09_main_2lflm.obj
 0001:0002bde0       sf_opaque_set_sim_state_c8_six_plus_six_AcmsteeringV09_main_2lflm 000000018002cde0 f   c8_six_plus_six_AcmsteeringV09_main_2lflm.obj
 0001:0002be10       sf_opaque_terminate_c8_six_plus_six_AcmsteeringV09_main_2lflm 000000018002ce10 f   c8_six_plus_six_AcmsteeringV09_main_2lflm.obj
 0001:0002beb0       finalize_c8_six_plus_six_AcmsteeringV09_main_2lflm 000000018002ceb0 f   c8_six_plus_six_AcmsteeringV09_main_2lflm.obj
 0001:0002bec0       sf_opaque_init_subchart_simstructs 000000018002cec0 f   c8_six_plus_six_AcmsteeringV09_main_2lflm.obj
 0001:0002bee0       initSimStructsc8_six_plus_six_AcmsteeringV09_main_2lflm 000000018002cee0 f   c8_six_plus_six_AcmsteeringV09_main_2lflm.obj
 0001:0002bef0       mdlRTW_c8_six_plus_six_AcmsteeringV09_main_2lflm 000000018002cef0 f   c8_six_plus_six_AcmsteeringV09_main_2lflm.obj
 0001:0002bfa0       c9_info_helper             000000018002cfa0 f   c9_six_plus_six_AcmsteeringV09_main_2lflm.obj
 0001:0002f7a0       c9_emlrt_marshallOut       00000001800307a0 f   c9_six_plus_six_AcmsteeringV09_main_2lflm.obj
 0001:0002f830       c9_b_emlrt_marshallOut     0000000180030830 f   c9_six_plus_six_AcmsteeringV09_main_2lflm.obj
 0001:00031c10       get_sim_state_c9_six_plus_six_AcmsteeringV09_main_2lflm 0000000180032c10 f   c9_six_plus_six_AcmsteeringV09_main_2lflm.obj
 0001:000323e0       sf_get_sim_state_info_c9_six_plus_six_AcmsteeringV09_main_2lflm 00000001800333e0 f   c9_six_plus_six_AcmsteeringV09_main_2lflm.obj
 0001:000325b0       set_sim_state_c9_six_plus_six_AcmsteeringV09_main_2lflm 00000001800335b0 f   c9_six_plus_six_AcmsteeringV09_main_2lflm.obj
 0001:00032940       c9_update_debugger_state_c9_six_plus_six_AcmsteeringV09_main_2lf 0000000180033940 f   c9_six_plus_six_AcmsteeringV09_main_2lflm.obj
 0001:00032950       c9_emlrt_marshallIn        0000000180033950 f   c9_six_plus_six_AcmsteeringV09_main_2lflm.obj
 0001:000329b0       c9_b_emlrt_marshallIn      00000001800339b0 f   c9_six_plus_six_AcmsteeringV09_main_2lflm.obj
 0001:00032a40       c9_c_emlrt_marshallIn      0000000180033a40 f   c9_six_plus_six_AcmsteeringV09_main_2lflm.obj
 0001:00032ab0       c9_d_emlrt_marshallIn      0000000180033ab0 f   c9_six_plus_six_AcmsteeringV09_main_2lflm.obj
 0001:00032b40       c9_g_emlrt_marshallIn      0000000180033b40 f   c9_six_plus_six_AcmsteeringV09_main_2lflm.obj
 0001:00032ba0       c9_h_emlrt_marshallIn      0000000180033ba0 f   c9_six_plus_six_AcmsteeringV09_main_2lflm.obj
 0001:00032ca0       mdlProcessParameters_c9_six_plus_six_AcmsteeringV09_main_2lflm 0000000180033ca0 f   c9_six_plus_six_AcmsteeringV09_main_2lflm.obj
 0001:00032d80       initialize_params_c9_six_plus_six_AcmsteeringV09_main_2lflm 0000000180033d80 f   c9_six_plus_six_AcmsteeringV09_main_2lflm.obj
 0001:00032d90       mdlSetWorkWidths_c9_six_plus_six_AcmsteeringV09_main_2lflm 0000000180033d90 f   c9_six_plus_six_AcmsteeringV09_main_2lflm.obj
 0001:00033530       sf_get_instance_specialization 0000000180034530 f   c9_six_plus_six_AcmsteeringV09_main_2lflm.obj
 0001:00033540       mdlStart_c9_six_plus_six_AcmsteeringV09_main_2lflm 0000000180034540 f   c9_six_plus_six_AcmsteeringV09_main_2lflm.obj
 0001:00033770       init_dsm_address_info      0000000180034770 f   c9_six_plus_six_AcmsteeringV09_main_2lflm.obj
 0001:00033780       chart_debug_initialization 0000000180034780 f   c9_six_plus_six_AcmsteeringV09_main_2lflm.obj
 0001:0003a250       init_script_number_translation 000000018003b250 f   c9_six_plus_six_AcmsteeringV09_main_2lflm.obj
 0001:0003a270       c9_sf_marshallOut          000000018003b270 f   c9_six_plus_six_AcmsteeringV09_main_2lflm.obj
 0001:0003a320       c9_sf_marshallIn           000000018003b320 f   c9_six_plus_six_AcmsteeringV09_main_2lflm.obj
 0001:0003a3c0       c9_b_sf_marshallOut        000000018003b3c0 f   c9_six_plus_six_AcmsteeringV09_main_2lflm.obj
 0001:0003a480       c9_b_sf_marshallIn         000000018003b480 f   c9_six_plus_six_AcmsteeringV09_main_2lflm.obj
 0001:0003a520       c9_c_sf_marshallOut        000000018003b520 f   c9_six_plus_six_AcmsteeringV09_main_2lflm.obj
 0001:0003a5d0       sf_opaque_initialize_c9_six_plus_six_AcmsteeringV09_main_2lflm 000000018003b5d0 f   c9_six_plus_six_AcmsteeringV09_main_2lflm.obj
 0001:0003a610       initialize_c9_six_plus_six_AcmsteeringV09_main_2lflm 000000018003b610 f   c9_six_plus_six_AcmsteeringV09_main_2lflm.obj
 0001:0003a660       sf_opaque_enable_c9_six_plus_six_AcmsteeringV09_main_2lflm 000000018003b660 f   c9_six_plus_six_AcmsteeringV09_main_2lflm.obj
 0001:0003a680       enable_c9_six_plus_six_AcmsteeringV09_main_2lflm 000000018003b680 f   c9_six_plus_six_AcmsteeringV09_main_2lflm.obj
 0001:0003a6b0       sf_opaque_disable_c9_six_plus_six_AcmsteeringV09_main_2lflm 000000018003b6b0 f   c9_six_plus_six_AcmsteeringV09_main_2lflm.obj
 0001:0003a6d0       disable_c9_six_plus_six_AcmsteeringV09_main_2lflm 000000018003b6d0 f   c9_six_plus_six_AcmsteeringV09_main_2lflm.obj
 0001:0003a700       sf_opaque_gateway_c9_six_plus_six_AcmsteeringV09_main_2lflm 000000018003b700 f   c9_six_plus_six_AcmsteeringV09_main_2lflm.obj
 0001:0003a720       sf_gateway_c9_six_plus_six_AcmsteeringV09_main_2lflm 000000018003b720 f   c9_six_plus_six_AcmsteeringV09_main_2lflm.obj
 0001:0003b2a0       c9_chartstep_c9_six_plus_six_AcmsteeringV09_main_2lflm 000000018003c2a0 f   c9_six_plus_six_AcmsteeringV09_main_2lflm.obj
 0001:0008bd30       c9_c_sf_marshallIn         000000018008cd30 f   c9_six_plus_six_AcmsteeringV09_main_2lflm.obj
 0001:0008bdd0       c9_e_emlrt_marshallIn      000000018008cdd0 f   c9_six_plus_six_AcmsteeringV09_main_2lflm.obj
 0001:0008be60       c9_eml_scalar_eg           000000018008ce60 f   c9_six_plus_six_AcmsteeringV09_main_2lflm.obj
 0001:0008be70       c9_b_eml_scalar_eg         000000018008ce70 f   c9_six_plus_six_AcmsteeringV09_main_2lflm.obj
 0001:0008be80       sf_opaque_get_sim_state_c9_six_plus_six_AcmsteeringV09_main_2lflm 000000018008ce80 f   c9_six_plus_six_AcmsteeringV09_main_2lflm.obj
 0001:0008bea0       sf_opaque_set_sim_state_c9_six_plus_six_AcmsteeringV09_main_2lflm 000000018008cea0 f   c9_six_plus_six_AcmsteeringV09_main_2lflm.obj
 0001:0008bed0       sf_opaque_terminate_c9_six_plus_six_AcmsteeringV09_main_2lflm 000000018008ced0 f   c9_six_plus_six_AcmsteeringV09_main_2lflm.obj
 0001:0008bf70       finalize_c9_six_plus_six_AcmsteeringV09_main_2lflm 000000018008cf70 f   c9_six_plus_six_AcmsteeringV09_main_2lflm.obj
 0001:0008bf80       sf_opaque_init_subchart_simstructs 000000018008cf80 f   c9_six_plus_six_AcmsteeringV09_main_2lflm.obj
 0001:0008bfa0       initSimStructsc9_six_plus_six_AcmsteeringV09_main_2lflm 000000018008cfa0 f   c9_six_plus_six_AcmsteeringV09_main_2lflm.obj
 0001:0008bfb0       mdlRTW_c9_six_plus_six_AcmsteeringV09_main_2lflm 000000018008cfb0 f   c9_six_plus_six_AcmsteeringV09_main_2lflm.obj
 0001:0008c670       get_sim_state_c10_six_plus_six_AcmsteeringV09_main_2lflm 000000018008d670 f   c10_six_plus_six_AcmsteeringV09_main_2lflm.obj
 0001:0008c810       sf_get_sim_state_info_c10_six_plus_six_AcmsteeringV09_main_2lflm 000000018008d810 f   c10_six_plus_six_AcmsteeringV09_main_2lflm.obj
 0001:0008c9e0       set_sim_state_c10_six_plus_six_AcmsteeringV09_main_2lflm 000000018008d9e0 f   c10_six_plus_six_AcmsteeringV09_main_2lflm.obj
 0001:0008cac0       c10_update_debugger_state_c10_six_plus_six_AcmsteeringV09_main_2 000000018008dac0 f   c10_six_plus_six_AcmsteeringV09_main_2lflm.obj
 0001:0008cad0       c10_emlrt_marshallIn       000000018008dad0 f   c10_six_plus_six_AcmsteeringV09_main_2lflm.obj
 0001:0008cb40       c10_b_emlrt_marshallIn     000000018008db40 f   c10_six_plus_six_AcmsteeringV09_main_2lflm.obj
 0001:0008cbd0       c10_e_emlrt_marshallIn     000000018008dbd0 f   c10_six_plus_six_AcmsteeringV09_main_2lflm.obj
 0001:0008cc30       c10_f_emlrt_marshallIn     000000018008dc30 f   c10_six_plus_six_AcmsteeringV09_main_2lflm.obj
 0001:0008cd30       mdlProcessParameters_c10_six_plus_six_AcmsteeringV09_main_2lflm 000000018008dd30 f   c10_six_plus_six_AcmsteeringV09_main_2lflm.obj
 0001:0008ce10       initialize_params_c10_six_plus_six_AcmsteeringV09_main_2lflm 000000018008de10 f   c10_six_plus_six_AcmsteeringV09_main_2lflm.obj
 0001:0008ce20       mdlSetWorkWidths_c10_six_plus_six_AcmsteeringV09_main_2lflm 000000018008de20 f   c10_six_plus_six_AcmsteeringV09_main_2lflm.obj
 0001:0008d2f0       sf_get_instance_specialization 000000018008e2f0 f   c10_six_plus_six_AcmsteeringV09_main_2lflm.obj
 0001:0008d300       mdlStart_c10_six_plus_six_AcmsteeringV09_main_2lflm 000000018008e300 f   c10_six_plus_six_AcmsteeringV09_main_2lflm.obj
 0001:0008d530       init_dsm_address_info      000000018008e530 f   c10_six_plus_six_AcmsteeringV09_main_2lflm.obj
 0001:0008d540       chart_debug_initialization 000000018008e540 f   c10_six_plus_six_AcmsteeringV09_main_2lflm.obj
 0001:0008dcf0       init_script_number_translation 000000018008ecf0 f   c10_six_plus_six_AcmsteeringV09_main_2lflm.obj
 0001:0008dd10       c10_sf_marshallOut         000000018008ed10 f   c10_six_plus_six_AcmsteeringV09_main_2lflm.obj
 0001:0008ddd0       c10_sf_marshallIn          000000018008edd0 f   c10_six_plus_six_AcmsteeringV09_main_2lflm.obj
 0001:0008de70       sf_opaque_initialize_c10_six_plus_six_AcmsteeringV09_main_2lflm 000000018008ee70 f   c10_six_plus_six_AcmsteeringV09_main_2lflm.obj
 0001:0008deb0       initialize_c10_six_plus_six_AcmsteeringV09_main_2lflm 000000018008eeb0 f   c10_six_plus_six_AcmsteeringV09_main_2lflm.obj
 0001:0008df00       sf_opaque_enable_c10_six_plus_six_AcmsteeringV09_main_2lflm 000000018008ef00 f   c10_six_plus_six_AcmsteeringV09_main_2lflm.obj
 0001:0008df20       enable_c10_six_plus_six_AcmsteeringV09_main_2lflm 000000018008ef20 f   c10_six_plus_six_AcmsteeringV09_main_2lflm.obj
 0001:0008df50       sf_opaque_disable_c10_six_plus_six_AcmsteeringV09_main_2lflm 000000018008ef50 f   c10_six_plus_six_AcmsteeringV09_main_2lflm.obj
 0001:0008df70       disable_c10_six_plus_six_AcmsteeringV09_main_2lflm 000000018008ef70 f   c10_six_plus_six_AcmsteeringV09_main_2lflm.obj
 0001:0008dfa0       sf_opaque_gateway_c10_six_plus_six_AcmsteeringV09_main_2lflm 000000018008efa0 f   c10_six_plus_six_AcmsteeringV09_main_2lflm.obj
 0001:0008dfc0       sf_gateway_c10_six_plus_six_AcmsteeringV09_main_2lflm 000000018008efc0 f   c10_six_plus_six_AcmsteeringV09_main_2lflm.obj
 0001:0008e6e0       c10_b_sf_marshallOut       000000018008f6e0 f   c10_six_plus_six_AcmsteeringV09_main_2lflm.obj
 0001:0008e790       c10_b_sf_marshallIn        000000018008f790 f   c10_six_plus_six_AcmsteeringV09_main_2lflm.obj
 0001:0008e830       c10_c_emlrt_marshallIn     000000018008f830 f   c10_six_plus_six_AcmsteeringV09_main_2lflm.obj
 0001:0008e8c0       sf_opaque_get_sim_state_c10_six_plus_six_AcmsteeringV09_main_2lflm 000000018008f8c0 f   c10_six_plus_six_AcmsteeringV09_main_2lflm.obj
 0001:0008e8e0       sf_opaque_set_sim_state_c10_six_plus_six_AcmsteeringV09_main_2lflm 000000018008f8e0 f   c10_six_plus_six_AcmsteeringV09_main_2lflm.obj
 0001:0008e910       sf_opaque_terminate_c10_six_plus_six_AcmsteeringV09_main_2lflm 000000018008f910 f   c10_six_plus_six_AcmsteeringV09_main_2lflm.obj
 0001:0008e9b0       finalize_c10_six_plus_six_AcmsteeringV09_main_2lflm 000000018008f9b0 f   c10_six_plus_six_AcmsteeringV09_main_2lflm.obj
 0001:0008e9c0       sf_opaque_init_subchart_simstructs 000000018008f9c0 f   c10_six_plus_six_AcmsteeringV09_main_2lflm.obj
 0001:0008e9e0       initSimStructsc10_six_plus_six_AcmsteeringV09_main_2lflm 000000018008f9e0 f   c10_six_plus_six_AcmsteeringV09_main_2lflm.obj
 0001:0008e9f0       mdlRTW_c10_six_plus_six_AcmsteeringV09_main_2lflm 000000018008f9f0 f   c10_six_plus_six_AcmsteeringV09_main_2lflm.obj
 0001:0008f0b0       get_sim_state_c11_six_plus_six_AcmsteeringV09_main_2lflm 00000001800900b0 f   c11_six_plus_six_AcmsteeringV09_main_2lflm.obj
 0001:0008f250       sf_get_sim_state_info_c11_six_plus_six_AcmsteeringV09_main_2lflm 0000000180090250 f   c11_six_plus_six_AcmsteeringV09_main_2lflm.obj
 0001:0008f420       set_sim_state_c11_six_plus_six_AcmsteeringV09_main_2lflm 0000000180090420 f   c11_six_plus_six_AcmsteeringV09_main_2lflm.obj
 0001:0008f500       c11_update_debugger_state_c11_six_plus_six_AcmsteeringV09_main_2 0000000180090500 f   c11_six_plus_six_AcmsteeringV09_main_2lflm.obj
 0001:0008f510       c11_emlrt_marshallIn       0000000180090510 f   c11_six_plus_six_AcmsteeringV09_main_2lflm.obj
 0001:0008f580       c11_b_emlrt_marshallIn     0000000180090580 f   c11_six_plus_six_AcmsteeringV09_main_2lflm.obj
 0001:0008f610       c11_e_emlrt_marshallIn     0000000180090610 f   c11_six_plus_six_AcmsteeringV09_main_2lflm.obj
 0001:0008f670       c11_f_emlrt_marshallIn     0000000180090670 f   c11_six_plus_six_AcmsteeringV09_main_2lflm.obj
 0001:0008f770       mdlProcessParameters_c11_six_plus_six_AcmsteeringV09_main_2lflm 0000000180090770 f   c11_six_plus_six_AcmsteeringV09_main_2lflm.obj
 0001:0008f850       initialize_params_c11_six_plus_six_AcmsteeringV09_main_2lflm 0000000180090850 f   c11_six_plus_six_AcmsteeringV09_main_2lflm.obj
 0001:0008f860       mdlSetWorkWidths_c11_six_plus_six_AcmsteeringV09_main_2lflm 0000000180090860 f   c11_six_plus_six_AcmsteeringV09_main_2lflm.obj
 0001:0008fd30       sf_get_instance_specialization 0000000180090d30 f   c11_six_plus_six_AcmsteeringV09_main_2lflm.obj
 0001:0008fd40       mdlStart_c11_six_plus_six_AcmsteeringV09_main_2lflm 0000000180090d40 f   c11_six_plus_six_AcmsteeringV09_main_2lflm.obj
 0001:0008ff70       init_dsm_address_info      0000000180090f70 f   c11_six_plus_six_AcmsteeringV09_main_2lflm.obj
 0001:0008ff80       chart_debug_initialization 0000000180090f80 f   c11_six_plus_six_AcmsteeringV09_main_2lflm.obj
 0001:00090730       init_script_number_translation 0000000180091730 f   c11_six_plus_six_AcmsteeringV09_main_2lflm.obj
 0001:00090750       c11_sf_marshallOut         0000000180091750 f   c11_six_plus_six_AcmsteeringV09_main_2lflm.obj
 0001:00090810       c11_sf_marshallIn          0000000180091810 f   c11_six_plus_six_AcmsteeringV09_main_2lflm.obj
 0001:000908b0       sf_opaque_initialize_c11_six_plus_six_AcmsteeringV09_main_2lflm 00000001800918b0 f   c11_six_plus_six_AcmsteeringV09_main_2lflm.obj
 0001:000908f0       initialize_c11_six_plus_six_AcmsteeringV09_main_2lflm 00000001800918f0 f   c11_six_plus_six_AcmsteeringV09_main_2lflm.obj
 0001:00090940       sf_opaque_enable_c11_six_plus_six_AcmsteeringV09_main_2lflm 0000000180091940 f   c11_six_plus_six_AcmsteeringV09_main_2lflm.obj
 0001:00090960       enable_c11_six_plus_six_AcmsteeringV09_main_2lflm 0000000180091960 f   c11_six_plus_six_AcmsteeringV09_main_2lflm.obj
 0001:00090990       sf_opaque_disable_c11_six_plus_six_AcmsteeringV09_main_2lflm 0000000180091990 f   c11_six_plus_six_AcmsteeringV09_main_2lflm.obj
 0001:000909b0       disable_c11_six_plus_six_AcmsteeringV09_main_2lflm 00000001800919b0 f   c11_six_plus_six_AcmsteeringV09_main_2lflm.obj
 0001:000909e0       sf_opaque_gateway_c11_six_plus_six_AcmsteeringV09_main_2lflm 00000001800919e0 f   c11_six_plus_six_AcmsteeringV09_main_2lflm.obj
 0001:00090a00       sf_gateway_c11_six_plus_six_AcmsteeringV09_main_2lflm 0000000180091a00 f   c11_six_plus_six_AcmsteeringV09_main_2lflm.obj
 0001:00091130       c11_b_sf_marshallOut       0000000180092130 f   c11_six_plus_six_AcmsteeringV09_main_2lflm.obj
 0001:000911e0       c11_b_sf_marshallIn        00000001800921e0 f   c11_six_plus_six_AcmsteeringV09_main_2lflm.obj
 0001:00091280       c11_c_emlrt_marshallIn     0000000180092280 f   c11_six_plus_six_AcmsteeringV09_main_2lflm.obj
 0001:00091310       sf_opaque_get_sim_state_c11_six_plus_six_AcmsteeringV09_main_2lflm 0000000180092310 f   c11_six_plus_six_AcmsteeringV09_main_2lflm.obj
 0001:00091330       sf_opaque_set_sim_state_c11_six_plus_six_AcmsteeringV09_main_2lflm 0000000180092330 f   c11_six_plus_six_AcmsteeringV09_main_2lflm.obj
 0001:00091360       sf_opaque_terminate_c11_six_plus_six_AcmsteeringV09_main_2lflm 0000000180092360 f   c11_six_plus_six_AcmsteeringV09_main_2lflm.obj
 0001:00091400       finalize_c11_six_plus_six_AcmsteeringV09_main_2lflm 0000000180092400 f   c11_six_plus_six_AcmsteeringV09_main_2lflm.obj
 0001:00091410       sf_opaque_init_subchart_simstructs 0000000180092410 f   c11_six_plus_six_AcmsteeringV09_main_2lflm.obj
 0001:00091430       initSimStructsc11_six_plus_six_AcmsteeringV09_main_2lflm 0000000180092430 f   c11_six_plus_six_AcmsteeringV09_main_2lflm.obj
 0001:00091440       mdlRTW_c11_six_plus_six_AcmsteeringV09_main_2lflm 0000000180092440 f   c11_six_plus_six_AcmsteeringV09_main_2lflm.obj
 0001:00091b00       get_sim_state_c12_six_plus_six_AcmsteeringV09_main_2lflm 0000000180092b00 f   c12_six_plus_six_AcmsteeringV09_main_2lflm.obj
 0001:00091ca0       sf_get_sim_state_info_c12_six_plus_six_AcmsteeringV09_main_2lflm 0000000180092ca0 f   c12_six_plus_six_AcmsteeringV09_main_2lflm.obj
 0001:00091e70       set_sim_state_c12_six_plus_six_AcmsteeringV09_main_2lflm 0000000180092e70 f   c12_six_plus_six_AcmsteeringV09_main_2lflm.obj
 0001:00091f50       c12_update_debugger_state_c12_six_plus_six_AcmsteeringV09_main_2 0000000180092f50 f   c12_six_plus_six_AcmsteeringV09_main_2lflm.obj
 0001:00091f60       c12_emlrt_marshallIn       0000000180092f60 f   c12_six_plus_six_AcmsteeringV09_main_2lflm.obj
 0001:00091fd0       c12_b_emlrt_marshallIn     0000000180092fd0 f   c12_six_plus_six_AcmsteeringV09_main_2lflm.obj
 0001:00092060       c12_e_emlrt_marshallIn     0000000180093060 f   c12_six_plus_six_AcmsteeringV09_main_2lflm.obj
 0001:000920c0       c12_f_emlrt_marshallIn     00000001800930c0 f   c12_six_plus_six_AcmsteeringV09_main_2lflm.obj
 0001:000921c0       mdlProcessParameters_c12_six_plus_six_AcmsteeringV09_main_2lflm 00000001800931c0 f   c12_six_plus_six_AcmsteeringV09_main_2lflm.obj
 0001:000922a0       initialize_params_c12_six_plus_six_AcmsteeringV09_main_2lflm 00000001800932a0 f   c12_six_plus_six_AcmsteeringV09_main_2lflm.obj
 0001:000922b0       mdlSetWorkWidths_c12_six_plus_six_AcmsteeringV09_main_2lflm 00000001800932b0 f   c12_six_plus_six_AcmsteeringV09_main_2lflm.obj
 0001:00092780       sf_get_instance_specialization 0000000180093780 f   c12_six_plus_six_AcmsteeringV09_main_2lflm.obj
 0001:00092790       mdlStart_c12_six_plus_six_AcmsteeringV09_main_2lflm 0000000180093790 f   c12_six_plus_six_AcmsteeringV09_main_2lflm.obj
 0001:000929c0       init_dsm_address_info      00000001800939c0 f   c12_six_plus_six_AcmsteeringV09_main_2lflm.obj
 0001:000929d0       chart_debug_initialization 00000001800939d0 f   c12_six_plus_six_AcmsteeringV09_main_2lflm.obj
 0001:00093180       init_script_number_translation 0000000180094180 f   c12_six_plus_six_AcmsteeringV09_main_2lflm.obj
 0001:000931a0       c12_sf_marshallOut         00000001800941a0 f   c12_six_plus_six_AcmsteeringV09_main_2lflm.obj
 0001:00093260       c12_sf_marshallIn          0000000180094260 f   c12_six_plus_six_AcmsteeringV09_main_2lflm.obj
 0001:00093300       sf_opaque_initialize_c12_six_plus_six_AcmsteeringV09_main_2lflm 0000000180094300 f   c12_six_plus_six_AcmsteeringV09_main_2lflm.obj
 0001:00093340       initialize_c12_six_plus_six_AcmsteeringV09_main_2lflm 0000000180094340 f   c12_six_plus_six_AcmsteeringV09_main_2lflm.obj
 0001:00093390       sf_opaque_enable_c12_six_plus_six_AcmsteeringV09_main_2lflm 0000000180094390 f   c12_six_plus_six_AcmsteeringV09_main_2lflm.obj
 0001:000933b0       enable_c12_six_plus_six_AcmsteeringV09_main_2lflm 00000001800943b0 f   c12_six_plus_six_AcmsteeringV09_main_2lflm.obj
 0001:000933e0       sf_opaque_disable_c12_six_plus_six_AcmsteeringV09_main_2lflm 00000001800943e0 f   c12_six_plus_six_AcmsteeringV09_main_2lflm.obj
 0001:00093400       disable_c12_six_plus_six_AcmsteeringV09_main_2lflm 0000000180094400 f   c12_six_plus_six_AcmsteeringV09_main_2lflm.obj
 0001:00093430       sf_opaque_gateway_c12_six_plus_six_AcmsteeringV09_main_2lflm 0000000180094430 f   c12_six_plus_six_AcmsteeringV09_main_2lflm.obj
 0001:00093450       sf_gateway_c12_six_plus_six_AcmsteeringV09_main_2lflm 0000000180094450 f   c12_six_plus_six_AcmsteeringV09_main_2lflm.obj
 0001:00093b70       c12_b_sf_marshallOut       0000000180094b70 f   c12_six_plus_six_AcmsteeringV09_main_2lflm.obj
 0001:00093c20       c12_b_sf_marshallIn        0000000180094c20 f   c12_six_plus_six_AcmsteeringV09_main_2lflm.obj
 0001:00093cc0       c12_c_emlrt_marshallIn     0000000180094cc0 f   c12_six_plus_six_AcmsteeringV09_main_2lflm.obj
 0001:00093d50       sf_opaque_get_sim_state_c12_six_plus_six_AcmsteeringV09_main_2lflm 0000000180094d50 f   c12_six_plus_six_AcmsteeringV09_main_2lflm.obj
 0001:00093d70       sf_opaque_set_sim_state_c12_six_plus_six_AcmsteeringV09_main_2lflm 0000000180094d70 f   c12_six_plus_six_AcmsteeringV09_main_2lflm.obj
 0001:00093da0       sf_opaque_terminate_c12_six_plus_six_AcmsteeringV09_main_2lflm 0000000180094da0 f   c12_six_plus_six_AcmsteeringV09_main_2lflm.obj
 0001:00093e40       finalize_c12_six_plus_six_AcmsteeringV09_main_2lflm 0000000180094e40 f   c12_six_plus_six_AcmsteeringV09_main_2lflm.obj
 0001:00093e50       sf_opaque_init_subchart_simstructs 0000000180094e50 f   c12_six_plus_six_AcmsteeringV09_main_2lflm.obj
 0001:00093e70       initSimStructsc12_six_plus_six_AcmsteeringV09_main_2lflm 0000000180094e70 f   c12_six_plus_six_AcmsteeringV09_main_2lflm.obj
 0001:00093e80       mdlRTW_c12_six_plus_six_AcmsteeringV09_main_2lflm 0000000180094e80 f   c12_six_plus_six_AcmsteeringV09_main_2lflm.obj
 0001:00094540       get_sim_state_c13_six_plus_six_AcmsteeringV09_main_2lflm 0000000180095540 f   c13_six_plus_six_AcmsteeringV09_main_2lflm.obj
 0001:000946e0       sf_get_sim_state_info_c13_six_plus_six_AcmsteeringV09_main_2lflm 00000001800956e0 f   c13_six_plus_six_AcmsteeringV09_main_2lflm.obj
 0001:000948b0       set_sim_state_c13_six_plus_six_AcmsteeringV09_main_2lflm 00000001800958b0 f   c13_six_plus_six_AcmsteeringV09_main_2lflm.obj
 0001:00094990       c13_update_debugger_state_c13_six_plus_six_AcmsteeringV09_main_2 0000000180095990 f   c13_six_plus_six_AcmsteeringV09_main_2lflm.obj
 0001:000949a0       c13_emlrt_marshallIn       00000001800959a0 f   c13_six_plus_six_AcmsteeringV09_main_2lflm.obj
 0001:00094a10       c13_b_emlrt_marshallIn     0000000180095a10 f   c13_six_plus_six_AcmsteeringV09_main_2lflm.obj
 0001:00094aa0       c13_e_emlrt_marshallIn     0000000180095aa0 f   c13_six_plus_six_AcmsteeringV09_main_2lflm.obj
 0001:00094b00       c13_f_emlrt_marshallIn     0000000180095b00 f   c13_six_plus_six_AcmsteeringV09_main_2lflm.obj
 0001:00094c00       mdlProcessParameters_c13_six_plus_six_AcmsteeringV09_main_2lflm 0000000180095c00 f   c13_six_plus_six_AcmsteeringV09_main_2lflm.obj
 0001:00094ce0       initialize_params_c13_six_plus_six_AcmsteeringV09_main_2lflm 0000000180095ce0 f   c13_six_plus_six_AcmsteeringV09_main_2lflm.obj
 0001:00094cf0       mdlSetWorkWidths_c13_six_plus_six_AcmsteeringV09_main_2lflm 0000000180095cf0 f   c13_six_plus_six_AcmsteeringV09_main_2lflm.obj
 0001:000951c0       sf_get_instance_specialization 00000001800961c0 f   c13_six_plus_six_AcmsteeringV09_main_2lflm.obj
 0001:000951d0       mdlStart_c13_six_plus_six_AcmsteeringV09_main_2lflm 00000001800961d0 f   c13_six_plus_six_AcmsteeringV09_main_2lflm.obj
 0001:00095400       init_dsm_address_info      0000000180096400 f   c13_six_plus_six_AcmsteeringV09_main_2lflm.obj
 0001:00095410       chart_debug_initialization 0000000180096410 f   c13_six_plus_six_AcmsteeringV09_main_2lflm.obj
 0001:00095bc0       init_script_number_translation 0000000180096bc0 f   c13_six_plus_six_AcmsteeringV09_main_2lflm.obj
 0001:00095be0       c13_sf_marshallOut         0000000180096be0 f   c13_six_plus_six_AcmsteeringV09_main_2lflm.obj
 0001:00095ca0       c13_sf_marshallIn          0000000180096ca0 f   c13_six_plus_six_AcmsteeringV09_main_2lflm.obj
 0001:00095d40       sf_opaque_initialize_c13_six_plus_six_AcmsteeringV09_main_2lflm 0000000180096d40 f   c13_six_plus_six_AcmsteeringV09_main_2lflm.obj
 0001:00095d80       initialize_c13_six_plus_six_AcmsteeringV09_main_2lflm 0000000180096d80 f   c13_six_plus_six_AcmsteeringV09_main_2lflm.obj
 0001:00095dd0       sf_opaque_enable_c13_six_plus_six_AcmsteeringV09_main_2lflm 0000000180096dd0 f   c13_six_plus_six_AcmsteeringV09_main_2lflm.obj
 0001:00095df0       enable_c13_six_plus_six_AcmsteeringV09_main_2lflm 0000000180096df0 f   c13_six_plus_six_AcmsteeringV09_main_2lflm.obj
 0001:00095e20       sf_opaque_disable_c13_six_plus_six_AcmsteeringV09_main_2lflm 0000000180096e20 f   c13_six_plus_six_AcmsteeringV09_main_2lflm.obj
 0001:00095e40       disable_c13_six_plus_six_AcmsteeringV09_main_2lflm 0000000180096e40 f   c13_six_plus_six_AcmsteeringV09_main_2lflm.obj
 0001:00095e70       sf_opaque_gateway_c13_six_plus_six_AcmsteeringV09_main_2lflm 0000000180096e70 f   c13_six_plus_six_AcmsteeringV09_main_2lflm.obj
 0001:00095e90       sf_gateway_c13_six_plus_six_AcmsteeringV09_main_2lflm 0000000180096e90 f   c13_six_plus_six_AcmsteeringV09_main_2lflm.obj
 0001:000965b0       c13_b_sf_marshallOut       00000001800975b0 f   c13_six_plus_six_AcmsteeringV09_main_2lflm.obj
 0001:00096660       c13_b_sf_marshallIn        0000000180097660 f   c13_six_plus_six_AcmsteeringV09_main_2lflm.obj
 0001:00096700       c13_c_emlrt_marshallIn     0000000180097700 f   c13_six_plus_six_AcmsteeringV09_main_2lflm.obj
 0001:00096790       sf_opaque_get_sim_state_c13_six_plus_six_AcmsteeringV09_main_2lflm 0000000180097790 f   c13_six_plus_six_AcmsteeringV09_main_2lflm.obj
 0001:000967b0       sf_opaque_set_sim_state_c13_six_plus_six_AcmsteeringV09_main_2lflm 00000001800977b0 f   c13_six_plus_six_AcmsteeringV09_main_2lflm.obj
 0001:000967e0       sf_opaque_terminate_c13_six_plus_six_AcmsteeringV09_main_2lflm 00000001800977e0 f   c13_six_plus_six_AcmsteeringV09_main_2lflm.obj
 0001:00096880       finalize_c13_six_plus_six_AcmsteeringV09_main_2lflm 0000000180097880 f   c13_six_plus_six_AcmsteeringV09_main_2lflm.obj
 0001:00096890       sf_opaque_init_subchart_simstructs 0000000180097890 f   c13_six_plus_six_AcmsteeringV09_main_2lflm.obj
 0001:000968b0       initSimStructsc13_six_plus_six_AcmsteeringV09_main_2lflm 00000001800978b0 f   c13_six_plus_six_AcmsteeringV09_main_2lflm.obj
 0001:000968c0       mdlRTW_c13_six_plus_six_AcmsteeringV09_main_2lflm 00000001800978c0 f   c13_six_plus_six_AcmsteeringV09_main_2lflm.obj
 0001:00096f80       get_sim_state_c14_six_plus_six_AcmsteeringV09_main_2lflm 0000000180097f80 f   c14_six_plus_six_AcmsteeringV09_main_2lflm.obj
 0001:00097120       sf_get_sim_state_info_c14_six_plus_six_AcmsteeringV09_main_2lflm 0000000180098120 f   c14_six_plus_six_AcmsteeringV09_main_2lflm.obj
 0001:000972f0       set_sim_state_c14_six_plus_six_AcmsteeringV09_main_2lflm 00000001800982f0 f   c14_six_plus_six_AcmsteeringV09_main_2lflm.obj
 0001:000973d0       c14_update_debugger_state_c14_six_plus_six_AcmsteeringV09_main_2 00000001800983d0 f   c14_six_plus_six_AcmsteeringV09_main_2lflm.obj
 0001:000973e0       c14_emlrt_marshallIn       00000001800983e0 f   c14_six_plus_six_AcmsteeringV09_main_2lflm.obj
 0001:00097450       c14_b_emlrt_marshallIn     0000000180098450 f   c14_six_plus_six_AcmsteeringV09_main_2lflm.obj
 0001:000974e0       c14_e_emlrt_marshallIn     00000001800984e0 f   c14_six_plus_six_AcmsteeringV09_main_2lflm.obj
 0001:00097540       c14_f_emlrt_marshallIn     0000000180098540 f   c14_six_plus_six_AcmsteeringV09_main_2lflm.obj
 0001:00097640       mdlProcessParameters_c14_six_plus_six_AcmsteeringV09_main_2lflm 0000000180098640 f   c14_six_plus_six_AcmsteeringV09_main_2lflm.obj
 0001:00097720       initialize_params_c14_six_plus_six_AcmsteeringV09_main_2lflm 0000000180098720 f   c14_six_plus_six_AcmsteeringV09_main_2lflm.obj
 0001:00097730       mdlSetWorkWidths_c14_six_plus_six_AcmsteeringV09_main_2lflm 0000000180098730 f   c14_six_plus_six_AcmsteeringV09_main_2lflm.obj
 0001:00097c00       sf_get_instance_specialization 0000000180098c00 f   c14_six_plus_six_AcmsteeringV09_main_2lflm.obj
 0001:00097c10       mdlStart_c14_six_plus_six_AcmsteeringV09_main_2lflm 0000000180098c10 f   c14_six_plus_six_AcmsteeringV09_main_2lflm.obj
 0001:00097e40       init_dsm_address_info      0000000180098e40 f   c14_six_plus_six_AcmsteeringV09_main_2lflm.obj
 0001:00097e50       chart_debug_initialization 0000000180098e50 f   c14_six_plus_six_AcmsteeringV09_main_2lflm.obj
 0001:00098600       init_script_number_translation 0000000180099600 f   c14_six_plus_six_AcmsteeringV09_main_2lflm.obj
 0001:00098620       c14_sf_marshallOut         0000000180099620 f   c14_six_plus_six_AcmsteeringV09_main_2lflm.obj
 0001:000986e0       c14_sf_marshallIn          00000001800996e0 f   c14_six_plus_six_AcmsteeringV09_main_2lflm.obj
 0001:00098780       sf_opaque_initialize_c14_six_plus_six_AcmsteeringV09_main_2lflm 0000000180099780 f   c14_six_plus_six_AcmsteeringV09_main_2lflm.obj
 0001:000987c0       initialize_c14_six_plus_six_AcmsteeringV09_main_2lflm 00000001800997c0 f   c14_six_plus_six_AcmsteeringV09_main_2lflm.obj
 0001:00098810       sf_opaque_enable_c14_six_plus_six_AcmsteeringV09_main_2lflm 0000000180099810 f   c14_six_plus_six_AcmsteeringV09_main_2lflm.obj
 0001:00098830       enable_c14_six_plus_six_AcmsteeringV09_main_2lflm 0000000180099830 f   c14_six_plus_six_AcmsteeringV09_main_2lflm.obj
 0001:00098860       sf_opaque_disable_c14_six_plus_six_AcmsteeringV09_main_2lflm 0000000180099860 f   c14_six_plus_six_AcmsteeringV09_main_2lflm.obj
 0001:00098880       disable_c14_six_plus_six_AcmsteeringV09_main_2lflm 0000000180099880 f   c14_six_plus_six_AcmsteeringV09_main_2lflm.obj
 0001:000988b0       sf_opaque_gateway_c14_six_plus_six_AcmsteeringV09_main_2lflm 00000001800998b0 f   c14_six_plus_six_AcmsteeringV09_main_2lflm.obj
 0001:000988d0       sf_gateway_c14_six_plus_six_AcmsteeringV09_main_2lflm 00000001800998d0 f   c14_six_plus_six_AcmsteeringV09_main_2lflm.obj
 0001:00098fe0       c14_b_sf_marshallOut       0000000180099fe0 f   c14_six_plus_six_AcmsteeringV09_main_2lflm.obj
 0001:00099090       c14_b_sf_marshallIn        000000018009a090 f   c14_six_plus_six_AcmsteeringV09_main_2lflm.obj
 0001:00099130       c14_c_emlrt_marshallIn     000000018009a130 f   c14_six_plus_six_AcmsteeringV09_main_2lflm.obj
 0001:000991c0       sf_opaque_get_sim_state_c14_six_plus_six_AcmsteeringV09_main_2lflm 000000018009a1c0 f   c14_six_plus_six_AcmsteeringV09_main_2lflm.obj
 0001:000991e0       sf_opaque_set_sim_state_c14_six_plus_six_AcmsteeringV09_main_2lflm 000000018009a1e0 f   c14_six_plus_six_AcmsteeringV09_main_2lflm.obj
 0001:00099210       sf_opaque_terminate_c14_six_plus_six_AcmsteeringV09_main_2lflm 000000018009a210 f   c14_six_plus_six_AcmsteeringV09_main_2lflm.obj
 0001:000992b0       finalize_c14_six_plus_six_AcmsteeringV09_main_2lflm 000000018009a2b0 f   c14_six_plus_six_AcmsteeringV09_main_2lflm.obj
 0001:000992c0       sf_opaque_init_subchart_simstructs 000000018009a2c0 f   c14_six_plus_six_AcmsteeringV09_main_2lflm.obj
 0001:000992e0       initSimStructsc14_six_plus_six_AcmsteeringV09_main_2lflm 000000018009a2e0 f   c14_six_plus_six_AcmsteeringV09_main_2lflm.obj
 0001:000992f0       mdlRTW_c14_six_plus_six_AcmsteeringV09_main_2lflm 000000018009a2f0 f   c14_six_plus_six_AcmsteeringV09_main_2lflm.obj
 0001:000999b0       get_sim_state_c15_six_plus_six_AcmsteeringV09_main_2lflm 000000018009a9b0 f   c15_six_plus_six_AcmsteeringV09_main_2lflm.obj
 0001:00099b50       sf_get_sim_state_info_c15_six_plus_six_AcmsteeringV09_main_2lflm 000000018009ab50 f   c15_six_plus_six_AcmsteeringV09_main_2lflm.obj
 0001:00099d20       set_sim_state_c15_six_plus_six_AcmsteeringV09_main_2lflm 000000018009ad20 f   c15_six_plus_six_AcmsteeringV09_main_2lflm.obj
 0001:00099e00       c15_update_debugger_state_c15_six_plus_six_AcmsteeringV09_main_2 000000018009ae00 f   c15_six_plus_six_AcmsteeringV09_main_2lflm.obj
 0001:00099e10       c15_emlrt_marshallIn       000000018009ae10 f   c15_six_plus_six_AcmsteeringV09_main_2lflm.obj
 0001:00099e80       c15_b_emlrt_marshallIn     000000018009ae80 f   c15_six_plus_six_AcmsteeringV09_main_2lflm.obj
 0001:00099f10       c15_e_emlrt_marshallIn     000000018009af10 f   c15_six_plus_six_AcmsteeringV09_main_2lflm.obj
 0001:00099f70       c15_f_emlrt_marshallIn     000000018009af70 f   c15_six_plus_six_AcmsteeringV09_main_2lflm.obj
 0001:0009a070       mdlProcessParameters_c15_six_plus_six_AcmsteeringV09_main_2lflm 000000018009b070 f   c15_six_plus_six_AcmsteeringV09_main_2lflm.obj
 0001:0009a150       initialize_params_c15_six_plus_six_AcmsteeringV09_main_2lflm 000000018009b150 f   c15_six_plus_six_AcmsteeringV09_main_2lflm.obj
 0001:0009a160       mdlSetWorkWidths_c15_six_plus_six_AcmsteeringV09_main_2lflm 000000018009b160 f   c15_six_plus_six_AcmsteeringV09_main_2lflm.obj
 0001:0009a630       sf_get_instance_specialization 000000018009b630 f   c15_six_plus_six_AcmsteeringV09_main_2lflm.obj
 0001:0009a640       mdlStart_c15_six_plus_six_AcmsteeringV09_main_2lflm 000000018009b640 f   c15_six_plus_six_AcmsteeringV09_main_2lflm.obj
 0001:0009a870       init_dsm_address_info      000000018009b870 f   c15_six_plus_six_AcmsteeringV09_main_2lflm.obj
 0001:0009a880       chart_debug_initialization 000000018009b880 f   c15_six_plus_six_AcmsteeringV09_main_2lflm.obj
 0001:0009b030       init_script_number_translation 000000018009c030 f   c15_six_plus_six_AcmsteeringV09_main_2lflm.obj
 0001:0009b050       c15_sf_marshallOut         000000018009c050 f   c15_six_plus_six_AcmsteeringV09_main_2lflm.obj
 0001:0009b110       c15_sf_marshallIn          000000018009c110 f   c15_six_plus_six_AcmsteeringV09_main_2lflm.obj
 0001:0009b1b0       sf_opaque_initialize_c15_six_plus_six_AcmsteeringV09_main_2lflm 000000018009c1b0 f   c15_six_plus_six_AcmsteeringV09_main_2lflm.obj
 0001:0009b1f0       initialize_c15_six_plus_six_AcmsteeringV09_main_2lflm 000000018009c1f0 f   c15_six_plus_six_AcmsteeringV09_main_2lflm.obj
 0001:0009b240       sf_opaque_enable_c15_six_plus_six_AcmsteeringV09_main_2lflm 000000018009c240 f   c15_six_plus_six_AcmsteeringV09_main_2lflm.obj
 0001:0009b260       enable_c15_six_plus_six_AcmsteeringV09_main_2lflm 000000018009c260 f   c15_six_plus_six_AcmsteeringV09_main_2lflm.obj
 0001:0009b290       sf_opaque_disable_c15_six_plus_six_AcmsteeringV09_main_2lflm 000000018009c290 f   c15_six_plus_six_AcmsteeringV09_main_2lflm.obj
 0001:0009b2b0       disable_c15_six_plus_six_AcmsteeringV09_main_2lflm 000000018009c2b0 f   c15_six_plus_six_AcmsteeringV09_main_2lflm.obj
 0001:0009b2e0       sf_opaque_gateway_c15_six_plus_six_AcmsteeringV09_main_2lflm 000000018009c2e0 f   c15_six_plus_six_AcmsteeringV09_main_2lflm.obj
 0001:0009b300       sf_gateway_c15_six_plus_six_AcmsteeringV09_main_2lflm 000000018009c300 f   c15_six_plus_six_AcmsteeringV09_main_2lflm.obj
 0001:0009ba20       c15_b_sf_marshallOut       000000018009ca20 f   c15_six_plus_six_AcmsteeringV09_main_2lflm.obj
 0001:0009bad0       c15_b_sf_marshallIn        000000018009cad0 f   c15_six_plus_six_AcmsteeringV09_main_2lflm.obj
 0001:0009bb70       c15_c_emlrt_marshallIn     000000018009cb70 f   c15_six_plus_six_AcmsteeringV09_main_2lflm.obj
 0001:0009bc00       sf_opaque_get_sim_state_c15_six_plus_six_AcmsteeringV09_main_2lflm 000000018009cc00 f   c15_six_plus_six_AcmsteeringV09_main_2lflm.obj
 0001:0009bc20       sf_opaque_set_sim_state_c15_six_plus_six_AcmsteeringV09_main_2lflm 000000018009cc20 f   c15_six_plus_six_AcmsteeringV09_main_2lflm.obj
 0001:0009bc50       sf_opaque_terminate_c15_six_plus_six_AcmsteeringV09_main_2lflm 000000018009cc50 f   c15_six_plus_six_AcmsteeringV09_main_2lflm.obj
 0001:0009bcf0       finalize_c15_six_plus_six_AcmsteeringV09_main_2lflm 000000018009ccf0 f   c15_six_plus_six_AcmsteeringV09_main_2lflm.obj
 0001:0009bd00       sf_opaque_init_subchart_simstructs 000000018009cd00 f   c15_six_plus_six_AcmsteeringV09_main_2lflm.obj
 0001:0009bd20       initSimStructsc15_six_plus_six_AcmsteeringV09_main_2lflm 000000018009cd20 f   c15_six_plus_six_AcmsteeringV09_main_2lflm.obj
 0001:0009bd30       mdlRTW_c15_six_plus_six_AcmsteeringV09_main_2lflm 000000018009cd30 f   c15_six_plus_six_AcmsteeringV09_main_2lflm.obj
 0001:0009c3f0       get_sim_state_c16_six_plus_six_AcmsteeringV09_main_2lflm 000000018009d3f0 f   c16_six_plus_six_AcmsteeringV09_main_2lflm.obj
 0001:0009c590       sf_get_sim_state_info_c16_six_plus_six_AcmsteeringV09_main_2lflm 000000018009d590 f   c16_six_plus_six_AcmsteeringV09_main_2lflm.obj
 0001:0009c760       set_sim_state_c16_six_plus_six_AcmsteeringV09_main_2lflm 000000018009d760 f   c16_six_plus_six_AcmsteeringV09_main_2lflm.obj
 0001:0009c840       c16_update_debugger_state_c16_six_plus_six_AcmsteeringV09_main_2 000000018009d840 f   c16_six_plus_six_AcmsteeringV09_main_2lflm.obj
 0001:0009c850       c16_emlrt_marshallIn       000000018009d850 f   c16_six_plus_six_AcmsteeringV09_main_2lflm.obj
 0001:0009c8c0       c16_b_emlrt_marshallIn     000000018009d8c0 f   c16_six_plus_six_AcmsteeringV09_main_2lflm.obj
 0001:0009c950       c16_e_emlrt_marshallIn     000000018009d950 f   c16_six_plus_six_AcmsteeringV09_main_2lflm.obj
 0001:0009c9b0       c16_f_emlrt_marshallIn     000000018009d9b0 f   c16_six_plus_six_AcmsteeringV09_main_2lflm.obj
 0001:0009cab0       mdlProcessParameters_c16_six_plus_six_AcmsteeringV09_main_2lflm 000000018009dab0 f   c16_six_plus_six_AcmsteeringV09_main_2lflm.obj
 0001:0009cb90       initialize_params_c16_six_plus_six_AcmsteeringV09_main_2lflm 000000018009db90 f   c16_six_plus_six_AcmsteeringV09_main_2lflm.obj
 0001:0009cba0       mdlSetWorkWidths_c16_six_plus_six_AcmsteeringV09_main_2lflm 000000018009dba0 f   c16_six_plus_six_AcmsteeringV09_main_2lflm.obj
 0001:0009d070       sf_get_instance_specialization 000000018009e070 f   c16_six_plus_six_AcmsteeringV09_main_2lflm.obj
 0001:0009d080       mdlStart_c16_six_plus_six_AcmsteeringV09_main_2lflm 000000018009e080 f   c16_six_plus_six_AcmsteeringV09_main_2lflm.obj
 0001:0009d2b0       init_dsm_address_info      000000018009e2b0 f   c16_six_plus_six_AcmsteeringV09_main_2lflm.obj
 0001:0009d2c0       chart_debug_initialization 000000018009e2c0 f   c16_six_plus_six_AcmsteeringV09_main_2lflm.obj
 0001:0009da70       init_script_number_translation 000000018009ea70 f   c16_six_plus_six_AcmsteeringV09_main_2lflm.obj
 0001:0009da90       c16_sf_marshallOut         000000018009ea90 f   c16_six_plus_six_AcmsteeringV09_main_2lflm.obj
 0001:0009db50       c16_sf_marshallIn          000000018009eb50 f   c16_six_plus_six_AcmsteeringV09_main_2lflm.obj
 0001:0009dbf0       sf_opaque_initialize_c16_six_plus_six_AcmsteeringV09_main_2lflm 000000018009ebf0 f   c16_six_plus_six_AcmsteeringV09_main_2lflm.obj
 0001:0009dc30       initialize_c16_six_plus_six_AcmsteeringV09_main_2lflm 000000018009ec30 f   c16_six_plus_six_AcmsteeringV09_main_2lflm.obj
 0001:0009dc80       sf_opaque_enable_c16_six_plus_six_AcmsteeringV09_main_2lflm 000000018009ec80 f   c16_six_plus_six_AcmsteeringV09_main_2lflm.obj
 0001:0009dca0       enable_c16_six_plus_six_AcmsteeringV09_main_2lflm 000000018009eca0 f   c16_six_plus_six_AcmsteeringV09_main_2lflm.obj
 0001:0009dcd0       sf_opaque_disable_c16_six_plus_six_AcmsteeringV09_main_2lflm 000000018009ecd0 f   c16_six_plus_six_AcmsteeringV09_main_2lflm.obj
 0001:0009dcf0       disable_c16_six_plus_six_AcmsteeringV09_main_2lflm 000000018009ecf0 f   c16_six_plus_six_AcmsteeringV09_main_2lflm.obj
 0001:0009dd20       sf_opaque_gateway_c16_six_plus_six_AcmsteeringV09_main_2lflm 000000018009ed20 f   c16_six_plus_six_AcmsteeringV09_main_2lflm.obj
 0001:0009dd40       sf_gateway_c16_six_plus_six_AcmsteeringV09_main_2lflm 000000018009ed40 f   c16_six_plus_six_AcmsteeringV09_main_2lflm.obj
 0001:0009e460       c16_b_sf_marshallOut       000000018009f460 f   c16_six_plus_six_AcmsteeringV09_main_2lflm.obj
 0001:0009e510       c16_b_sf_marshallIn        000000018009f510 f   c16_six_plus_six_AcmsteeringV09_main_2lflm.obj
 0001:0009e5b0       c16_c_emlrt_marshallIn     000000018009f5b0 f   c16_six_plus_six_AcmsteeringV09_main_2lflm.obj
 0001:0009e640       sf_opaque_get_sim_state_c16_six_plus_six_AcmsteeringV09_main_2lflm 000000018009f640 f   c16_six_plus_six_AcmsteeringV09_main_2lflm.obj
 0001:0009e660       sf_opaque_set_sim_state_c16_six_plus_six_AcmsteeringV09_main_2lflm 000000018009f660 f   c16_six_plus_six_AcmsteeringV09_main_2lflm.obj
 0001:0009e690       sf_opaque_terminate_c16_six_plus_six_AcmsteeringV09_main_2lflm 000000018009f690 f   c16_six_plus_six_AcmsteeringV09_main_2lflm.obj
 0001:0009e730       finalize_c16_six_plus_six_AcmsteeringV09_main_2lflm 000000018009f730 f   c16_six_plus_six_AcmsteeringV09_main_2lflm.obj
 0001:0009e740       sf_opaque_init_subchart_simstructs 000000018009f740 f   c16_six_plus_six_AcmsteeringV09_main_2lflm.obj
 0001:0009e760       initSimStructsc16_six_plus_six_AcmsteeringV09_main_2lflm 000000018009f760 f   c16_six_plus_six_AcmsteeringV09_main_2lflm.obj
 0001:0009e770       mdlRTW_c16_six_plus_six_AcmsteeringV09_main_2lflm 000000018009f770 f   c16_six_plus_six_AcmsteeringV09_main_2lflm.obj
 0001:0009ee30       get_sim_state_c17_six_plus_six_AcmsteeringV09_main_2lflm 000000018009fe30 f   c17_six_plus_six_AcmsteeringV09_main_2lflm.obj
 0001:0009efd0       sf_get_sim_state_info_c17_six_plus_six_AcmsteeringV09_main_2lflm 000000018009ffd0 f   c17_six_plus_six_AcmsteeringV09_main_2lflm.obj
 0001:0009f1a0       set_sim_state_c17_six_plus_six_AcmsteeringV09_main_2lflm 00000001800a01a0 f   c17_six_plus_six_AcmsteeringV09_main_2lflm.obj
 0001:0009f280       c17_update_debugger_state_c17_six_plus_six_AcmsteeringV09_main_2 00000001800a0280 f   c17_six_plus_six_AcmsteeringV09_main_2lflm.obj
 0001:0009f290       c17_emlrt_marshallIn       00000001800a0290 f   c17_six_plus_six_AcmsteeringV09_main_2lflm.obj
 0001:0009f300       c17_b_emlrt_marshallIn     00000001800a0300 f   c17_six_plus_six_AcmsteeringV09_main_2lflm.obj
 0001:0009f390       c17_e_emlrt_marshallIn     00000001800a0390 f   c17_six_plus_six_AcmsteeringV09_main_2lflm.obj
 0001:0009f3f0       c17_f_emlrt_marshallIn     00000001800a03f0 f   c17_six_plus_six_AcmsteeringV09_main_2lflm.obj
 0001:0009f4f0       mdlProcessParameters_c17_six_plus_six_AcmsteeringV09_main_2lflm 00000001800a04f0 f   c17_six_plus_six_AcmsteeringV09_main_2lflm.obj
 0001:0009f5d0       initialize_params_c17_six_plus_six_AcmsteeringV09_main_2lflm 00000001800a05d0 f   c17_six_plus_six_AcmsteeringV09_main_2lflm.obj
 0001:0009f5e0       mdlSetWorkWidths_c17_six_plus_six_AcmsteeringV09_main_2lflm 00000001800a05e0 f   c17_six_plus_six_AcmsteeringV09_main_2lflm.obj
 0001:0009fab0       sf_get_instance_specialization 00000001800a0ab0 f   c17_six_plus_six_AcmsteeringV09_main_2lflm.obj
 0001:0009fac0       mdlStart_c17_six_plus_six_AcmsteeringV09_main_2lflm 00000001800a0ac0 f   c17_six_plus_six_AcmsteeringV09_main_2lflm.obj
 0001:0009fcf0       init_dsm_address_info      00000001800a0cf0 f   c17_six_plus_six_AcmsteeringV09_main_2lflm.obj
 0001:0009fd00       chart_debug_initialization 00000001800a0d00 f   c17_six_plus_six_AcmsteeringV09_main_2lflm.obj
 0001:000a04b0       init_script_number_translation 00000001800a14b0 f   c17_six_plus_six_AcmsteeringV09_main_2lflm.obj
 0001:000a04d0       c17_sf_marshallOut         00000001800a14d0 f   c17_six_plus_six_AcmsteeringV09_main_2lflm.obj
 0001:000a0590       c17_sf_marshallIn          00000001800a1590 f   c17_six_plus_six_AcmsteeringV09_main_2lflm.obj
 0001:000a0630       sf_opaque_initialize_c17_six_plus_six_AcmsteeringV09_main_2lflm 00000001800a1630 f   c17_six_plus_six_AcmsteeringV09_main_2lflm.obj
 0001:000a0670       initialize_c17_six_plus_six_AcmsteeringV09_main_2lflm 00000001800a1670 f   c17_six_plus_six_AcmsteeringV09_main_2lflm.obj
 0001:000a06c0       sf_opaque_enable_c17_six_plus_six_AcmsteeringV09_main_2lflm 00000001800a16c0 f   c17_six_plus_six_AcmsteeringV09_main_2lflm.obj
 0001:000a06e0       enable_c17_six_plus_six_AcmsteeringV09_main_2lflm 00000001800a16e0 f   c17_six_plus_six_AcmsteeringV09_main_2lflm.obj
 0001:000a0710       sf_opaque_disable_c17_six_plus_six_AcmsteeringV09_main_2lflm 00000001800a1710 f   c17_six_plus_six_AcmsteeringV09_main_2lflm.obj
 0001:000a0730       disable_c17_six_plus_six_AcmsteeringV09_main_2lflm 00000001800a1730 f   c17_six_plus_six_AcmsteeringV09_main_2lflm.obj
 0001:000a0760       sf_opaque_gateway_c17_six_plus_six_AcmsteeringV09_main_2lflm 00000001800a1760 f   c17_six_plus_six_AcmsteeringV09_main_2lflm.obj
 0001:000a0780       sf_gateway_c17_six_plus_six_AcmsteeringV09_main_2lflm 00000001800a1780 f   c17_six_plus_six_AcmsteeringV09_main_2lflm.obj
 0001:000a0ea0       c17_b_sf_marshallOut       00000001800a1ea0 f   c17_six_plus_six_AcmsteeringV09_main_2lflm.obj
 0001:000a0f50       c17_b_sf_marshallIn        00000001800a1f50 f   c17_six_plus_six_AcmsteeringV09_main_2lflm.obj
 0001:000a0ff0       c17_c_emlrt_marshallIn     00000001800a1ff0 f   c17_six_plus_six_AcmsteeringV09_main_2lflm.obj
 0001:000a1080       sf_opaque_get_sim_state_c17_six_plus_six_AcmsteeringV09_main_2lflm 00000001800a2080 f   c17_six_plus_six_AcmsteeringV09_main_2lflm.obj
 0001:000a10a0       sf_opaque_set_sim_state_c17_six_plus_six_AcmsteeringV09_main_2lflm 00000001800a20a0 f   c17_six_plus_six_AcmsteeringV09_main_2lflm.obj
 0001:000a10d0       sf_opaque_terminate_c17_six_plus_six_AcmsteeringV09_main_2lflm 00000001800a20d0 f   c17_six_plus_six_AcmsteeringV09_main_2lflm.obj
 0001:000a1170       finalize_c17_six_plus_six_AcmsteeringV09_main_2lflm 00000001800a2170 f   c17_six_plus_six_AcmsteeringV09_main_2lflm.obj
 0001:000a1180       sf_opaque_init_subchart_simstructs 00000001800a2180 f   c17_six_plus_six_AcmsteeringV09_main_2lflm.obj
 0001:000a11a0       initSimStructsc17_six_plus_six_AcmsteeringV09_main_2lflm 00000001800a21a0 f   c17_six_plus_six_AcmsteeringV09_main_2lflm.obj
 0001:000a11b0       mdlRTW_c17_six_plus_six_AcmsteeringV09_main_2lflm 00000001800a21b0 f   c17_six_plus_six_AcmsteeringV09_main_2lflm.obj
 0001:000a1870       get_sim_state_c18_six_plus_six_AcmsteeringV09_main_2lflm 00000001800a2870 f   c18_six_plus_six_AcmsteeringV09_main_2lflm.obj
 0001:000a1a10       sf_get_sim_state_info_c18_six_plus_six_AcmsteeringV09_main_2lflm 00000001800a2a10 f   c18_six_plus_six_AcmsteeringV09_main_2lflm.obj
 0001:000a1be0       set_sim_state_c18_six_plus_six_AcmsteeringV09_main_2lflm 00000001800a2be0 f   c18_six_plus_six_AcmsteeringV09_main_2lflm.obj
 0001:000a1cc0       c18_update_debugger_state_c18_six_plus_six_AcmsteeringV09_main_2 00000001800a2cc0 f   c18_six_plus_six_AcmsteeringV09_main_2lflm.obj
 0001:000a1cd0       c18_emlrt_marshallIn       00000001800a2cd0 f   c18_six_plus_six_AcmsteeringV09_main_2lflm.obj
 0001:000a1d40       c18_b_emlrt_marshallIn     00000001800a2d40 f   c18_six_plus_six_AcmsteeringV09_main_2lflm.obj
 0001:000a1dd0       c18_e_emlrt_marshallIn     00000001800a2dd0 f   c18_six_plus_six_AcmsteeringV09_main_2lflm.obj
 0001:000a1e30       c18_f_emlrt_marshallIn     00000001800a2e30 f   c18_six_plus_six_AcmsteeringV09_main_2lflm.obj
 0001:000a1f30       mdlProcessParameters_c18_six_plus_six_AcmsteeringV09_main_2lflm 00000001800a2f30 f   c18_six_plus_six_AcmsteeringV09_main_2lflm.obj
 0001:000a2010       initialize_params_c18_six_plus_six_AcmsteeringV09_main_2lflm 00000001800a3010 f   c18_six_plus_six_AcmsteeringV09_main_2lflm.obj
 0001:000a2020       mdlSetWorkWidths_c18_six_plus_six_AcmsteeringV09_main_2lflm 00000001800a3020 f   c18_six_plus_six_AcmsteeringV09_main_2lflm.obj
 0001:000a24f0       sf_get_instance_specialization 00000001800a34f0 f   c18_six_plus_six_AcmsteeringV09_main_2lflm.obj
 0001:000a2500       mdlStart_c18_six_plus_six_AcmsteeringV09_main_2lflm 00000001800a3500 f   c18_six_plus_six_AcmsteeringV09_main_2lflm.obj
 0001:000a2730       init_dsm_address_info      00000001800a3730 f   c18_six_plus_six_AcmsteeringV09_main_2lflm.obj
 0001:000a2740       chart_debug_initialization 00000001800a3740 f   c18_six_plus_six_AcmsteeringV09_main_2lflm.obj
 0001:000a2ef0       init_script_number_translation 00000001800a3ef0 f   c18_six_plus_six_AcmsteeringV09_main_2lflm.obj
 0001:000a2f10       c18_sf_marshallOut         00000001800a3f10 f   c18_six_plus_six_AcmsteeringV09_main_2lflm.obj
 0001:000a2fd0       c18_sf_marshallIn          00000001800a3fd0 f   c18_six_plus_six_AcmsteeringV09_main_2lflm.obj
 0001:000a3070       sf_opaque_initialize_c18_six_plus_six_AcmsteeringV09_main_2lflm 00000001800a4070 f   c18_six_plus_six_AcmsteeringV09_main_2lflm.obj
 0001:000a30b0       initialize_c18_six_plus_six_AcmsteeringV09_main_2lflm 00000001800a40b0 f   c18_six_plus_six_AcmsteeringV09_main_2lflm.obj
 0001:000a3100       sf_opaque_enable_c18_six_plus_six_AcmsteeringV09_main_2lflm 00000001800a4100 f   c18_six_plus_six_AcmsteeringV09_main_2lflm.obj
 0001:000a3120       enable_c18_six_plus_six_AcmsteeringV09_main_2lflm 00000001800a4120 f   c18_six_plus_six_AcmsteeringV09_main_2lflm.obj
 0001:000a3150       sf_opaque_disable_c18_six_plus_six_AcmsteeringV09_main_2lflm 00000001800a4150 f   c18_six_plus_six_AcmsteeringV09_main_2lflm.obj
 0001:000a3170       disable_c18_six_plus_six_AcmsteeringV09_main_2lflm 00000001800a4170 f   c18_six_plus_six_AcmsteeringV09_main_2lflm.obj
 0001:000a31a0       sf_opaque_gateway_c18_six_plus_six_AcmsteeringV09_main_2lflm 00000001800a41a0 f   c18_six_plus_six_AcmsteeringV09_main_2lflm.obj
 0001:000a31c0       sf_gateway_c18_six_plus_six_AcmsteeringV09_main_2lflm 00000001800a41c0 f   c18_six_plus_six_AcmsteeringV09_main_2lflm.obj
 0001:000a38e0       c18_b_sf_marshallOut       00000001800a48e0 f   c18_six_plus_six_AcmsteeringV09_main_2lflm.obj
 0001:000a3990       c18_b_sf_marshallIn        00000001800a4990 f   c18_six_plus_six_AcmsteeringV09_main_2lflm.obj
 0001:000a3a30       c18_c_emlrt_marshallIn     00000001800a4a30 f   c18_six_plus_six_AcmsteeringV09_main_2lflm.obj
 0001:000a3ac0       sf_opaque_get_sim_state_c18_six_plus_six_AcmsteeringV09_main_2lflm 00000001800a4ac0 f   c18_six_plus_six_AcmsteeringV09_main_2lflm.obj
 0001:000a3ae0       sf_opaque_set_sim_state_c18_six_plus_six_AcmsteeringV09_main_2lflm 00000001800a4ae0 f   c18_six_plus_six_AcmsteeringV09_main_2lflm.obj
 0001:000a3b10       sf_opaque_terminate_c18_six_plus_six_AcmsteeringV09_main_2lflm 00000001800a4b10 f   c18_six_plus_six_AcmsteeringV09_main_2lflm.obj
 0001:000a3bb0       finalize_c18_six_plus_six_AcmsteeringV09_main_2lflm 00000001800a4bb0 f   c18_six_plus_six_AcmsteeringV09_main_2lflm.obj
 0001:000a3bc0       sf_opaque_init_subchart_simstructs 00000001800a4bc0 f   c18_six_plus_six_AcmsteeringV09_main_2lflm.obj
 0001:000a3be0       initSimStructsc18_six_plus_six_AcmsteeringV09_main_2lflm 00000001800a4be0 f   c18_six_plus_six_AcmsteeringV09_main_2lflm.obj
 0001:000a3bf0       mdlRTW_c18_six_plus_six_AcmsteeringV09_main_2lflm 00000001800a4bf0 f   c18_six_plus_six_AcmsteeringV09_main_2lflm.obj
 0001:000a42b0       get_sim_state_c19_six_plus_six_AcmsteeringV09_main_2lflm 00000001800a52b0 f   c19_six_plus_six_AcmsteeringV09_main_2lflm.obj
 0001:000a4450       sf_get_sim_state_info_c19_six_plus_six_AcmsteeringV09_main_2lflm 00000001800a5450 f   c19_six_plus_six_AcmsteeringV09_main_2lflm.obj
 0001:000a4620       set_sim_state_c19_six_plus_six_AcmsteeringV09_main_2lflm 00000001800a5620 f   c19_six_plus_six_AcmsteeringV09_main_2lflm.obj
 0001:000a4700       c19_update_debugger_state_c19_six_plus_six_AcmsteeringV09_main_2 00000001800a5700 f   c19_six_plus_six_AcmsteeringV09_main_2lflm.obj
 0001:000a4710       c19_emlrt_marshallIn       00000001800a5710 f   c19_six_plus_six_AcmsteeringV09_main_2lflm.obj
 0001:000a4780       c19_b_emlrt_marshallIn     00000001800a5780 f   c19_six_plus_six_AcmsteeringV09_main_2lflm.obj
 0001:000a4810       c19_d_emlrt_marshallIn     00000001800a5810 f   c19_six_plus_six_AcmsteeringV09_main_2lflm.obj
 0001:000a4870       c19_e_emlrt_marshallIn     00000001800a5870 f   c19_six_plus_six_AcmsteeringV09_main_2lflm.obj
 0001:000a4970       mdlProcessParameters_c19_six_plus_six_AcmsteeringV09_main_2lflm 00000001800a5970 f   c19_six_plus_six_AcmsteeringV09_main_2lflm.obj
 0001:000a4a50       initialize_params_c19_six_plus_six_AcmsteeringV09_main_2lflm 00000001800a5a50 f   c19_six_plus_six_AcmsteeringV09_main_2lflm.obj
 0001:000a4a60       mdlSetWorkWidths_c19_six_plus_six_AcmsteeringV09_main_2lflm 00000001800a5a60 f   c19_six_plus_six_AcmsteeringV09_main_2lflm.obj
 0001:000a4f30       sf_get_instance_specialization 00000001800a5f30 f   c19_six_plus_six_AcmsteeringV09_main_2lflm.obj
 0001:000a4f40       mdlStart_c19_six_plus_six_AcmsteeringV09_main_2lflm 00000001800a5f40 f   c19_six_plus_six_AcmsteeringV09_main_2lflm.obj
 0001:000a5170       init_dsm_address_info      00000001800a6170 f   c19_six_plus_six_AcmsteeringV09_main_2lflm.obj
 0001:000a5180       chart_debug_initialization 00000001800a6180 f   c19_six_plus_six_AcmsteeringV09_main_2lflm.obj
 0001:000a5930       init_script_number_translation 00000001800a6930 f   c19_six_plus_six_AcmsteeringV09_main_2lflm.obj
 0001:000a5950       c19_sf_marshallOut         00000001800a6950 f   c19_six_plus_six_AcmsteeringV09_main_2lflm.obj
 0001:000a5a00       c19_sf_marshallIn          00000001800a6a00 f   c19_six_plus_six_AcmsteeringV09_main_2lflm.obj
 0001:000a5aa0       sf_opaque_initialize_c19_six_plus_six_AcmsteeringV09_main_2lflm 00000001800a6aa0 f   c19_six_plus_six_AcmsteeringV09_main_2lflm.obj
 0001:000a5ae0       initialize_c19_six_plus_six_AcmsteeringV09_main_2lflm 00000001800a6ae0 f   c19_six_plus_six_AcmsteeringV09_main_2lflm.obj
 0001:000a5b30       sf_opaque_enable_c19_six_plus_six_AcmsteeringV09_main_2lflm 00000001800a6b30 f   c19_six_plus_six_AcmsteeringV09_main_2lflm.obj
 0001:000a5b50       enable_c19_six_plus_six_AcmsteeringV09_main_2lflm 00000001800a6b50 f   c19_six_plus_six_AcmsteeringV09_main_2lflm.obj
 0001:000a5b80       sf_opaque_disable_c19_six_plus_six_AcmsteeringV09_main_2lflm 00000001800a6b80 f   c19_six_plus_six_AcmsteeringV09_main_2lflm.obj
 0001:000a5ba0       disable_c19_six_plus_six_AcmsteeringV09_main_2lflm 00000001800a6ba0 f   c19_six_plus_six_AcmsteeringV09_main_2lflm.obj
 0001:000a5bd0       sf_opaque_gateway_c19_six_plus_six_AcmsteeringV09_main_2lflm 00000001800a6bd0 f   c19_six_plus_six_AcmsteeringV09_main_2lflm.obj
 0001:000a5bf0       sf_gateway_c19_six_plus_six_AcmsteeringV09_main_2lflm 00000001800a6bf0 f   c19_six_plus_six_AcmsteeringV09_main_2lflm.obj
 0001:000a6320       sf_opaque_get_sim_state_c19_six_plus_six_AcmsteeringV09_main_2lflm 00000001800a7320 f   c19_six_plus_six_AcmsteeringV09_main_2lflm.obj
 0001:000a6340       sf_opaque_set_sim_state_c19_six_plus_six_AcmsteeringV09_main_2lflm 00000001800a7340 f   c19_six_plus_six_AcmsteeringV09_main_2lflm.obj
 0001:000a6370       sf_opaque_terminate_c19_six_plus_six_AcmsteeringV09_main_2lflm 00000001800a7370 f   c19_six_plus_six_AcmsteeringV09_main_2lflm.obj
 0001:000a6410       finalize_c19_six_plus_six_AcmsteeringV09_main_2lflm 00000001800a7410 f   c19_six_plus_six_AcmsteeringV09_main_2lflm.obj
 0001:000a6420       sf_opaque_init_subchart_simstructs 00000001800a7420 f   c19_six_plus_six_AcmsteeringV09_main_2lflm.obj
 0001:000a6440       initSimStructsc19_six_plus_six_AcmsteeringV09_main_2lflm 00000001800a7440 f   c19_six_plus_six_AcmsteeringV09_main_2lflm.obj
 0001:000a6450       mdlRTW_c19_six_plus_six_AcmsteeringV09_main_2lflm 00000001800a7450 f   c19_six_plus_six_AcmsteeringV09_main_2lflm.obj
 0001:000a6b10       get_sim_state_c20_six_plus_six_AcmsteeringV09_main_2lflm 00000001800a7b10 f   c20_six_plus_six_AcmsteeringV09_main_2lflm.obj
 0001:000a6cb0       sf_get_sim_state_info_c20_six_plus_six_AcmsteeringV09_main_2lflm 00000001800a7cb0 f   c20_six_plus_six_AcmsteeringV09_main_2lflm.obj
 0001:000a6e80       set_sim_state_c20_six_plus_six_AcmsteeringV09_main_2lflm 00000001800a7e80 f   c20_six_plus_six_AcmsteeringV09_main_2lflm.obj
 0001:000a6f60       c20_update_debugger_state_c20_six_plus_six_AcmsteeringV09_main_2 00000001800a7f60 f   c20_six_plus_six_AcmsteeringV09_main_2lflm.obj
 0001:000a6f70       c20_emlrt_marshallIn       00000001800a7f70 f   c20_six_plus_six_AcmsteeringV09_main_2lflm.obj
 0001:000a6fe0       c20_b_emlrt_marshallIn     00000001800a7fe0 f   c20_six_plus_six_AcmsteeringV09_main_2lflm.obj
 0001:000a7070       c20_e_emlrt_marshallIn     00000001800a8070 f   c20_six_plus_six_AcmsteeringV09_main_2lflm.obj
 0001:000a70d0       c20_f_emlrt_marshallIn     00000001800a80d0 f   c20_six_plus_six_AcmsteeringV09_main_2lflm.obj
 0001:000a71d0       mdlProcessParameters_c20_six_plus_six_AcmsteeringV09_main_2lflm 00000001800a81d0 f   c20_six_plus_six_AcmsteeringV09_main_2lflm.obj
 0001:000a72b0       initialize_params_c20_six_plus_six_AcmsteeringV09_main_2lflm 00000001800a82b0 f   c20_six_plus_six_AcmsteeringV09_main_2lflm.obj
 0001:000a72c0       mdlSetWorkWidths_c20_six_plus_six_AcmsteeringV09_main_2lflm 00000001800a82c0 f   c20_six_plus_six_AcmsteeringV09_main_2lflm.obj
 0001:000a7790       sf_get_instance_specialization 00000001800a8790 f   c20_six_plus_six_AcmsteeringV09_main_2lflm.obj
 0001:000a77a0       mdlStart_c20_six_plus_six_AcmsteeringV09_main_2lflm 00000001800a87a0 f   c20_six_plus_six_AcmsteeringV09_main_2lflm.obj
 0001:000a79d0       init_dsm_address_info      00000001800a89d0 f   c20_six_plus_six_AcmsteeringV09_main_2lflm.obj
 0001:000a79e0       chart_debug_initialization 00000001800a89e0 f   c20_six_plus_six_AcmsteeringV09_main_2lflm.obj
 0001:000a8190       init_script_number_translation 00000001800a9190 f   c20_six_plus_six_AcmsteeringV09_main_2lflm.obj
 0001:000a81b0       c20_sf_marshallOut         00000001800a91b0 f   c20_six_plus_six_AcmsteeringV09_main_2lflm.obj
 0001:000a8270       c20_sf_marshallIn          00000001800a9270 f   c20_six_plus_six_AcmsteeringV09_main_2lflm.obj
 0001:000a8310       sf_opaque_initialize_c20_six_plus_six_AcmsteeringV09_main_2lflm 00000001800a9310 f   c20_six_plus_six_AcmsteeringV09_main_2lflm.obj
 0001:000a8350       initialize_c20_six_plus_six_AcmsteeringV09_main_2lflm 00000001800a9350 f   c20_six_plus_six_AcmsteeringV09_main_2lflm.obj
 0001:000a83a0       sf_opaque_enable_c20_six_plus_six_AcmsteeringV09_main_2lflm 00000001800a93a0 f   c20_six_plus_six_AcmsteeringV09_main_2lflm.obj
 0001:000a83c0       enable_c20_six_plus_six_AcmsteeringV09_main_2lflm 00000001800a93c0 f   c20_six_plus_six_AcmsteeringV09_main_2lflm.obj
 0001:000a83f0       sf_opaque_disable_c20_six_plus_six_AcmsteeringV09_main_2lflm 00000001800a93f0 f   c20_six_plus_six_AcmsteeringV09_main_2lflm.obj
 0001:000a8410       disable_c20_six_plus_six_AcmsteeringV09_main_2lflm 00000001800a9410 f   c20_six_plus_six_AcmsteeringV09_main_2lflm.obj
 0001:000a8440       sf_opaque_gateway_c20_six_plus_six_AcmsteeringV09_main_2lflm 00000001800a9440 f   c20_six_plus_six_AcmsteeringV09_main_2lflm.obj
 0001:000a8460       sf_gateway_c20_six_plus_six_AcmsteeringV09_main_2lflm 00000001800a9460 f   c20_six_plus_six_AcmsteeringV09_main_2lflm.obj
 0001:000a8b80       c20_b_sf_marshallOut       00000001800a9b80 f   c20_six_plus_six_AcmsteeringV09_main_2lflm.obj
 0001:000a8c30       c20_b_sf_marshallIn        00000001800a9c30 f   c20_six_plus_six_AcmsteeringV09_main_2lflm.obj
 0001:000a8cd0       c20_c_emlrt_marshallIn     00000001800a9cd0 f   c20_six_plus_six_AcmsteeringV09_main_2lflm.obj
 0001:000a8d60       sf_opaque_get_sim_state_c20_six_plus_six_AcmsteeringV09_main_2lflm 00000001800a9d60 f   c20_six_plus_six_AcmsteeringV09_main_2lflm.obj
 0001:000a8d80       sf_opaque_set_sim_state_c20_six_plus_six_AcmsteeringV09_main_2lflm 00000001800a9d80 f   c20_six_plus_six_AcmsteeringV09_main_2lflm.obj
 0001:000a8db0       sf_opaque_terminate_c20_six_plus_six_AcmsteeringV09_main_2lflm 00000001800a9db0 f   c20_six_plus_six_AcmsteeringV09_main_2lflm.obj
 0001:000a8e50       finalize_c20_six_plus_six_AcmsteeringV09_main_2lflm 00000001800a9e50 f   c20_six_plus_six_AcmsteeringV09_main_2lflm.obj
 0001:000a8e60       sf_opaque_init_subchart_simstructs 00000001800a9e60 f   c20_six_plus_six_AcmsteeringV09_main_2lflm.obj
 0001:000a8e80       initSimStructsc20_six_plus_six_AcmsteeringV09_main_2lflm 00000001800a9e80 f   c20_six_plus_six_AcmsteeringV09_main_2lflm.obj
 0001:000a8e90       mdlRTW_c20_six_plus_six_AcmsteeringV09_main_2lflm 00000001800a9e90 f   c20_six_plus_six_AcmsteeringV09_main_2lflm.obj
 0001:000a9550       get_sim_state_c21_six_plus_six_AcmsteeringV09_main_2lflm 00000001800aa550 f   c21_six_plus_six_AcmsteeringV09_main_2lflm.obj
 0001:000a96f0       sf_get_sim_state_info_c21_six_plus_six_AcmsteeringV09_main_2lflm 00000001800aa6f0 f   c21_six_plus_six_AcmsteeringV09_main_2lflm.obj
 0001:000a98c0       set_sim_state_c21_six_plus_six_AcmsteeringV09_main_2lflm 00000001800aa8c0 f   c21_six_plus_six_AcmsteeringV09_main_2lflm.obj
 0001:000a99a0       c21_update_debugger_state_c21_six_plus_six_AcmsteeringV09_main_2 00000001800aa9a0 f   c21_six_plus_six_AcmsteeringV09_main_2lflm.obj
 0001:000a99b0       c21_emlrt_marshallIn       00000001800aa9b0 f   c21_six_plus_six_AcmsteeringV09_main_2lflm.obj
 0001:000a9a20       c21_b_emlrt_marshallIn     00000001800aaa20 f   c21_six_plus_six_AcmsteeringV09_main_2lflm.obj
 0001:000a9ab0       c21_d_emlrt_marshallIn     00000001800aaab0 f   c21_six_plus_six_AcmsteeringV09_main_2lflm.obj
 0001:000a9b10       c21_e_emlrt_marshallIn     00000001800aab10 f   c21_six_plus_six_AcmsteeringV09_main_2lflm.obj
 0001:000a9c10       mdlProcessParameters_c21_six_plus_six_AcmsteeringV09_main_2lflm 00000001800aac10 f   c21_six_plus_six_AcmsteeringV09_main_2lflm.obj
 0001:000a9cf0       initialize_params_c21_six_plus_six_AcmsteeringV09_main_2lflm 00000001800aacf0 f   c21_six_plus_six_AcmsteeringV09_main_2lflm.obj
 0001:000a9d00       mdlSetWorkWidths_c21_six_plus_six_AcmsteeringV09_main_2lflm 00000001800aad00 f   c21_six_plus_six_AcmsteeringV09_main_2lflm.obj
 0001:000aa1d0       sf_get_instance_specialization 00000001800ab1d0 f   c21_six_plus_six_AcmsteeringV09_main_2lflm.obj
 0001:000aa1e0       mdlStart_c21_six_plus_six_AcmsteeringV09_main_2lflm 00000001800ab1e0 f   c21_six_plus_six_AcmsteeringV09_main_2lflm.obj
 0001:000aa410       init_dsm_address_info      00000001800ab410 f   c21_six_plus_six_AcmsteeringV09_main_2lflm.obj
 0001:000aa420       chart_debug_initialization 00000001800ab420 f   c21_six_plus_six_AcmsteeringV09_main_2lflm.obj
 0001:000aabd0       init_script_number_translation 00000001800abbd0 f   c21_six_plus_six_AcmsteeringV09_main_2lflm.obj
 0001:000aabf0       c21_sf_marshallOut         00000001800abbf0 f   c21_six_plus_six_AcmsteeringV09_main_2lflm.obj
 0001:000aaca0       c21_sf_marshallIn          00000001800abca0 f   c21_six_plus_six_AcmsteeringV09_main_2lflm.obj
 0001:000aad40       sf_opaque_initialize_c21_six_plus_six_AcmsteeringV09_main_2lflm 00000001800abd40 f   c21_six_plus_six_AcmsteeringV09_main_2lflm.obj
 0001:000aad80       initialize_c21_six_plus_six_AcmsteeringV09_main_2lflm 00000001800abd80 f   c21_six_plus_six_AcmsteeringV09_main_2lflm.obj
 0001:000aadd0       sf_opaque_enable_c21_six_plus_six_AcmsteeringV09_main_2lflm 00000001800abdd0 f   c21_six_plus_six_AcmsteeringV09_main_2lflm.obj
 0001:000aadf0       enable_c21_six_plus_six_AcmsteeringV09_main_2lflm 00000001800abdf0 f   c21_six_plus_six_AcmsteeringV09_main_2lflm.obj
 0001:000aae20       sf_opaque_disable_c21_six_plus_six_AcmsteeringV09_main_2lflm 00000001800abe20 f   c21_six_plus_six_AcmsteeringV09_main_2lflm.obj
 0001:000aae40       disable_c21_six_plus_six_AcmsteeringV09_main_2lflm 00000001800abe40 f   c21_six_plus_six_AcmsteeringV09_main_2lflm.obj
 0001:000aae70       sf_opaque_gateway_c21_six_plus_six_AcmsteeringV09_main_2lflm 00000001800abe70 f   c21_six_plus_six_AcmsteeringV09_main_2lflm.obj
 0001:000aae90       sf_gateway_c21_six_plus_six_AcmsteeringV09_main_2lflm 00000001800abe90 f   c21_six_plus_six_AcmsteeringV09_main_2lflm.obj
 0001:000ab5b0       sf_opaque_get_sim_state_c21_six_plus_six_AcmsteeringV09_main_2lflm 00000001800ac5b0 f   c21_six_plus_six_AcmsteeringV09_main_2lflm.obj
 0001:000ab5d0       sf_opaque_set_sim_state_c21_six_plus_six_AcmsteeringV09_main_2lflm 00000001800ac5d0 f   c21_six_plus_six_AcmsteeringV09_main_2lflm.obj
 0001:000ab600       sf_opaque_terminate_c21_six_plus_six_AcmsteeringV09_main_2lflm 00000001800ac600 f   c21_six_plus_six_AcmsteeringV09_main_2lflm.obj
 0001:000ab6a0       finalize_c21_six_plus_six_AcmsteeringV09_main_2lflm 00000001800ac6a0 f   c21_six_plus_six_AcmsteeringV09_main_2lflm.obj
 0001:000ab6b0       sf_opaque_init_subchart_simstructs 00000001800ac6b0 f   c21_six_plus_six_AcmsteeringV09_main_2lflm.obj
 0001:000ab6d0       initSimStructsc21_six_plus_six_AcmsteeringV09_main_2lflm 00000001800ac6d0 f   c21_six_plus_six_AcmsteeringV09_main_2lflm.obj
 0001:000ab6e0       mdlRTW_c21_six_plus_six_AcmsteeringV09_main_2lflm 00000001800ac6e0 f   c21_six_plus_six_AcmsteeringV09_main_2lflm.obj
 0001:000abda0       get_sim_state_c22_six_plus_six_AcmsteeringV09_main_2lflm 00000001800acda0 f   c22_six_plus_six_AcmsteeringV09_main_2lflm.obj
 0001:000abf40       sf_get_sim_state_info_c22_six_plus_six_AcmsteeringV09_main_2lflm 00000001800acf40 f   c22_six_plus_six_AcmsteeringV09_main_2lflm.obj
 0001:000ac110       set_sim_state_c22_six_plus_six_AcmsteeringV09_main_2lflm 00000001800ad110 f   c22_six_plus_six_AcmsteeringV09_main_2lflm.obj
 0001:000ac1f0       c22_update_debugger_state_c22_six_plus_six_AcmsteeringV09_main_2 00000001800ad1f0 f   c22_six_plus_six_AcmsteeringV09_main_2lflm.obj
 0001:000ac200       c22_emlrt_marshallIn       00000001800ad200 f   c22_six_plus_six_AcmsteeringV09_main_2lflm.obj
 0001:000ac270       c22_b_emlrt_marshallIn     00000001800ad270 f   c22_six_plus_six_AcmsteeringV09_main_2lflm.obj
 0001:000ac300       c22_e_emlrt_marshallIn     00000001800ad300 f   c22_six_plus_six_AcmsteeringV09_main_2lflm.obj
 0001:000ac360       c22_f_emlrt_marshallIn     00000001800ad360 f   c22_six_plus_six_AcmsteeringV09_main_2lflm.obj
 0001:000ac460       mdlProcessParameters_c22_six_plus_six_AcmsteeringV09_main_2lflm 00000001800ad460 f   c22_six_plus_six_AcmsteeringV09_main_2lflm.obj
 0001:000ac540       initialize_params_c22_six_plus_six_AcmsteeringV09_main_2lflm 00000001800ad540 f   c22_six_plus_six_AcmsteeringV09_main_2lflm.obj
 0001:000ac550       mdlSetWorkWidths_c22_six_plus_six_AcmsteeringV09_main_2lflm 00000001800ad550 f   c22_six_plus_six_AcmsteeringV09_main_2lflm.obj
 0001:000aca20       sf_get_instance_specialization 00000001800ada20 f   c22_six_plus_six_AcmsteeringV09_main_2lflm.obj
 0001:000aca30       mdlStart_c22_six_plus_six_AcmsteeringV09_main_2lflm 00000001800ada30 f   c22_six_plus_six_AcmsteeringV09_main_2lflm.obj
 0001:000acc60       init_dsm_address_info      00000001800adc60 f   c22_six_plus_six_AcmsteeringV09_main_2lflm.obj
 0001:000acc70       chart_debug_initialization 00000001800adc70 f   c22_six_plus_six_AcmsteeringV09_main_2lflm.obj
 0001:000ad420       init_script_number_translation 00000001800ae420 f   c22_six_plus_six_AcmsteeringV09_main_2lflm.obj
 0001:000ad440       c22_sf_marshallOut         00000001800ae440 f   c22_six_plus_six_AcmsteeringV09_main_2lflm.obj
 0001:000ad500       c22_sf_marshallIn          00000001800ae500 f   c22_six_plus_six_AcmsteeringV09_main_2lflm.obj
 0001:000ad5a0       sf_opaque_initialize_c22_six_plus_six_AcmsteeringV09_main_2lflm 00000001800ae5a0 f   c22_six_plus_six_AcmsteeringV09_main_2lflm.obj
 0001:000ad5e0       initialize_c22_six_plus_six_AcmsteeringV09_main_2lflm 00000001800ae5e0 f   c22_six_plus_six_AcmsteeringV09_main_2lflm.obj
 0001:000ad630       sf_opaque_enable_c22_six_plus_six_AcmsteeringV09_main_2lflm 00000001800ae630 f   c22_six_plus_six_AcmsteeringV09_main_2lflm.obj
 0001:000ad650       enable_c22_six_plus_six_AcmsteeringV09_main_2lflm 00000001800ae650 f   c22_six_plus_six_AcmsteeringV09_main_2lflm.obj
 0001:000ad680       sf_opaque_disable_c22_six_plus_six_AcmsteeringV09_main_2lflm 00000001800ae680 f   c22_six_plus_six_AcmsteeringV09_main_2lflm.obj
 0001:000ad6a0       disable_c22_six_plus_six_AcmsteeringV09_main_2lflm 00000001800ae6a0 f   c22_six_plus_six_AcmsteeringV09_main_2lflm.obj
 0001:000ad6d0       sf_opaque_gateway_c22_six_plus_six_AcmsteeringV09_main_2lflm 00000001800ae6d0 f   c22_six_plus_six_AcmsteeringV09_main_2lflm.obj
 0001:000ad6f0       sf_gateway_c22_six_plus_six_AcmsteeringV09_main_2lflm 00000001800ae6f0 f   c22_six_plus_six_AcmsteeringV09_main_2lflm.obj
 0001:000ade10       c22_b_sf_marshallOut       00000001800aee10 f   c22_six_plus_six_AcmsteeringV09_main_2lflm.obj
 0001:000adec0       c22_b_sf_marshallIn        00000001800aeec0 f   c22_six_plus_six_AcmsteeringV09_main_2lflm.obj
 0001:000adf60       c22_c_emlrt_marshallIn     00000001800aef60 f   c22_six_plus_six_AcmsteeringV09_main_2lflm.obj
 0001:000adff0       sf_opaque_get_sim_state_c22_six_plus_six_AcmsteeringV09_main_2lflm 00000001800aeff0 f   c22_six_plus_six_AcmsteeringV09_main_2lflm.obj
 0001:000ae010       sf_opaque_set_sim_state_c22_six_plus_six_AcmsteeringV09_main_2lflm 00000001800af010 f   c22_six_plus_six_AcmsteeringV09_main_2lflm.obj
 0001:000ae040       sf_opaque_terminate_c22_six_plus_six_AcmsteeringV09_main_2lflm 00000001800af040 f   c22_six_plus_six_AcmsteeringV09_main_2lflm.obj
 0001:000ae0e0       finalize_c22_six_plus_six_AcmsteeringV09_main_2lflm 00000001800af0e0 f   c22_six_plus_six_AcmsteeringV09_main_2lflm.obj
 0001:000ae0f0       sf_opaque_init_subchart_simstructs 00000001800af0f0 f   c22_six_plus_six_AcmsteeringV09_main_2lflm.obj
 0001:000ae110       initSimStructsc22_six_plus_six_AcmsteeringV09_main_2lflm 00000001800af110 f   c22_six_plus_six_AcmsteeringV09_main_2lflm.obj
 0001:000ae120       mdlRTW_c22_six_plus_six_AcmsteeringV09_main_2lflm 00000001800af120 f   c22_six_plus_six_AcmsteeringV09_main_2lflm.obj
 0001:000ae7e0       get_sim_state_c23_six_plus_six_AcmsteeringV09_main_2lflm 00000001800af7e0 f   c23_six_plus_six_AcmsteeringV09_main_2lflm.obj
 0001:000ae980       sf_get_sim_state_info_c23_six_plus_six_AcmsteeringV09_main_2lflm 00000001800af980 f   c23_six_plus_six_AcmsteeringV09_main_2lflm.obj
 0001:000aeb50       set_sim_state_c23_six_plus_six_AcmsteeringV09_main_2lflm 00000001800afb50 f   c23_six_plus_six_AcmsteeringV09_main_2lflm.obj
 0001:000aec30       c23_update_debugger_state_c23_six_plus_six_AcmsteeringV09_main_2 00000001800afc30 f   c23_six_plus_six_AcmsteeringV09_main_2lflm.obj
 0001:000aec40       c23_emlrt_marshallIn       00000001800afc40 f   c23_six_plus_six_AcmsteeringV09_main_2lflm.obj
 0001:000aecb0       c23_b_emlrt_marshallIn     00000001800afcb0 f   c23_six_plus_six_AcmsteeringV09_main_2lflm.obj
 0001:000aed40       c23_e_emlrt_marshallIn     00000001800afd40 f   c23_six_plus_six_AcmsteeringV09_main_2lflm.obj
 0001:000aeda0       c23_f_emlrt_marshallIn     00000001800afda0 f   c23_six_plus_six_AcmsteeringV09_main_2lflm.obj
 0001:000aeea0       mdlProcessParameters_c23_six_plus_six_AcmsteeringV09_main_2lflm 00000001800afea0 f   c23_six_plus_six_AcmsteeringV09_main_2lflm.obj
 0001:000aef80       initialize_params_c23_six_plus_six_AcmsteeringV09_main_2lflm 00000001800aff80 f   c23_six_plus_six_AcmsteeringV09_main_2lflm.obj
 0001:000aef90       mdlSetWorkWidths_c23_six_plus_six_AcmsteeringV09_main_2lflm 00000001800aff90 f   c23_six_plus_six_AcmsteeringV09_main_2lflm.obj
 0001:000af460       sf_get_instance_specialization 00000001800b0460 f   c23_six_plus_six_AcmsteeringV09_main_2lflm.obj
 0001:000af470       mdlStart_c23_six_plus_six_AcmsteeringV09_main_2lflm 00000001800b0470 f   c23_six_plus_six_AcmsteeringV09_main_2lflm.obj
 0001:000af6a0       init_dsm_address_info      00000001800b06a0 f   c23_six_plus_six_AcmsteeringV09_main_2lflm.obj
 0001:000af6b0       chart_debug_initialization 00000001800b06b0 f   c23_six_plus_six_AcmsteeringV09_main_2lflm.obj
 0001:000afe60       init_script_number_translation 00000001800b0e60 f   c23_six_plus_six_AcmsteeringV09_main_2lflm.obj
 0001:000afe80       c23_sf_marshallOut         00000001800b0e80 f   c23_six_plus_six_AcmsteeringV09_main_2lflm.obj
 0001:000aff40       c23_sf_marshallIn          00000001800b0f40 f   c23_six_plus_six_AcmsteeringV09_main_2lflm.obj
 0001:000affe0       sf_opaque_initialize_c23_six_plus_six_AcmsteeringV09_main_2lflm 00000001800b0fe0 f   c23_six_plus_six_AcmsteeringV09_main_2lflm.obj
 0001:000b0020       initialize_c23_six_plus_six_AcmsteeringV09_main_2lflm 00000001800b1020 f   c23_six_plus_six_AcmsteeringV09_main_2lflm.obj
 0001:000b0070       sf_opaque_enable_c23_six_plus_six_AcmsteeringV09_main_2lflm 00000001800b1070 f   c23_six_plus_six_AcmsteeringV09_main_2lflm.obj
 0001:000b0090       enable_c23_six_plus_six_AcmsteeringV09_main_2lflm 00000001800b1090 f   c23_six_plus_six_AcmsteeringV09_main_2lflm.obj
 0001:000b00c0       sf_opaque_disable_c23_six_plus_six_AcmsteeringV09_main_2lflm 00000001800b10c0 f   c23_six_plus_six_AcmsteeringV09_main_2lflm.obj
 0001:000b00e0       disable_c23_six_plus_six_AcmsteeringV09_main_2lflm 00000001800b10e0 f   c23_six_plus_six_AcmsteeringV09_main_2lflm.obj
 0001:000b0110       sf_opaque_gateway_c23_six_plus_six_AcmsteeringV09_main_2lflm 00000001800b1110 f   c23_six_plus_six_AcmsteeringV09_main_2lflm.obj
 0001:000b0130       sf_gateway_c23_six_plus_six_AcmsteeringV09_main_2lflm 00000001800b1130 f   c23_six_plus_six_AcmsteeringV09_main_2lflm.obj
 0001:000b0840       c23_b_sf_marshallOut       00000001800b1840 f   c23_six_plus_six_AcmsteeringV09_main_2lflm.obj
 0001:000b08f0       c23_b_sf_marshallIn        00000001800b18f0 f   c23_six_plus_six_AcmsteeringV09_main_2lflm.obj
 0001:000b0990       c23_c_emlrt_marshallIn     00000001800b1990 f   c23_six_plus_six_AcmsteeringV09_main_2lflm.obj
 0001:000b0a20       sf_opaque_get_sim_state_c23_six_plus_six_AcmsteeringV09_main_2lflm 00000001800b1a20 f   c23_six_plus_six_AcmsteeringV09_main_2lflm.obj
 0001:000b0a40       sf_opaque_set_sim_state_c23_six_plus_six_AcmsteeringV09_main_2lflm 00000001800b1a40 f   c23_six_plus_six_AcmsteeringV09_main_2lflm.obj
 0001:000b0a70       sf_opaque_terminate_c23_six_plus_six_AcmsteeringV09_main_2lflm 00000001800b1a70 f   c23_six_plus_six_AcmsteeringV09_main_2lflm.obj
 0001:000b0b10       finalize_c23_six_plus_six_AcmsteeringV09_main_2lflm 00000001800b1b10 f   c23_six_plus_six_AcmsteeringV09_main_2lflm.obj
 0001:000b0b20       sf_opaque_init_subchart_simstructs 00000001800b1b20 f   c23_six_plus_six_AcmsteeringV09_main_2lflm.obj
 0001:000b0b40       initSimStructsc23_six_plus_six_AcmsteeringV09_main_2lflm 00000001800b1b40 f   c23_six_plus_six_AcmsteeringV09_main_2lflm.obj
 0001:000b0b50       mdlRTW_c23_six_plus_six_AcmsteeringV09_main_2lflm 00000001800b1b50 f   c23_six_plus_six_AcmsteeringV09_main_2lflm.obj
 0001:000b1210       get_sim_state_c24_six_plus_six_AcmsteeringV09_main_2lflm 00000001800b2210 f   c24_six_plus_six_AcmsteeringV09_main_2lflm.obj
 0001:000b13b0       sf_get_sim_state_info_c24_six_plus_six_AcmsteeringV09_main_2lflm 00000001800b23b0 f   c24_six_plus_six_AcmsteeringV09_main_2lflm.obj
 0001:000b1580       set_sim_state_c24_six_plus_six_AcmsteeringV09_main_2lflm 00000001800b2580 f   c24_six_plus_six_AcmsteeringV09_main_2lflm.obj
 0001:000b1660       c24_update_debugger_state_c24_six_plus_six_AcmsteeringV09_main_2 00000001800b2660 f   c24_six_plus_six_AcmsteeringV09_main_2lflm.obj
 0001:000b1670       c24_emlrt_marshallIn       00000001800b2670 f   c24_six_plus_six_AcmsteeringV09_main_2lflm.obj
 0001:000b16e0       c24_b_emlrt_marshallIn     00000001800b26e0 f   c24_six_plus_six_AcmsteeringV09_main_2lflm.obj
 0001:000b1770       c24_e_emlrt_marshallIn     00000001800b2770 f   c24_six_plus_six_AcmsteeringV09_main_2lflm.obj
 0001:000b17d0       c24_f_emlrt_marshallIn     00000001800b27d0 f   c24_six_plus_six_AcmsteeringV09_main_2lflm.obj
 0001:000b18d0       mdlProcessParameters_c24_six_plus_six_AcmsteeringV09_main_2lflm 00000001800b28d0 f   c24_six_plus_six_AcmsteeringV09_main_2lflm.obj
 0001:000b19b0       initialize_params_c24_six_plus_six_AcmsteeringV09_main_2lflm 00000001800b29b0 f   c24_six_plus_six_AcmsteeringV09_main_2lflm.obj
 0001:000b19c0       mdlSetWorkWidths_c24_six_plus_six_AcmsteeringV09_main_2lflm 00000001800b29c0 f   c24_six_plus_six_AcmsteeringV09_main_2lflm.obj
 0001:000b1e90       sf_get_instance_specialization 00000001800b2e90 f   c24_six_plus_six_AcmsteeringV09_main_2lflm.obj
 0001:000b1ea0       mdlStart_c24_six_plus_six_AcmsteeringV09_main_2lflm 00000001800b2ea0 f   c24_six_plus_six_AcmsteeringV09_main_2lflm.obj
 0001:000b20d0       init_dsm_address_info      00000001800b30d0 f   c24_six_plus_six_AcmsteeringV09_main_2lflm.obj
 0001:000b20e0       chart_debug_initialization 00000001800b30e0 f   c24_six_plus_six_AcmsteeringV09_main_2lflm.obj
 0001:000b2890       init_script_number_translation 00000001800b3890 f   c24_six_plus_six_AcmsteeringV09_main_2lflm.obj
 0001:000b28b0       c24_sf_marshallOut         00000001800b38b0 f   c24_six_plus_six_AcmsteeringV09_main_2lflm.obj
 0001:000b2970       c24_sf_marshallIn          00000001800b3970 f   c24_six_plus_six_AcmsteeringV09_main_2lflm.obj
 0001:000b2a10       sf_opaque_initialize_c24_six_plus_six_AcmsteeringV09_main_2lflm 00000001800b3a10 f   c24_six_plus_six_AcmsteeringV09_main_2lflm.obj
 0001:000b2a50       initialize_c24_six_plus_six_AcmsteeringV09_main_2lflm 00000001800b3a50 f   c24_six_plus_six_AcmsteeringV09_main_2lflm.obj
 0001:000b2aa0       sf_opaque_enable_c24_six_plus_six_AcmsteeringV09_main_2lflm 00000001800b3aa0 f   c24_six_plus_six_AcmsteeringV09_main_2lflm.obj
 0001:000b2ac0       enable_c24_six_plus_six_AcmsteeringV09_main_2lflm 00000001800b3ac0 f   c24_six_plus_six_AcmsteeringV09_main_2lflm.obj
 0001:000b2af0       sf_opaque_disable_c24_six_plus_six_AcmsteeringV09_main_2lflm 00000001800b3af0 f   c24_six_plus_six_AcmsteeringV09_main_2lflm.obj
 0001:000b2b10       disable_c24_six_plus_six_AcmsteeringV09_main_2lflm 00000001800b3b10 f   c24_six_plus_six_AcmsteeringV09_main_2lflm.obj
 0001:000b2b40       sf_opaque_gateway_c24_six_plus_six_AcmsteeringV09_main_2lflm 00000001800b3b40 f   c24_six_plus_six_AcmsteeringV09_main_2lflm.obj
 0001:000b2b60       sf_gateway_c24_six_plus_six_AcmsteeringV09_main_2lflm 00000001800b3b60 f   c24_six_plus_six_AcmsteeringV09_main_2lflm.obj
 0001:000b3280       c24_b_sf_marshallOut       00000001800b4280 f   c24_six_plus_six_AcmsteeringV09_main_2lflm.obj
 0001:000b3330       c24_b_sf_marshallIn        00000001800b4330 f   c24_six_plus_six_AcmsteeringV09_main_2lflm.obj
 0001:000b33d0       c24_c_emlrt_marshallIn     00000001800b43d0 f   c24_six_plus_six_AcmsteeringV09_main_2lflm.obj
 0001:000b3460       sf_opaque_get_sim_state_c24_six_plus_six_AcmsteeringV09_main_2lflm 00000001800b4460 f   c24_six_plus_six_AcmsteeringV09_main_2lflm.obj
 0001:000b3480       sf_opaque_set_sim_state_c24_six_plus_six_AcmsteeringV09_main_2lflm 00000001800b4480 f   c24_six_plus_six_AcmsteeringV09_main_2lflm.obj
 0001:000b34b0       sf_opaque_terminate_c24_six_plus_six_AcmsteeringV09_main_2lflm 00000001800b44b0 f   c24_six_plus_six_AcmsteeringV09_main_2lflm.obj
 0001:000b3550       finalize_c24_six_plus_six_AcmsteeringV09_main_2lflm 00000001800b4550 f   c24_six_plus_six_AcmsteeringV09_main_2lflm.obj
 0001:000b3560       sf_opaque_init_subchart_simstructs 00000001800b4560 f   c24_six_plus_six_AcmsteeringV09_main_2lflm.obj
 0001:000b3580       initSimStructsc24_six_plus_six_AcmsteeringV09_main_2lflm 00000001800b4580 f   c24_six_plus_six_AcmsteeringV09_main_2lflm.obj
 0001:000b3590       mdlRTW_c24_six_plus_six_AcmsteeringV09_main_2lflm 00000001800b4590 f   c24_six_plus_six_AcmsteeringV09_main_2lflm.obj
 0001:000b3c50       get_sim_state_c25_six_plus_six_AcmsteeringV09_main_2lflm 00000001800b4c50 f   c25_six_plus_six_AcmsteeringV09_main_2lflm.obj
 0001:000b3df0       sf_get_sim_state_info_c25_six_plus_six_AcmsteeringV09_main_2lflm 00000001800b4df0 f   c25_six_plus_six_AcmsteeringV09_main_2lflm.obj
 0001:000b3fc0       set_sim_state_c25_six_plus_six_AcmsteeringV09_main_2lflm 00000001800b4fc0 f   c25_six_plus_six_AcmsteeringV09_main_2lflm.obj
 0001:000b40a0       c25_update_debugger_state_c25_six_plus_six_AcmsteeringV09_main_2 00000001800b50a0 f   c25_six_plus_six_AcmsteeringV09_main_2lflm.obj
 0001:000b40b0       c25_emlrt_marshallIn       00000001800b50b0 f   c25_six_plus_six_AcmsteeringV09_main_2lflm.obj
 0001:000b4120       c25_b_emlrt_marshallIn     00000001800b5120 f   c25_six_plus_six_AcmsteeringV09_main_2lflm.obj
 0001:000b41b0       c25_e_emlrt_marshallIn     00000001800b51b0 f   c25_six_plus_six_AcmsteeringV09_main_2lflm.obj
 0001:000b4210       c25_f_emlrt_marshallIn     00000001800b5210 f   c25_six_plus_six_AcmsteeringV09_main_2lflm.obj
 0001:000b4310       mdlProcessParameters_c25_six_plus_six_AcmsteeringV09_main_2lflm 00000001800b5310 f   c25_six_plus_six_AcmsteeringV09_main_2lflm.obj
 0001:000b43f0       initialize_params_c25_six_plus_six_AcmsteeringV09_main_2lflm 00000001800b53f0 f   c25_six_plus_six_AcmsteeringV09_main_2lflm.obj
 0001:000b4400       mdlSetWorkWidths_c25_six_plus_six_AcmsteeringV09_main_2lflm 00000001800b5400 f   c25_six_plus_six_AcmsteeringV09_main_2lflm.obj
 0001:000b48d0       sf_get_instance_specialization 00000001800b58d0 f   c25_six_plus_six_AcmsteeringV09_main_2lflm.obj
 0001:000b48e0       mdlStart_c25_six_plus_six_AcmsteeringV09_main_2lflm 00000001800b58e0 f   c25_six_plus_six_AcmsteeringV09_main_2lflm.obj
 0001:000b4b10       init_dsm_address_info      00000001800b5b10 f   c25_six_plus_six_AcmsteeringV09_main_2lflm.obj
 0001:000b4b20       chart_debug_initialization 00000001800b5b20 f   c25_six_plus_six_AcmsteeringV09_main_2lflm.obj
 0001:000b52d0       init_script_number_translation 00000001800b62d0 f   c25_six_plus_six_AcmsteeringV09_main_2lflm.obj
 0001:000b52f0       c25_sf_marshallOut         00000001800b62f0 f   c25_six_plus_six_AcmsteeringV09_main_2lflm.obj
 0001:000b53b0       c25_sf_marshallIn          00000001800b63b0 f   c25_six_plus_six_AcmsteeringV09_main_2lflm.obj
 0001:000b5450       sf_opaque_initialize_c25_six_plus_six_AcmsteeringV09_main_2lflm 00000001800b6450 f   c25_six_plus_six_AcmsteeringV09_main_2lflm.obj
 0001:000b5490       initialize_c25_six_plus_six_AcmsteeringV09_main_2lflm 00000001800b6490 f   c25_six_plus_six_AcmsteeringV09_main_2lflm.obj
 0001:000b54e0       sf_opaque_enable_c25_six_plus_six_AcmsteeringV09_main_2lflm 00000001800b64e0 f   c25_six_plus_six_AcmsteeringV09_main_2lflm.obj
 0001:000b5500       enable_c25_six_plus_six_AcmsteeringV09_main_2lflm 00000001800b6500 f   c25_six_plus_six_AcmsteeringV09_main_2lflm.obj
 0001:000b5530       sf_opaque_disable_c25_six_plus_six_AcmsteeringV09_main_2lflm 00000001800b6530 f   c25_six_plus_six_AcmsteeringV09_main_2lflm.obj
 0001:000b5550       disable_c25_six_plus_six_AcmsteeringV09_main_2lflm 00000001800b6550 f   c25_six_plus_six_AcmsteeringV09_main_2lflm.obj
 0001:000b5580       sf_opaque_gateway_c25_six_plus_six_AcmsteeringV09_main_2lflm 00000001800b6580 f   c25_six_plus_six_AcmsteeringV09_main_2lflm.obj
 0001:000b55a0       sf_gateway_c25_six_plus_six_AcmsteeringV09_main_2lflm 00000001800b65a0 f   c25_six_plus_six_AcmsteeringV09_main_2lflm.obj
 0001:000b5cc0       c25_b_sf_marshallOut       00000001800b6cc0 f   c25_six_plus_six_AcmsteeringV09_main_2lflm.obj
 0001:000b5d70       c25_b_sf_marshallIn        00000001800b6d70 f   c25_six_plus_six_AcmsteeringV09_main_2lflm.obj
 0001:000b5e10       c25_c_emlrt_marshallIn     00000001800b6e10 f   c25_six_plus_six_AcmsteeringV09_main_2lflm.obj
 0001:000b5ea0       sf_opaque_get_sim_state_c25_six_plus_six_AcmsteeringV09_main_2lflm 00000001800b6ea0 f   c25_six_plus_six_AcmsteeringV09_main_2lflm.obj
 0001:000b5ec0       sf_opaque_set_sim_state_c25_six_plus_six_AcmsteeringV09_main_2lflm 00000001800b6ec0 f   c25_six_plus_six_AcmsteeringV09_main_2lflm.obj
 0001:000b5ef0       sf_opaque_terminate_c25_six_plus_six_AcmsteeringV09_main_2lflm 00000001800b6ef0 f   c25_six_plus_six_AcmsteeringV09_main_2lflm.obj
 0001:000b5f90       finalize_c25_six_plus_six_AcmsteeringV09_main_2lflm 00000001800b6f90 f   c25_six_plus_six_AcmsteeringV09_main_2lflm.obj
 0001:000b5fa0       sf_opaque_init_subchart_simstructs 00000001800b6fa0 f   c25_six_plus_six_AcmsteeringV09_main_2lflm.obj
 0001:000b5fc0       initSimStructsc25_six_plus_six_AcmsteeringV09_main_2lflm 00000001800b6fc0 f   c25_six_plus_six_AcmsteeringV09_main_2lflm.obj
 0001:000b5fd0       mdlRTW_c25_six_plus_six_AcmsteeringV09_main_2lflm 00000001800b6fd0 f   c25_six_plus_six_AcmsteeringV09_main_2lflm.obj
 0001:000b6690       get_sim_state_c26_six_plus_six_AcmsteeringV09_main_2lflm 00000001800b7690 f   c26_six_plus_six_AcmsteeringV09_main_2lflm.obj
 0001:000b6830       sf_get_sim_state_info_c26_six_plus_six_AcmsteeringV09_main_2lflm 00000001800b7830 f   c26_six_plus_six_AcmsteeringV09_main_2lflm.obj
 0001:000b6a00       set_sim_state_c26_six_plus_six_AcmsteeringV09_main_2lflm 00000001800b7a00 f   c26_six_plus_six_AcmsteeringV09_main_2lflm.obj
 0001:000b6ae0       c26_update_debugger_state_c26_six_plus_six_AcmsteeringV09_main_2 00000001800b7ae0 f   c26_six_plus_six_AcmsteeringV09_main_2lflm.obj
 0001:000b6af0       c26_emlrt_marshallIn       00000001800b7af0 f   c26_six_plus_six_AcmsteeringV09_main_2lflm.obj
 0001:000b6b60       c26_b_emlrt_marshallIn     00000001800b7b60 f   c26_six_plus_six_AcmsteeringV09_main_2lflm.obj
 0001:000b6bf0       c26_e_emlrt_marshallIn     00000001800b7bf0 f   c26_six_plus_six_AcmsteeringV09_main_2lflm.obj
 0001:000b6c50       c26_f_emlrt_marshallIn     00000001800b7c50 f   c26_six_plus_six_AcmsteeringV09_main_2lflm.obj
 0001:000b6d50       mdlProcessParameters_c26_six_plus_six_AcmsteeringV09_main_2lflm 00000001800b7d50 f   c26_six_plus_six_AcmsteeringV09_main_2lflm.obj
 0001:000b6e30       initialize_params_c26_six_plus_six_AcmsteeringV09_main_2lflm 00000001800b7e30 f   c26_six_plus_six_AcmsteeringV09_main_2lflm.obj
 0001:000b6e40       mdlSetWorkWidths_c26_six_plus_six_AcmsteeringV09_main_2lflm 00000001800b7e40 f   c26_six_plus_six_AcmsteeringV09_main_2lflm.obj
 0001:000b7310       sf_get_instance_specialization 00000001800b8310 f   c26_six_plus_six_AcmsteeringV09_main_2lflm.obj
 0001:000b7320       mdlStart_c26_six_plus_six_AcmsteeringV09_main_2lflm 00000001800b8320 f   c26_six_plus_six_AcmsteeringV09_main_2lflm.obj
 0001:000b7550       init_dsm_address_info      00000001800b8550 f   c26_six_plus_six_AcmsteeringV09_main_2lflm.obj
 0001:000b7560       chart_debug_initialization 00000001800b8560 f   c26_six_plus_six_AcmsteeringV09_main_2lflm.obj
 0001:000b7d10       init_script_number_translation 00000001800b8d10 f   c26_six_plus_six_AcmsteeringV09_main_2lflm.obj
 0001:000b7d30       c26_sf_marshallOut         00000001800b8d30 f   c26_six_plus_six_AcmsteeringV09_main_2lflm.obj
 0001:000b7df0       c26_sf_marshallIn          00000001800b8df0 f   c26_six_plus_six_AcmsteeringV09_main_2lflm.obj
 0001:000b7e90       sf_opaque_initialize_c26_six_plus_six_AcmsteeringV09_main_2lflm 00000001800b8e90 f   c26_six_plus_six_AcmsteeringV09_main_2lflm.obj
 0001:000b7ed0       initialize_c26_six_plus_six_AcmsteeringV09_main_2lflm 00000001800b8ed0 f   c26_six_plus_six_AcmsteeringV09_main_2lflm.obj
 0001:000b7f20       sf_opaque_enable_c26_six_plus_six_AcmsteeringV09_main_2lflm 00000001800b8f20 f   c26_six_plus_six_AcmsteeringV09_main_2lflm.obj
 0001:000b7f40       enable_c26_six_plus_six_AcmsteeringV09_main_2lflm 00000001800b8f40 f   c26_six_plus_six_AcmsteeringV09_main_2lflm.obj
 0001:000b7f70       sf_opaque_disable_c26_six_plus_six_AcmsteeringV09_main_2lflm 00000001800b8f70 f   c26_six_plus_six_AcmsteeringV09_main_2lflm.obj
 0001:000b7f90       disable_c26_six_plus_six_AcmsteeringV09_main_2lflm 00000001800b8f90 f   c26_six_plus_six_AcmsteeringV09_main_2lflm.obj
 0001:000b7fc0       sf_opaque_gateway_c26_six_plus_six_AcmsteeringV09_main_2lflm 00000001800b8fc0 f   c26_six_plus_six_AcmsteeringV09_main_2lflm.obj
 0001:000b7fe0       sf_gateway_c26_six_plus_six_AcmsteeringV09_main_2lflm 00000001800b8fe0 f   c26_six_plus_six_AcmsteeringV09_main_2lflm.obj
 0001:000b8700       c26_b_sf_marshallOut       00000001800b9700 f   c26_six_plus_six_AcmsteeringV09_main_2lflm.obj
 0001:000b87b0       c26_b_sf_marshallIn        00000001800b97b0 f   c26_six_plus_six_AcmsteeringV09_main_2lflm.obj
 0001:000b8850       c26_c_emlrt_marshallIn     00000001800b9850 f   c26_six_plus_six_AcmsteeringV09_main_2lflm.obj
 0001:000b88e0       sf_opaque_get_sim_state_c26_six_plus_six_AcmsteeringV09_main_2lflm 00000001800b98e0 f   c26_six_plus_six_AcmsteeringV09_main_2lflm.obj
 0001:000b8900       sf_opaque_set_sim_state_c26_six_plus_six_AcmsteeringV09_main_2lflm 00000001800b9900 f   c26_six_plus_six_AcmsteeringV09_main_2lflm.obj
 0001:000b8930       sf_opaque_terminate_c26_six_plus_six_AcmsteeringV09_main_2lflm 00000001800b9930 f   c26_six_plus_six_AcmsteeringV09_main_2lflm.obj
 0001:000b89d0       finalize_c26_six_plus_six_AcmsteeringV09_main_2lflm 00000001800b99d0 f   c26_six_plus_six_AcmsteeringV09_main_2lflm.obj
 0001:000b89e0       sf_opaque_init_subchart_simstructs 00000001800b99e0 f   c26_six_plus_six_AcmsteeringV09_main_2lflm.obj
 0001:000b8a00       initSimStructsc26_six_plus_six_AcmsteeringV09_main_2lflm 00000001800b9a00 f   c26_six_plus_six_AcmsteeringV09_main_2lflm.obj
 0001:000b8a10       mdlRTW_c26_six_plus_six_AcmsteeringV09_main_2lflm 00000001800b9a10 f   c26_six_plus_six_AcmsteeringV09_main_2lflm.obj
 0001:000b90d0       get_sim_state_c27_six_plus_six_AcmsteeringV09_main_2lflm 00000001800ba0d0 f   c27_six_plus_six_AcmsteeringV09_main_2lflm.obj
 0001:000b9270       sf_get_sim_state_info_c27_six_plus_six_AcmsteeringV09_main_2lflm 00000001800ba270 f   c27_six_plus_six_AcmsteeringV09_main_2lflm.obj
 0001:000b9440       set_sim_state_c27_six_plus_six_AcmsteeringV09_main_2lflm 00000001800ba440 f   c27_six_plus_six_AcmsteeringV09_main_2lflm.obj
 0001:000b9520       c27_update_debugger_state_c27_six_plus_six_AcmsteeringV09_main_2 00000001800ba520 f   c27_six_plus_six_AcmsteeringV09_main_2lflm.obj
 0001:000b9530       c27_emlrt_marshallIn       00000001800ba530 f   c27_six_plus_six_AcmsteeringV09_main_2lflm.obj
 0001:000b95a0       c27_b_emlrt_marshallIn     00000001800ba5a0 f   c27_six_plus_six_AcmsteeringV09_main_2lflm.obj
 0001:000b9630       c27_e_emlrt_marshallIn     00000001800ba630 f   c27_six_plus_six_AcmsteeringV09_main_2lflm.obj
 0001:000b9690       c27_f_emlrt_marshallIn     00000001800ba690 f   c27_six_plus_six_AcmsteeringV09_main_2lflm.obj
 0001:000b9790       mdlProcessParameters_c27_six_plus_six_AcmsteeringV09_main_2lflm 00000001800ba790 f   c27_six_plus_six_AcmsteeringV09_main_2lflm.obj
 0001:000b9870       initialize_params_c27_six_plus_six_AcmsteeringV09_main_2lflm 00000001800ba870 f   c27_six_plus_six_AcmsteeringV09_main_2lflm.obj
 0001:000b9880       mdlSetWorkWidths_c27_six_plus_six_AcmsteeringV09_main_2lflm 00000001800ba880 f   c27_six_plus_six_AcmsteeringV09_main_2lflm.obj
 0001:000b9d50       sf_get_instance_specialization 00000001800bad50 f   c27_six_plus_six_AcmsteeringV09_main_2lflm.obj
 0001:000b9d60       mdlStart_c27_six_plus_six_AcmsteeringV09_main_2lflm 00000001800bad60 f   c27_six_plus_six_AcmsteeringV09_main_2lflm.obj
 0001:000b9f90       init_dsm_address_info      00000001800baf90 f   c27_six_plus_six_AcmsteeringV09_main_2lflm.obj
 0001:000b9fa0       chart_debug_initialization 00000001800bafa0 f   c27_six_plus_six_AcmsteeringV09_main_2lflm.obj
 0001:000ba750       init_script_number_translation 00000001800bb750 f   c27_six_plus_six_AcmsteeringV09_main_2lflm.obj
 0001:000ba770       c27_sf_marshallOut         00000001800bb770 f   c27_six_plus_six_AcmsteeringV09_main_2lflm.obj
 0001:000ba830       c27_sf_marshallIn          00000001800bb830 f   c27_six_plus_six_AcmsteeringV09_main_2lflm.obj
 0001:000ba8d0       sf_opaque_initialize_c27_six_plus_six_AcmsteeringV09_main_2lflm 00000001800bb8d0 f   c27_six_plus_six_AcmsteeringV09_main_2lflm.obj
 0001:000ba910       initialize_c27_six_plus_six_AcmsteeringV09_main_2lflm 00000001800bb910 f   c27_six_plus_six_AcmsteeringV09_main_2lflm.obj
 0001:000ba960       sf_opaque_enable_c27_six_plus_six_AcmsteeringV09_main_2lflm 00000001800bb960 f   c27_six_plus_six_AcmsteeringV09_main_2lflm.obj
 0001:000ba980       enable_c27_six_plus_six_AcmsteeringV09_main_2lflm 00000001800bb980 f   c27_six_plus_six_AcmsteeringV09_main_2lflm.obj
 0001:000ba9b0       sf_opaque_disable_c27_six_plus_six_AcmsteeringV09_main_2lflm 00000001800bb9b0 f   c27_six_plus_six_AcmsteeringV09_main_2lflm.obj
 0001:000ba9d0       disable_c27_six_plus_six_AcmsteeringV09_main_2lflm 00000001800bb9d0 f   c27_six_plus_six_AcmsteeringV09_main_2lflm.obj
 0001:000baa00       sf_opaque_gateway_c27_six_plus_six_AcmsteeringV09_main_2lflm 00000001800bba00 f   c27_six_plus_six_AcmsteeringV09_main_2lflm.obj
 0001:000baa20       sf_gateway_c27_six_plus_six_AcmsteeringV09_main_2lflm 00000001800bba20 f   c27_six_plus_six_AcmsteeringV09_main_2lflm.obj
 0001:000bb140       c27_b_sf_marshallOut       00000001800bc140 f   c27_six_plus_six_AcmsteeringV09_main_2lflm.obj
 0001:000bb1f0       c27_b_sf_marshallIn        00000001800bc1f0 f   c27_six_plus_six_AcmsteeringV09_main_2lflm.obj
 0001:000bb290       c27_c_emlrt_marshallIn     00000001800bc290 f   c27_six_plus_six_AcmsteeringV09_main_2lflm.obj
 0001:000bb320       sf_opaque_get_sim_state_c27_six_plus_six_AcmsteeringV09_main_2lflm 00000001800bc320 f   c27_six_plus_six_AcmsteeringV09_main_2lflm.obj
 0001:000bb340       sf_opaque_set_sim_state_c27_six_plus_six_AcmsteeringV09_main_2lflm 00000001800bc340 f   c27_six_plus_six_AcmsteeringV09_main_2lflm.obj
 0001:000bb370       sf_opaque_terminate_c27_six_plus_six_AcmsteeringV09_main_2lflm 00000001800bc370 f   c27_six_plus_six_AcmsteeringV09_main_2lflm.obj
 0001:000bb410       finalize_c27_six_plus_six_AcmsteeringV09_main_2lflm 00000001800bc410 f   c27_six_plus_six_AcmsteeringV09_main_2lflm.obj
 0001:000bb420       sf_opaque_init_subchart_simstructs 00000001800bc420 f   c27_six_plus_six_AcmsteeringV09_main_2lflm.obj
 0001:000bb440       initSimStructsc27_six_plus_six_AcmsteeringV09_main_2lflm 00000001800bc440 f   c27_six_plus_six_AcmsteeringV09_main_2lflm.obj
 0001:000bb450       mdlRTW_c27_six_plus_six_AcmsteeringV09_main_2lflm 00000001800bc450 f   c27_six_plus_six_AcmsteeringV09_main_2lflm.obj
 0001:000bbb10       get_sim_state_c28_six_plus_six_AcmsteeringV09_main_2lflm 00000001800bcb10 f   c28_six_plus_six_AcmsteeringV09_main_2lflm.obj
 0001:000bbcb0       sf_get_sim_state_info_c28_six_plus_six_AcmsteeringV09_main_2lflm 00000001800bccb0 f   c28_six_plus_six_AcmsteeringV09_main_2lflm.obj
 0001:000bbe80       set_sim_state_c28_six_plus_six_AcmsteeringV09_main_2lflm 00000001800bce80 f   c28_six_plus_six_AcmsteeringV09_main_2lflm.obj
 0001:000bbf60       c28_update_debugger_state_c28_six_plus_six_AcmsteeringV09_main_2 00000001800bcf60 f   c28_six_plus_six_AcmsteeringV09_main_2lflm.obj
 0001:000bbf70       c28_emlrt_marshallIn       00000001800bcf70 f   c28_six_plus_six_AcmsteeringV09_main_2lflm.obj
 0001:000bbfe0       c28_b_emlrt_marshallIn     00000001800bcfe0 f   c28_six_plus_six_AcmsteeringV09_main_2lflm.obj
 0001:000bc070       c28_e_emlrt_marshallIn     00000001800bd070 f   c28_six_plus_six_AcmsteeringV09_main_2lflm.obj
 0001:000bc0d0       c28_f_emlrt_marshallIn     00000001800bd0d0 f   c28_six_plus_six_AcmsteeringV09_main_2lflm.obj
 0001:000bc1d0       mdlProcessParameters_c28_six_plus_six_AcmsteeringV09_main_2lflm 00000001800bd1d0 f   c28_six_plus_six_AcmsteeringV09_main_2lflm.obj
 0001:000bc2b0       initialize_params_c28_six_plus_six_AcmsteeringV09_main_2lflm 00000001800bd2b0 f   c28_six_plus_six_AcmsteeringV09_main_2lflm.obj
 0001:000bc2c0       mdlSetWorkWidths_c28_six_plus_six_AcmsteeringV09_main_2lflm 00000001800bd2c0 f   c28_six_plus_six_AcmsteeringV09_main_2lflm.obj
 0001:000bc790       sf_get_instance_specialization 00000001800bd790 f   c28_six_plus_six_AcmsteeringV09_main_2lflm.obj
 0001:000bc7a0       mdlStart_c28_six_plus_six_AcmsteeringV09_main_2lflm 00000001800bd7a0 f   c28_six_plus_six_AcmsteeringV09_main_2lflm.obj
 0001:000bc9d0       init_dsm_address_info      00000001800bd9d0 f   c28_six_plus_six_AcmsteeringV09_main_2lflm.obj
 0001:000bc9e0       chart_debug_initialization 00000001800bd9e0 f   c28_six_plus_six_AcmsteeringV09_main_2lflm.obj
 0001:000bd190       init_script_number_translation 00000001800be190 f   c28_six_plus_six_AcmsteeringV09_main_2lflm.obj
 0001:000bd1b0       c28_sf_marshallOut         00000001800be1b0 f   c28_six_plus_six_AcmsteeringV09_main_2lflm.obj
 0001:000bd270       c28_sf_marshallIn          00000001800be270 f   c28_six_plus_six_AcmsteeringV09_main_2lflm.obj
 0001:000bd310       sf_opaque_initialize_c28_six_plus_six_AcmsteeringV09_main_2lflm 00000001800be310 f   c28_six_plus_six_AcmsteeringV09_main_2lflm.obj
 0001:000bd350       initialize_c28_six_plus_six_AcmsteeringV09_main_2lflm 00000001800be350 f   c28_six_plus_six_AcmsteeringV09_main_2lflm.obj
 0001:000bd3a0       sf_opaque_enable_c28_six_plus_six_AcmsteeringV09_main_2lflm 00000001800be3a0 f   c28_six_plus_six_AcmsteeringV09_main_2lflm.obj
 0001:000bd3c0       enable_c28_six_plus_six_AcmsteeringV09_main_2lflm 00000001800be3c0 f   c28_six_plus_six_AcmsteeringV09_main_2lflm.obj
 0001:000bd3f0       sf_opaque_disable_c28_six_plus_six_AcmsteeringV09_main_2lflm 00000001800be3f0 f   c28_six_plus_six_AcmsteeringV09_main_2lflm.obj
 0001:000bd410       disable_c28_six_plus_six_AcmsteeringV09_main_2lflm 00000001800be410 f   c28_six_plus_six_AcmsteeringV09_main_2lflm.obj
 0001:000bd440       sf_opaque_gateway_c28_six_plus_six_AcmsteeringV09_main_2lflm 00000001800be440 f   c28_six_plus_six_AcmsteeringV09_main_2lflm.obj
 0001:000bd460       sf_gateway_c28_six_plus_six_AcmsteeringV09_main_2lflm 00000001800be460 f   c28_six_plus_six_AcmsteeringV09_main_2lflm.obj
 0001:000bdb80       c28_b_sf_marshallOut       00000001800beb80 f   c28_six_plus_six_AcmsteeringV09_main_2lflm.obj
 0001:000bdc30       c28_b_sf_marshallIn        00000001800bec30 f   c28_six_plus_six_AcmsteeringV09_main_2lflm.obj
 0001:000bdcd0       c28_c_emlrt_marshallIn     00000001800becd0 f   c28_six_plus_six_AcmsteeringV09_main_2lflm.obj
 0001:000bdd60       sf_opaque_get_sim_state_c28_six_plus_six_AcmsteeringV09_main_2lflm 00000001800bed60 f   c28_six_plus_six_AcmsteeringV09_main_2lflm.obj
 0001:000bdd80       sf_opaque_set_sim_state_c28_six_plus_six_AcmsteeringV09_main_2lflm 00000001800bed80 f   c28_six_plus_six_AcmsteeringV09_main_2lflm.obj
 0001:000bddb0       sf_opaque_terminate_c28_six_plus_six_AcmsteeringV09_main_2lflm 00000001800bedb0 f   c28_six_plus_six_AcmsteeringV09_main_2lflm.obj
 0001:000bde50       finalize_c28_six_plus_six_AcmsteeringV09_main_2lflm 00000001800bee50 f   c28_six_plus_six_AcmsteeringV09_main_2lflm.obj
 0001:000bde60       sf_opaque_init_subchart_simstructs 00000001800bee60 f   c28_six_plus_six_AcmsteeringV09_main_2lflm.obj
 0001:000bde80       initSimStructsc28_six_plus_six_AcmsteeringV09_main_2lflm 00000001800bee80 f   c28_six_plus_six_AcmsteeringV09_main_2lflm.obj
 0001:000bde90       mdlRTW_c28_six_plus_six_AcmsteeringV09_main_2lflm 00000001800bee90 f   c28_six_plus_six_AcmsteeringV09_main_2lflm.obj
 0001:000be550       get_sim_state_c29_six_plus_six_AcmsteeringV09_main_2lflm 00000001800bf550 f   c29_six_plus_six_AcmsteeringV09_main_2lflm.obj
 0001:000be6f0       sf_get_sim_state_info_c29_six_plus_six_AcmsteeringV09_main_2lflm 00000001800bf6f0 f   c29_six_plus_six_AcmsteeringV09_main_2lflm.obj
 0001:000be8c0       set_sim_state_c29_six_plus_six_AcmsteeringV09_main_2lflm 00000001800bf8c0 f   c29_six_plus_six_AcmsteeringV09_main_2lflm.obj
 0001:000be9a0       c29_update_debugger_state_c29_six_plus_six_AcmsteeringV09_main_2 00000001800bf9a0 f   c29_six_plus_six_AcmsteeringV09_main_2lflm.obj
 0001:000be9b0       c29_emlrt_marshallIn       00000001800bf9b0 f   c29_six_plus_six_AcmsteeringV09_main_2lflm.obj
 0001:000bea20       c29_b_emlrt_marshallIn     00000001800bfa20 f   c29_six_plus_six_AcmsteeringV09_main_2lflm.obj
 0001:000beab0       c29_e_emlrt_marshallIn     00000001800bfab0 f   c29_six_plus_six_AcmsteeringV09_main_2lflm.obj
 0001:000beb10       c29_f_emlrt_marshallIn     00000001800bfb10 f   c29_six_plus_six_AcmsteeringV09_main_2lflm.obj
 0001:000bec10       mdlProcessParameters_c29_six_plus_six_AcmsteeringV09_main_2lflm 00000001800bfc10 f   c29_six_plus_six_AcmsteeringV09_main_2lflm.obj
 0001:000becf0       initialize_params_c29_six_plus_six_AcmsteeringV09_main_2lflm 00000001800bfcf0 f   c29_six_plus_six_AcmsteeringV09_main_2lflm.obj
 0001:000bed00       mdlSetWorkWidths_c29_six_plus_six_AcmsteeringV09_main_2lflm 00000001800bfd00 f   c29_six_plus_six_AcmsteeringV09_main_2lflm.obj
 0001:000bf1d0       sf_get_instance_specialization 00000001800c01d0 f   c29_six_plus_six_AcmsteeringV09_main_2lflm.obj
 0001:000bf1e0       mdlStart_c29_six_plus_six_AcmsteeringV09_main_2lflm 00000001800c01e0 f   c29_six_plus_six_AcmsteeringV09_main_2lflm.obj
 0001:000bf410       init_dsm_address_info      00000001800c0410 f   c29_six_plus_six_AcmsteeringV09_main_2lflm.obj
 0001:000bf420       chart_debug_initialization 00000001800c0420 f   c29_six_plus_six_AcmsteeringV09_main_2lflm.obj
 0001:000bfbd0       init_script_number_translation 00000001800c0bd0 f   c29_six_plus_six_AcmsteeringV09_main_2lflm.obj
 0001:000bfbf0       c29_sf_marshallOut         00000001800c0bf0 f   c29_six_plus_six_AcmsteeringV09_main_2lflm.obj
 0001:000bfcb0       c29_sf_marshallIn          00000001800c0cb0 f   c29_six_plus_six_AcmsteeringV09_main_2lflm.obj
 0001:000bfd50       sf_opaque_initialize_c29_six_plus_six_AcmsteeringV09_main_2lflm 00000001800c0d50 f   c29_six_plus_six_AcmsteeringV09_main_2lflm.obj
 0001:000bfd90       initialize_c29_six_plus_six_AcmsteeringV09_main_2lflm 00000001800c0d90 f   c29_six_plus_six_AcmsteeringV09_main_2lflm.obj
 0001:000bfde0       sf_opaque_enable_c29_six_plus_six_AcmsteeringV09_main_2lflm 00000001800c0de0 f   c29_six_plus_six_AcmsteeringV09_main_2lflm.obj
 0001:000bfe00       enable_c29_six_plus_six_AcmsteeringV09_main_2lflm 00000001800c0e00 f   c29_six_plus_six_AcmsteeringV09_main_2lflm.obj
 0001:000bfe30       sf_opaque_disable_c29_six_plus_six_AcmsteeringV09_main_2lflm 00000001800c0e30 f   c29_six_plus_six_AcmsteeringV09_main_2lflm.obj
 0001:000bfe50       disable_c29_six_plus_six_AcmsteeringV09_main_2lflm 00000001800c0e50 f   c29_six_plus_six_AcmsteeringV09_main_2lflm.obj
 0001:000bfe80       sf_opaque_gateway_c29_six_plus_six_AcmsteeringV09_main_2lflm 00000001800c0e80 f   c29_six_plus_six_AcmsteeringV09_main_2lflm.obj
 0001:000bfea0       sf_gateway_c29_six_plus_six_AcmsteeringV09_main_2lflm 00000001800c0ea0 f   c29_six_plus_six_AcmsteeringV09_main_2lflm.obj
 0001:000c05c0       c29_b_sf_marshallOut       00000001800c15c0 f   c29_six_plus_six_AcmsteeringV09_main_2lflm.obj
 0001:000c0670       c29_b_sf_marshallIn        00000001800c1670 f   c29_six_plus_six_AcmsteeringV09_main_2lflm.obj
 0001:000c0710       c29_c_emlrt_marshallIn     00000001800c1710 f   c29_six_plus_six_AcmsteeringV09_main_2lflm.obj
 0001:000c07a0       sf_opaque_get_sim_state_c29_six_plus_six_AcmsteeringV09_main_2lflm 00000001800c17a0 f   c29_six_plus_six_AcmsteeringV09_main_2lflm.obj
 0001:000c07c0       sf_opaque_set_sim_state_c29_six_plus_six_AcmsteeringV09_main_2lflm 00000001800c17c0 f   c29_six_plus_six_AcmsteeringV09_main_2lflm.obj
 0001:000c07f0       sf_opaque_terminate_c29_six_plus_six_AcmsteeringV09_main_2lflm 00000001800c17f0 f   c29_six_plus_six_AcmsteeringV09_main_2lflm.obj
 0001:000c0890       finalize_c29_six_plus_six_AcmsteeringV09_main_2lflm 00000001800c1890 f   c29_six_plus_six_AcmsteeringV09_main_2lflm.obj
 0001:000c08a0       sf_opaque_init_subchart_simstructs 00000001800c18a0 f   c29_six_plus_six_AcmsteeringV09_main_2lflm.obj
 0001:000c08c0       initSimStructsc29_six_plus_six_AcmsteeringV09_main_2lflm 00000001800c18c0 f   c29_six_plus_six_AcmsteeringV09_main_2lflm.obj
 0001:000c08d0       mdlRTW_c29_six_plus_six_AcmsteeringV09_main_2lflm 00000001800c18d0 f   c29_six_plus_six_AcmsteeringV09_main_2lflm.obj
 0001:000c0f90       get_sim_state_c30_six_plus_six_AcmsteeringV09_main_2lflm 00000001800c1f90 f   c30_six_plus_six_AcmsteeringV09_main_2lflm.obj
 0001:000c1130       sf_get_sim_state_info_c30_six_plus_six_AcmsteeringV09_main_2lflm 00000001800c2130 f   c30_six_plus_six_AcmsteeringV09_main_2lflm.obj
 0001:000c1300       set_sim_state_c30_six_plus_six_AcmsteeringV09_main_2lflm 00000001800c2300 f   c30_six_plus_six_AcmsteeringV09_main_2lflm.obj
 0001:000c13e0       c30_update_debugger_state_c30_six_plus_six_AcmsteeringV09_main_2 00000001800c23e0 f   c30_six_plus_six_AcmsteeringV09_main_2lflm.obj
 0001:000c13f0       c30_emlrt_marshallIn       00000001800c23f0 f   c30_six_plus_six_AcmsteeringV09_main_2lflm.obj
 0001:000c1460       c30_b_emlrt_marshallIn     00000001800c2460 f   c30_six_plus_six_AcmsteeringV09_main_2lflm.obj
 0001:000c14f0       c30_e_emlrt_marshallIn     00000001800c24f0 f   c30_six_plus_six_AcmsteeringV09_main_2lflm.obj
 0001:000c1550       c30_f_emlrt_marshallIn     00000001800c2550 f   c30_six_plus_six_AcmsteeringV09_main_2lflm.obj
 0001:000c1650       mdlProcessParameters_c30_six_plus_six_AcmsteeringV09_main_2lflm 00000001800c2650 f   c30_six_plus_six_AcmsteeringV09_main_2lflm.obj
 0001:000c1730       initialize_params_c30_six_plus_six_AcmsteeringV09_main_2lflm 00000001800c2730 f   c30_six_plus_six_AcmsteeringV09_main_2lflm.obj
 0001:000c1740       mdlSetWorkWidths_c30_six_plus_six_AcmsteeringV09_main_2lflm 00000001800c2740 f   c30_six_plus_six_AcmsteeringV09_main_2lflm.obj
 0001:000c1c10       sf_get_instance_specialization 00000001800c2c10 f   c30_six_plus_six_AcmsteeringV09_main_2lflm.obj
 0001:000c1c20       mdlStart_c30_six_plus_six_AcmsteeringV09_main_2lflm 00000001800c2c20 f   c30_six_plus_six_AcmsteeringV09_main_2lflm.obj
 0001:000c1e50       init_dsm_address_info      00000001800c2e50 f   c30_six_plus_six_AcmsteeringV09_main_2lflm.obj
 0001:000c1e60       chart_debug_initialization 00000001800c2e60 f   c30_six_plus_six_AcmsteeringV09_main_2lflm.obj
 0001:000c2610       init_script_number_translation 00000001800c3610 f   c30_six_plus_six_AcmsteeringV09_main_2lflm.obj
 0001:000c2630       c30_sf_marshallOut         00000001800c3630 f   c30_six_plus_six_AcmsteeringV09_main_2lflm.obj
 0001:000c26f0       c30_sf_marshallIn          00000001800c36f0 f   c30_six_plus_six_AcmsteeringV09_main_2lflm.obj
 0001:000c2790       sf_opaque_initialize_c30_six_plus_six_AcmsteeringV09_main_2lflm 00000001800c3790 f   c30_six_plus_six_AcmsteeringV09_main_2lflm.obj
 0001:000c27d0       initialize_c30_six_plus_six_AcmsteeringV09_main_2lflm 00000001800c37d0 f   c30_six_plus_six_AcmsteeringV09_main_2lflm.obj
 0001:000c2820       sf_opaque_enable_c30_six_plus_six_AcmsteeringV09_main_2lflm 00000001800c3820 f   c30_six_plus_six_AcmsteeringV09_main_2lflm.obj
 0001:000c2840       enable_c30_six_plus_six_AcmsteeringV09_main_2lflm 00000001800c3840 f   c30_six_plus_six_AcmsteeringV09_main_2lflm.obj
 0001:000c2870       sf_opaque_disable_c30_six_plus_six_AcmsteeringV09_main_2lflm 00000001800c3870 f   c30_six_plus_six_AcmsteeringV09_main_2lflm.obj
 0001:000c2890       disable_c30_six_plus_six_AcmsteeringV09_main_2lflm 00000001800c3890 f   c30_six_plus_six_AcmsteeringV09_main_2lflm.obj
 0001:000c28c0       sf_opaque_gateway_c30_six_plus_six_AcmsteeringV09_main_2lflm 00000001800c38c0 f   c30_six_plus_six_AcmsteeringV09_main_2lflm.obj
 0001:000c28e0       sf_gateway_c30_six_plus_six_AcmsteeringV09_main_2lflm 00000001800c38e0 f   c30_six_plus_six_AcmsteeringV09_main_2lflm.obj
 0001:000c3010       c30_b_sf_marshallOut       00000001800c4010 f   c30_six_plus_six_AcmsteeringV09_main_2lflm.obj
 0001:000c30c0       c30_b_sf_marshallIn        00000001800c40c0 f   c30_six_plus_six_AcmsteeringV09_main_2lflm.obj
 0001:000c3160       c30_c_emlrt_marshallIn     00000001800c4160 f   c30_six_plus_six_AcmsteeringV09_main_2lflm.obj
 0001:000c31f0       sf_opaque_get_sim_state_c30_six_plus_six_AcmsteeringV09_main_2lflm 00000001800c41f0 f   c30_six_plus_six_AcmsteeringV09_main_2lflm.obj
 0001:000c3210       sf_opaque_set_sim_state_c30_six_plus_six_AcmsteeringV09_main_2lflm 00000001800c4210 f   c30_six_plus_six_AcmsteeringV09_main_2lflm.obj
 0001:000c3240       sf_opaque_terminate_c30_six_plus_six_AcmsteeringV09_main_2lflm 00000001800c4240 f   c30_six_plus_six_AcmsteeringV09_main_2lflm.obj
 0001:000c32e0       finalize_c30_six_plus_six_AcmsteeringV09_main_2lflm 00000001800c42e0 f   c30_six_plus_six_AcmsteeringV09_main_2lflm.obj
 0001:000c32f0       sf_opaque_init_subchart_simstructs 00000001800c42f0 f   c30_six_plus_six_AcmsteeringV09_main_2lflm.obj
 0001:000c3310       initSimStructsc30_six_plus_six_AcmsteeringV09_main_2lflm 00000001800c4310 f   c30_six_plus_six_AcmsteeringV09_main_2lflm.obj
 0001:000c3320       mdlRTW_c30_six_plus_six_AcmsteeringV09_main_2lflm 00000001800c4320 f   c30_six_plus_six_AcmsteeringV09_main_2lflm.obj
 0001:000c33d0       c31_info_helper            00000001800c43d0 f   c31_six_plus_six_AcmsteeringV09_main_2lflm.obj
 0001:000c70b0       c31_emlrt_marshallOut      00000001800c80b0 f   c31_six_plus_six_AcmsteeringV09_main_2lflm.obj
 0001:000c7140       c31_b_emlrt_marshallOut    00000001800c8140 f   c31_six_plus_six_AcmsteeringV09_main_2lflm.obj
 0001:000caa90       get_sim_state_c31_six_plus_six_AcmsteeringV09_main_2lflm 00000001800cba90 f   c31_six_plus_six_AcmsteeringV09_main_2lflm.obj
 0001:000cb180       sf_get_sim_state_info_c31_six_plus_six_AcmsteeringV09_main_2lflm 00000001800cc180 f   c31_six_plus_six_AcmsteeringV09_main_2lflm.obj
 0001:000cb350       set_sim_state_c31_six_plus_six_AcmsteeringV09_main_2lflm 00000001800cc350 f   c31_six_plus_six_AcmsteeringV09_main_2lflm.obj
 0001:000cb690       c31_update_debugger_state_c31_six_plus_six_AcmsteeringV09_main_2 00000001800cc690 f   c31_six_plus_six_AcmsteeringV09_main_2lflm.obj
 0001:000cb6a0       c31_emlrt_marshallIn       00000001800cc6a0 f   c31_six_plus_six_AcmsteeringV09_main_2lflm.obj
 0001:000cb710       c31_b_emlrt_marshallIn     00000001800cc710 f   c31_six_plus_six_AcmsteeringV09_main_2lflm.obj
 0001:000cb7a0       c31_e_emlrt_marshallIn     00000001800cc7a0 f   c31_six_plus_six_AcmsteeringV09_main_2lflm.obj
 0001:000cb800       c31_f_emlrt_marshallIn     00000001800cc800 f   c31_six_plus_six_AcmsteeringV09_main_2lflm.obj
 0001:000cb900       mdlProcessParameters_c31_six_plus_six_AcmsteeringV09_main_2lflm 00000001800cc900 f   c31_six_plus_six_AcmsteeringV09_main_2lflm.obj
 0001:000cb9e0       initialize_params_c31_six_plus_six_AcmsteeringV09_main_2lflm 00000001800cc9e0 f   c31_six_plus_six_AcmsteeringV09_main_2lflm.obj
 0001:000cb9f0       mdlSetWorkWidths_c31_six_plus_six_AcmsteeringV09_main_2lflm 00000001800cc9f0 f   c31_six_plus_six_AcmsteeringV09_main_2lflm.obj
 0001:000cc4f0       sf_get_instance_specialization 00000001800cd4f0 f   c31_six_plus_six_AcmsteeringV09_main_2lflm.obj
 0001:000cc500       mdlStart_c31_six_plus_six_AcmsteeringV09_main_2lflm 00000001800cd500 f   c31_six_plus_six_AcmsteeringV09_main_2lflm.obj
 0001:000cc730       init_dsm_address_info      00000001800cd730 f   c31_six_plus_six_AcmsteeringV09_main_2lflm.obj
 0001:000cc740       chart_debug_initialization 00000001800cd740 f   c31_six_plus_six_AcmsteeringV09_main_2lflm.obj
 0001:000d0800       init_script_number_translation 00000001800d1800 f   c31_six_plus_six_AcmsteeringV09_main_2lflm.obj
 0001:000d0820       c31_sf_marshallOut         00000001800d1820 f   c31_six_plus_six_AcmsteeringV09_main_2lflm.obj
 0001:000d08e0       c31_sf_marshallIn          00000001800d18e0 f   c31_six_plus_six_AcmsteeringV09_main_2lflm.obj
 0001:000d0980       c31_b_sf_marshallOut       00000001800d1980 f   c31_six_plus_six_AcmsteeringV09_main_2lflm.obj
 0001:000d0a30       c31_c_sf_marshallOut       00000001800d1a30 f   c31_six_plus_six_AcmsteeringV09_main_2lflm.obj
 0001:000d0ae0       sf_opaque_initialize_c31_six_plus_six_AcmsteeringV09_main_2lflm 00000001800d1ae0 f   c31_six_plus_six_AcmsteeringV09_main_2lflm.obj
 0001:000d0b20       initialize_c31_six_plus_six_AcmsteeringV09_main_2lflm 00000001800d1b20 f   c31_six_plus_six_AcmsteeringV09_main_2lflm.obj
 0001:000d0b70       sf_opaque_enable_c31_six_plus_six_AcmsteeringV09_main_2lflm 00000001800d1b70 f   c31_six_plus_six_AcmsteeringV09_main_2lflm.obj
 0001:000d0b90       enable_c31_six_plus_six_AcmsteeringV09_main_2lflm 00000001800d1b90 f   c31_six_plus_six_AcmsteeringV09_main_2lflm.obj
 0001:000d0bc0       sf_opaque_disable_c31_six_plus_six_AcmsteeringV09_main_2lflm 00000001800d1bc0 f   c31_six_plus_six_AcmsteeringV09_main_2lflm.obj
 0001:000d0be0       disable_c31_six_plus_six_AcmsteeringV09_main_2lflm 00000001800d1be0 f   c31_six_plus_six_AcmsteeringV09_main_2lflm.obj
 0001:000d0c10       sf_opaque_gateway_c31_six_plus_six_AcmsteeringV09_main_2lflm 00000001800d1c10 f   c31_six_plus_six_AcmsteeringV09_main_2lflm.obj
 0001:000d0c30       sf_gateway_c31_six_plus_six_AcmsteeringV09_main_2lflm 00000001800d1c30 f   c31_six_plus_six_AcmsteeringV09_main_2lflm.obj
 0001:000d1ed0       c31_chartstep_c31_six_plus_six_AcmsteeringV09_main_2lflm 00000001800d2ed0 f   c31_six_plus_six_AcmsteeringV09_main_2lflm.obj
 0001:000d6ea0       c31_b_sf_marshallIn        00000001800d7ea0 f   c31_six_plus_six_AcmsteeringV09_main_2lflm.obj
 0001:000d6f40       c31_c_emlrt_marshallIn     00000001800d7f40 f   c31_six_plus_six_AcmsteeringV09_main_2lflm.obj
 0001:000d6fd0       c31_eml_scalar_eg          00000001800d7fd0 f   c31_six_plus_six_AcmsteeringV09_main_2lflm.obj
 0001:000d6fe0       c31_b_eml_scalar_eg        00000001800d7fe0 f   c31_six_plus_six_AcmsteeringV09_main_2lflm.obj
 0001:000d6ff0       sf_opaque_get_sim_state_c31_six_plus_six_AcmsteeringV09_main_2lflm 00000001800d7ff0 f   c31_six_plus_six_AcmsteeringV09_main_2lflm.obj
 0001:000d7010       sf_opaque_set_sim_state_c31_six_plus_six_AcmsteeringV09_main_2lflm 00000001800d8010 f   c31_six_plus_six_AcmsteeringV09_main_2lflm.obj
 0001:000d7040       sf_opaque_terminate_c31_six_plus_six_AcmsteeringV09_main_2lflm 00000001800d8040 f   c31_six_plus_six_AcmsteeringV09_main_2lflm.obj
 0001:000d70e0       finalize_c31_six_plus_six_AcmsteeringV09_main_2lflm 00000001800d80e0 f   c31_six_plus_six_AcmsteeringV09_main_2lflm.obj
 0001:000d70f0       sf_opaque_init_subchart_simstructs 00000001800d80f0 f   c31_six_plus_six_AcmsteeringV09_main_2lflm.obj
 0001:000d7110       initSimStructsc31_six_plus_six_AcmsteeringV09_main_2lflm 00000001800d8110 f   c31_six_plus_six_AcmsteeringV09_main_2lflm.obj
 0001:000d7120       mdlRTW_c31_six_plus_six_AcmsteeringV09_main_2lflm 00000001800d8120 f   c31_six_plus_six_AcmsteeringV09_main_2lflm.obj
 0001:000d71d0       c32_info_helper            00000001800d81d0 f   c32_six_plus_six_AcmsteeringV09_main_2lflm.obj
 0001:000da9d0       c32_emlrt_marshallOut      00000001800db9d0 f   c32_six_plus_six_AcmsteeringV09_main_2lflm.obj
 0001:000daa60       c32_b_emlrt_marshallOut    00000001800dba60 f   c32_six_plus_six_AcmsteeringV09_main_2lflm.obj
 0001:000dce40       get_sim_state_c32_six_plus_six_AcmsteeringV09_main_2lflm 00000001800dde40 f   c32_six_plus_six_AcmsteeringV09_main_2lflm.obj
 0001:000dd5f0       sf_get_sim_state_info_c32_six_plus_six_AcmsteeringV09_main_2lflm 00000001800de5f0 f   c32_six_plus_six_AcmsteeringV09_main_2lflm.obj
 0001:000dd7c0       set_sim_state_c32_six_plus_six_AcmsteeringV09_main_2lflm 00000001800de7c0 f   c32_six_plus_six_AcmsteeringV09_main_2lflm.obj
 0001:000ddb50       c32_update_debugger_state_c32_six_plus_six_AcmsteeringV09_main_2 00000001800deb50 f   c32_six_plus_six_AcmsteeringV09_main_2lflm.obj
 0001:000ddb60       c32_emlrt_marshallIn       00000001800deb60 f   c32_six_plus_six_AcmsteeringV09_main_2lflm.obj
 0001:000ddbc0       c32_b_emlrt_marshallIn     00000001800debc0 f   c32_six_plus_six_AcmsteeringV09_main_2lflm.obj
 0001:000ddc50       c32_c_emlrt_marshallIn     00000001800dec50 f   c32_six_plus_six_AcmsteeringV09_main_2lflm.obj
 0001:000ddcc0       c32_d_emlrt_marshallIn     00000001800decc0 f   c32_six_plus_six_AcmsteeringV09_main_2lflm.obj
 0001:000ddd50       c32_g_emlrt_marshallIn     00000001800ded50 f   c32_six_plus_six_AcmsteeringV09_main_2lflm.obj
 0001:000dddb0       c32_h_emlrt_marshallIn     00000001800dedb0 f   c32_six_plus_six_AcmsteeringV09_main_2lflm.obj
 0001:000ddeb0       mdlProcessParameters_c32_six_plus_six_AcmsteeringV09_main_2lflm 00000001800deeb0 f   c32_six_plus_six_AcmsteeringV09_main_2lflm.obj
 0001:000ddf90       initialize_params_c32_six_plus_six_AcmsteeringV09_main_2lflm 00000001800def90 f   c32_six_plus_six_AcmsteeringV09_main_2lflm.obj
 0001:000ddfa0       mdlSetWorkWidths_c32_six_plus_six_AcmsteeringV09_main_2lflm 00000001800defa0 f   c32_six_plus_six_AcmsteeringV09_main_2lflm.obj
 0001:000de740       sf_get_instance_specialization 00000001800df740 f   c32_six_plus_six_AcmsteeringV09_main_2lflm.obj
 0001:000de750       mdlStart_c32_six_plus_six_AcmsteeringV09_main_2lflm 00000001800df750 f   c32_six_plus_six_AcmsteeringV09_main_2lflm.obj
 0001:000de980       init_dsm_address_info      00000001800df980 f   c32_six_plus_six_AcmsteeringV09_main_2lflm.obj
 0001:000de990       chart_debug_initialization 00000001800df990 f   c32_six_plus_six_AcmsteeringV09_main_2lflm.obj
 0001:000e5460       init_script_number_translation 00000001800e6460 f   c32_six_plus_six_AcmsteeringV09_main_2lflm.obj
 0001:000e5480       c32_sf_marshallOut         00000001800e6480 f   c32_six_plus_six_AcmsteeringV09_main_2lflm.obj
 0001:000e5530       c32_sf_marshallIn          00000001800e6530 f   c32_six_plus_six_AcmsteeringV09_main_2lflm.obj
 0001:000e55d0       c32_b_sf_marshallOut       00000001800e65d0 f   c32_six_plus_six_AcmsteeringV09_main_2lflm.obj
 0001:000e5690       c32_b_sf_marshallIn        00000001800e6690 f   c32_six_plus_six_AcmsteeringV09_main_2lflm.obj
 0001:000e5730       c32_c_sf_marshallOut       00000001800e6730 f   c32_six_plus_six_AcmsteeringV09_main_2lflm.obj
 0001:000e57e0       sf_opaque_initialize_c32_six_plus_six_AcmsteeringV09_main_2lflm 00000001800e67e0 f   c32_six_plus_six_AcmsteeringV09_main_2lflm.obj
 0001:000e5820       initialize_c32_six_plus_six_AcmsteeringV09_main_2lflm 00000001800e6820 f   c32_six_plus_six_AcmsteeringV09_main_2lflm.obj
 0001:000e5870       sf_opaque_enable_c32_six_plus_six_AcmsteeringV09_main_2lflm 00000001800e6870 f   c32_six_plus_six_AcmsteeringV09_main_2lflm.obj
 0001:000e5890       enable_c32_six_plus_six_AcmsteeringV09_main_2lflm 00000001800e6890 f   c32_six_plus_six_AcmsteeringV09_main_2lflm.obj
 0001:000e58c0       sf_opaque_disable_c32_six_plus_six_AcmsteeringV09_main_2lflm 00000001800e68c0 f   c32_six_plus_six_AcmsteeringV09_main_2lflm.obj
 0001:000e58e0       disable_c32_six_plus_six_AcmsteeringV09_main_2lflm 00000001800e68e0 f   c32_six_plus_six_AcmsteeringV09_main_2lflm.obj
 0001:000e5910       sf_opaque_gateway_c32_six_plus_six_AcmsteeringV09_main_2lflm 00000001800e6910 f   c32_six_plus_six_AcmsteeringV09_main_2lflm.obj
 0001:000e5930       sf_gateway_c32_six_plus_six_AcmsteeringV09_main_2lflm 00000001800e6930 f   c32_six_plus_six_AcmsteeringV09_main_2lflm.obj
 0001:000e64b0       c32_chartstep_c32_six_plus_six_AcmsteeringV09_main_2lflm 00000001800e74b0 f   c32_six_plus_six_AcmsteeringV09_main_2lflm.obj
 0001:00136f40       c32_c_sf_marshallIn        0000000180137f40 f   c32_six_plus_six_AcmsteeringV09_main_2lflm.obj
 0001:00136fe0       c32_e_emlrt_marshallIn     0000000180137fe0 f   c32_six_plus_six_AcmsteeringV09_main_2lflm.obj
 0001:00137070       c32_eml_scalar_eg          0000000180138070 f   c32_six_plus_six_AcmsteeringV09_main_2lflm.obj
 0001:00137080       c32_b_eml_scalar_eg        0000000180138080 f   c32_six_plus_six_AcmsteeringV09_main_2lflm.obj
 0001:00137090       sf_opaque_get_sim_state_c32_six_plus_six_AcmsteeringV09_main_2lflm 0000000180138090 f   c32_six_plus_six_AcmsteeringV09_main_2lflm.obj
 0001:001370b0       sf_opaque_set_sim_state_c32_six_plus_six_AcmsteeringV09_main_2lflm 00000001801380b0 f   c32_six_plus_six_AcmsteeringV09_main_2lflm.obj
 0001:001370e0       sf_opaque_terminate_c32_six_plus_six_AcmsteeringV09_main_2lflm 00000001801380e0 f   c32_six_plus_six_AcmsteeringV09_main_2lflm.obj
 0001:00137180       finalize_c32_six_plus_six_AcmsteeringV09_main_2lflm 0000000180138180 f   c32_six_plus_six_AcmsteeringV09_main_2lflm.obj
 0001:00137190       sf_opaque_init_subchart_simstructs 0000000180138190 f   c32_six_plus_six_AcmsteeringV09_main_2lflm.obj
 0001:001371b0       initSimStructsc32_six_plus_six_AcmsteeringV09_main_2lflm 00000001801381b0 f   c32_six_plus_six_AcmsteeringV09_main_2lflm.obj
 0001:001371c0       mdlRTW_c32_six_plus_six_AcmsteeringV09_main_2lflm 00000001801381c0 f   c32_six_plus_six_AcmsteeringV09_main_2lflm.obj
 0001:00137270       c33_info_helper            0000000180138270 f   c33_six_plus_six_AcmsteeringV09_main_2lflm.obj
 0001:00138d10       c33_emlrt_marshallOut      0000000180139d10 f   c33_six_plus_six_AcmsteeringV09_main_2lflm.obj
 0001:00138da0       c33_b_emlrt_marshallOut    0000000180139da0 f   c33_six_plus_six_AcmsteeringV09_main_2lflm.obj
 0001:00139a70       get_sim_state_c33_six_plus_six_AcmsteeringV09_main_2lflm 000000018013aa70 f   c33_six_plus_six_AcmsteeringV09_main_2lflm.obj
 0001:00139cd0       sf_get_sim_state_info_c33_six_plus_six_AcmsteeringV09_main_2lflm 000000018013acd0 f   c33_six_plus_six_AcmsteeringV09_main_2lflm.obj
 0001:00139ea0       set_sim_state_c33_six_plus_six_AcmsteeringV09_main_2lflm 000000018013aea0 f   c33_six_plus_six_AcmsteeringV09_main_2lflm.obj
 0001:00139fc0       c33_update_debugger_state_c33_six_plus_six_AcmsteeringV09_main_2 000000018013afc0 f   c33_six_plus_six_AcmsteeringV09_main_2lflm.obj
 0001:00139fd0       c33_emlrt_marshallIn       000000018013afd0 f   c33_six_plus_six_AcmsteeringV09_main_2lflm.obj
 0001:0013a040       c33_b_emlrt_marshallIn     000000018013b040 f   c33_six_plus_six_AcmsteeringV09_main_2lflm.obj
 0001:0013a0d0       c33_e_emlrt_marshallIn     000000018013b0d0 f   c33_six_plus_six_AcmsteeringV09_main_2lflm.obj
 0001:0013a130       c33_f_emlrt_marshallIn     000000018013b130 f   c33_six_plus_six_AcmsteeringV09_main_2lflm.obj
 0001:0013a230       mdlProcessParameters_c33_six_plus_six_AcmsteeringV09_main_2lflm 000000018013b230 f   c33_six_plus_six_AcmsteeringV09_main_2lflm.obj
 0001:0013a310       initialize_params_c33_six_plus_six_AcmsteeringV09_main_2lflm 000000018013b310 f   c33_six_plus_six_AcmsteeringV09_main_2lflm.obj
 0001:0013a320       mdlSetWorkWidths_c33_six_plus_six_AcmsteeringV09_main_2lflm 000000018013b320 f   c33_six_plus_six_AcmsteeringV09_main_2lflm.obj
 0001:0013a8b0       sf_get_instance_specialization 000000018013b8b0 f   c33_six_plus_six_AcmsteeringV09_main_2lflm.obj
 0001:0013a8c0       mdlStart_c33_six_plus_six_AcmsteeringV09_main_2lflm 000000018013b8c0 f   c33_six_plus_six_AcmsteeringV09_main_2lflm.obj
 0001:0013aaf0       init_dsm_address_info      000000018013baf0 f   c33_six_plus_six_AcmsteeringV09_main_2lflm.obj
 0001:0013ab00       chart_debug_initialization 000000018013bb00 f   c33_six_plus_six_AcmsteeringV09_main_2lflm.obj
 0001:0013b9f0       init_script_number_translation 000000018013c9f0 f   c33_six_plus_six_AcmsteeringV09_main_2lflm.obj
 0001:0013ba10       c33_sf_marshallOut         000000018013ca10 f   c33_six_plus_six_AcmsteeringV09_main_2lflm.obj
 0001:0013bad0       c33_sf_marshallIn          000000018013cad0 f   c33_six_plus_six_AcmsteeringV09_main_2lflm.obj
 0001:0013bb70       c33_b_sf_marshallOut       000000018013cb70 f   c33_six_plus_six_AcmsteeringV09_main_2lflm.obj
 0001:0013bc20       sf_opaque_initialize_c33_six_plus_six_AcmsteeringV09_main_2lflm 000000018013cc20 f   c33_six_plus_six_AcmsteeringV09_main_2lflm.obj
 0001:0013bc60       initialize_c33_six_plus_six_AcmsteeringV09_main_2lflm 000000018013cc60 f   c33_six_plus_six_AcmsteeringV09_main_2lflm.obj
 0001:0013bcb0       sf_opaque_enable_c33_six_plus_six_AcmsteeringV09_main_2lflm 000000018013ccb0 f   c33_six_plus_six_AcmsteeringV09_main_2lflm.obj
 0001:0013bcd0       enable_c33_six_plus_six_AcmsteeringV09_main_2lflm 000000018013ccd0 f   c33_six_plus_six_AcmsteeringV09_main_2lflm.obj
 0001:0013bd00       sf_opaque_disable_c33_six_plus_six_AcmsteeringV09_main_2lflm 000000018013cd00 f   c33_six_plus_six_AcmsteeringV09_main_2lflm.obj
 0001:0013bd20       disable_c33_six_plus_six_AcmsteeringV09_main_2lflm 000000018013cd20 f   c33_six_plus_six_AcmsteeringV09_main_2lflm.obj
 0001:0013bd50       sf_opaque_gateway_c33_six_plus_six_AcmsteeringV09_main_2lflm 000000018013cd50 f   c33_six_plus_six_AcmsteeringV09_main_2lflm.obj
 0001:0013bd70       sf_gateway_c33_six_plus_six_AcmsteeringV09_main_2lflm 000000018013cd70 f   c33_six_plus_six_AcmsteeringV09_main_2lflm.obj
 0001:0013c170       c33_chartstep_c33_six_plus_six_AcmsteeringV09_main_2lflm 000000018013d170 f   c33_six_plus_six_AcmsteeringV09_main_2lflm.obj
 0001:0013d0c0       c33_b_sf_marshallIn        000000018013e0c0 f   c33_six_plus_six_AcmsteeringV09_main_2lflm.obj
 0001:0013d160       c33_c_emlrt_marshallIn     000000018013e160 f   c33_six_plus_six_AcmsteeringV09_main_2lflm.obj
 0001:0013d1f0       c33_eml_scalar_eg          000000018013e1f0 f   c33_six_plus_six_AcmsteeringV09_main_2lflm.obj
 0001:0013d200       sf_opaque_get_sim_state_c33_six_plus_six_AcmsteeringV09_main_2lflm 000000018013e200 f   c33_six_plus_six_AcmsteeringV09_main_2lflm.obj
 0001:0013d220       sf_opaque_set_sim_state_c33_six_plus_six_AcmsteeringV09_main_2lflm 000000018013e220 f   c33_six_plus_six_AcmsteeringV09_main_2lflm.obj
 0001:0013d250       sf_opaque_terminate_c33_six_plus_six_AcmsteeringV09_main_2lflm 000000018013e250 f   c33_six_plus_six_AcmsteeringV09_main_2lflm.obj
 0001:0013d2f0       finalize_c33_six_plus_six_AcmsteeringV09_main_2lflm 000000018013e2f0 f   c33_six_plus_six_AcmsteeringV09_main_2lflm.obj
 0001:0013d300       sf_opaque_init_subchart_simstructs 000000018013e300 f   c33_six_plus_six_AcmsteeringV09_main_2lflm.obj
 0001:0013d320       initSimStructsc33_six_plus_six_AcmsteeringV09_main_2lflm 000000018013e320 f   c33_six_plus_six_AcmsteeringV09_main_2lflm.obj
 0001:0013d330       mdlRTW_c33_six_plus_six_AcmsteeringV09_main_2lflm 000000018013e330 f   c33_six_plus_six_AcmsteeringV09_main_2lflm.obj
 0001:0013d3e0       c34_info_helper            000000018013e3e0 f   c34_six_plus_six_AcmsteeringV09_main_2lflm.obj
 0001:0013ee80       c34_emlrt_marshallOut      000000018013fe80 f   c34_six_plus_six_AcmsteeringV09_main_2lflm.obj
 0001:0013ef10       c34_b_emlrt_marshallOut    000000018013ff10 f   c34_six_plus_six_AcmsteeringV09_main_2lflm.obj
 0001:001400f0       get_sim_state_c34_six_plus_six_AcmsteeringV09_main_2lflm 00000001801410f0 f   c34_six_plus_six_AcmsteeringV09_main_2lflm.obj
 0001:00140290       sf_get_sim_state_info_c34_six_plus_six_AcmsteeringV09_main_2lflm 0000000180141290 f   c34_six_plus_six_AcmsteeringV09_main_2lflm.obj
 0001:00140460       set_sim_state_c34_six_plus_six_AcmsteeringV09_main_2lflm 0000000180141460 f   c34_six_plus_six_AcmsteeringV09_main_2lflm.obj
 0001:00140540       c34_update_debugger_state_c34_six_plus_six_AcmsteeringV09_main_2 0000000180141540 f   c34_six_plus_six_AcmsteeringV09_main_2lflm.obj
 0001:00140550       c34_emlrt_marshallIn       0000000180141550 f   c34_six_plus_six_AcmsteeringV09_main_2lflm.obj
 0001:001405c0       c34_b_emlrt_marshallIn     00000001801415c0 f   c34_six_plus_six_AcmsteeringV09_main_2lflm.obj
 0001:00140650       c34_e_emlrt_marshallIn     0000000180141650 f   c34_six_plus_six_AcmsteeringV09_main_2lflm.obj
 0001:001406b0       c34_f_emlrt_marshallIn     00000001801416b0 f   c34_six_plus_six_AcmsteeringV09_main_2lflm.obj
 0001:001407b0       mdlProcessParameters_c34_six_plus_six_AcmsteeringV09_main_2lflm 00000001801417b0 f   c34_six_plus_six_AcmsteeringV09_main_2lflm.obj
 0001:00140890       initialize_params_c34_six_plus_six_AcmsteeringV09_main_2lflm 0000000180141890 f   c34_six_plus_six_AcmsteeringV09_main_2lflm.obj
 0001:001408a0       mdlSetWorkWidths_c34_six_plus_six_AcmsteeringV09_main_2lflm 00000001801418a0 f   c34_six_plus_six_AcmsteeringV09_main_2lflm.obj
 0001:00140f20       sf_get_instance_specialization 0000000180141f20 f   c34_six_plus_six_AcmsteeringV09_main_2lflm.obj
 0001:00140f30       mdlStart_c34_six_plus_six_AcmsteeringV09_main_2lflm 0000000180141f30 f   c34_six_plus_six_AcmsteeringV09_main_2lflm.obj
 0001:00141160       init_dsm_address_info      0000000180142160 f   c34_six_plus_six_AcmsteeringV09_main_2lflm.obj
 0001:00141170       chart_debug_initialization 0000000180142170 f   c34_six_plus_six_AcmsteeringV09_main_2lflm.obj
 0001:00142570       init_script_number_translation 0000000180143570 f   c34_six_plus_six_AcmsteeringV09_main_2lflm.obj
 0001:00142590       c34_sf_marshallOut         0000000180143590 f   c34_six_plus_six_AcmsteeringV09_main_2lflm.obj
 0001:00142650       c34_sf_marshallIn          0000000180143650 f   c34_six_plus_six_AcmsteeringV09_main_2lflm.obj
 0001:001426f0       sf_opaque_initialize_c34_six_plus_six_AcmsteeringV09_main_2lflm 00000001801436f0 f   c34_six_plus_six_AcmsteeringV09_main_2lflm.obj
 0001:00142730       initialize_c34_six_plus_six_AcmsteeringV09_main_2lflm 0000000180143730 f   c34_six_plus_six_AcmsteeringV09_main_2lflm.obj
 0001:00142780       sf_opaque_enable_c34_six_plus_six_AcmsteeringV09_main_2lflm 0000000180143780 f   c34_six_plus_six_AcmsteeringV09_main_2lflm.obj
 0001:001427a0       enable_c34_six_plus_six_AcmsteeringV09_main_2lflm 00000001801437a0 f   c34_six_plus_six_AcmsteeringV09_main_2lflm.obj
 0001:001427d0       sf_opaque_disable_c34_six_plus_six_AcmsteeringV09_main_2lflm 00000001801437d0 f   c34_six_plus_six_AcmsteeringV09_main_2lflm.obj
 0001:001427f0       disable_c34_six_plus_six_AcmsteeringV09_main_2lflm 00000001801437f0 f   c34_six_plus_six_AcmsteeringV09_main_2lflm.obj
 0001:00142820       sf_opaque_gateway_c34_six_plus_six_AcmsteeringV09_main_2lflm 0000000180143820 f   c34_six_plus_six_AcmsteeringV09_main_2lflm.obj
 0001:00142840       sf_gateway_c34_six_plus_six_AcmsteeringV09_main_2lflm 0000000180143840 f   c34_six_plus_six_AcmsteeringV09_main_2lflm.obj
 0001:00142df0       c34_chartstep_c34_six_plus_six_AcmsteeringV09_main_2lflm 0000000180143df0 f   c34_six_plus_six_AcmsteeringV09_main_2lflm.obj
 0001:00143c30       c34_b_sf_marshallOut       0000000180144c30 f   c34_six_plus_six_AcmsteeringV09_main_2lflm.obj
 0001:00143ce0       c34_b_sf_marshallIn        0000000180144ce0 f   c34_six_plus_six_AcmsteeringV09_main_2lflm.obj
 0001:00143d80       c34_c_emlrt_marshallIn     0000000180144d80 f   c34_six_plus_six_AcmsteeringV09_main_2lflm.obj
 0001:00143e10       sf_opaque_get_sim_state_c34_six_plus_six_AcmsteeringV09_main_2lflm 0000000180144e10 f   c34_six_plus_six_AcmsteeringV09_main_2lflm.obj
 0001:00143e30       sf_opaque_set_sim_state_c34_six_plus_six_AcmsteeringV09_main_2lflm 0000000180144e30 f   c34_six_plus_six_AcmsteeringV09_main_2lflm.obj
 0001:00143e60       sf_opaque_terminate_c34_six_plus_six_AcmsteeringV09_main_2lflm 0000000180144e60 f   c34_six_plus_six_AcmsteeringV09_main_2lflm.obj
 0001:00143f00       finalize_c34_six_plus_six_AcmsteeringV09_main_2lflm 0000000180144f00 f   c34_six_plus_six_AcmsteeringV09_main_2lflm.obj
 0001:00143f10       sf_opaque_init_subchart_simstructs 0000000180144f10 f   c34_six_plus_six_AcmsteeringV09_main_2lflm.obj
 0001:00143f30       initSimStructsc34_six_plus_six_AcmsteeringV09_main_2lflm 0000000180144f30 f   c34_six_plus_six_AcmsteeringV09_main_2lflm.obj
 0001:00143f40       mdlRTW_c34_six_plus_six_AcmsteeringV09_main_2lflm 0000000180144f40 f   c34_six_plus_six_AcmsteeringV09_main_2lflm.obj
 0001:00143ff0       c35_info_helper            0000000180144ff0 f   c35_six_plus_six_AcmsteeringV09_main_2lflm.obj
 0001:00147a60       c35_emlrt_marshallOut      0000000180148a60 f   c35_six_plus_six_AcmsteeringV09_main_2lflm.obj
 0001:00147af0       c35_b_emlrt_marshallOut    0000000180148af0 f   c35_six_plus_six_AcmsteeringV09_main_2lflm.obj
 0001:001482b0       get_sim_state_c35_six_plus_six_AcmsteeringV09_main_2lflm 00000001801492b0 f   c35_six_plus_six_AcmsteeringV09_main_2lflm.obj
 0001:00148450       sf_get_sim_state_info_c35_six_plus_six_AcmsteeringV09_main_2lflm 0000000180149450 f   c35_six_plus_six_AcmsteeringV09_main_2lflm.obj
 0001:00148620       set_sim_state_c35_six_plus_six_AcmsteeringV09_main_2lflm 0000000180149620 f   c35_six_plus_six_AcmsteeringV09_main_2lflm.obj
 0001:00148700       c35_update_debugger_state_c35_six_plus_six_AcmsteeringV09_main_2 0000000180149700 f   c35_six_plus_six_AcmsteeringV09_main_2lflm.obj
 0001:00148710       c35_emlrt_marshallIn       0000000180149710 f   c35_six_plus_six_AcmsteeringV09_main_2lflm.obj
 0001:00148780       c35_b_emlrt_marshallIn     0000000180149780 f   c35_six_plus_six_AcmsteeringV09_main_2lflm.obj
 0001:00148810       c35_e_emlrt_marshallIn     0000000180149810 f   c35_six_plus_six_AcmsteeringV09_main_2lflm.obj
 0001:00148870       c35_f_emlrt_marshallIn     0000000180149870 f   c35_six_plus_six_AcmsteeringV09_main_2lflm.obj
 0001:00148970       mdlProcessParameters_c35_six_plus_six_AcmsteeringV09_main_2lflm 0000000180149970 f   c35_six_plus_six_AcmsteeringV09_main_2lflm.obj
 0001:00148a50       initialize_params_c35_six_plus_six_AcmsteeringV09_main_2lflm 0000000180149a50 f   c35_six_plus_six_AcmsteeringV09_main_2lflm.obj
 0001:00148a60       mdlSetWorkWidths_c35_six_plus_six_AcmsteeringV09_main_2lflm 0000000180149a60 f   c35_six_plus_six_AcmsteeringV09_main_2lflm.obj
 0001:00148f60       sf_get_instance_specialization 0000000180149f60 f   c35_six_plus_six_AcmsteeringV09_main_2lflm.obj
 0001:00148f70       mdlStart_c35_six_plus_six_AcmsteeringV09_main_2lflm 0000000180149f70 f   c35_six_plus_six_AcmsteeringV09_main_2lflm.obj
 0001:001491a0       init_dsm_address_info      000000018014a1a0 f   c35_six_plus_six_AcmsteeringV09_main_2lflm.obj
 0001:001491b0       chart_debug_initialization 000000018014a1b0 f   c35_six_plus_six_AcmsteeringV09_main_2lflm.obj
 0001:00149a50       init_script_number_translation 000000018014aa50 f   c35_six_plus_six_AcmsteeringV09_main_2lflm.obj
 0001:00149a70       c35_sf_marshallOut         000000018014aa70 f   c35_six_plus_six_AcmsteeringV09_main_2lflm.obj
 0001:00149b30       c35_sf_marshallIn          000000018014ab30 f   c35_six_plus_six_AcmsteeringV09_main_2lflm.obj
 0001:00149bd0       sf_opaque_initialize_c35_six_plus_six_AcmsteeringV09_main_2lflm 000000018014abd0 f   c35_six_plus_six_AcmsteeringV09_main_2lflm.obj
 0001:00149c10       initialize_c35_six_plus_six_AcmsteeringV09_main_2lflm 000000018014ac10 f   c35_six_plus_six_AcmsteeringV09_main_2lflm.obj
 0001:00149c60       sf_opaque_enable_c35_six_plus_six_AcmsteeringV09_main_2lflm 000000018014ac60 f   c35_six_plus_six_AcmsteeringV09_main_2lflm.obj
 0001:00149c80       enable_c35_six_plus_six_AcmsteeringV09_main_2lflm 000000018014ac80 f   c35_six_plus_six_AcmsteeringV09_main_2lflm.obj
 0001:00149cb0       sf_opaque_disable_c35_six_plus_six_AcmsteeringV09_main_2lflm 000000018014acb0 f   c35_six_plus_six_AcmsteeringV09_main_2lflm.obj
 0001:00149cd0       disable_c35_six_plus_six_AcmsteeringV09_main_2lflm 000000018014acd0 f   c35_six_plus_six_AcmsteeringV09_main_2lflm.obj
 0001:00149d00       sf_opaque_gateway_c35_six_plus_six_AcmsteeringV09_main_2lflm 000000018014ad00 f   c35_six_plus_six_AcmsteeringV09_main_2lflm.obj
 0001:00149d20       sf_gateway_c35_six_plus_six_AcmsteeringV09_main_2lflm 000000018014ad20 f   c35_six_plus_six_AcmsteeringV09_main_2lflm.obj
 0001:0014a4f0       c35_b_sf_marshallOut       000000018014b4f0 f   c35_six_plus_six_AcmsteeringV09_main_2lflm.obj
 0001:0014a5a0       c35_b_sf_marshallIn        000000018014b5a0 f   c35_six_plus_six_AcmsteeringV09_main_2lflm.obj
 0001:0014a640       c35_c_emlrt_marshallIn     000000018014b640 f   c35_six_plus_six_AcmsteeringV09_main_2lflm.obj
 0001:0014a6d0       c35_eml_scalar_eg          000000018014b6d0 f   c35_six_plus_six_AcmsteeringV09_main_2lflm.obj
 0001:0014a6e0       sf_opaque_get_sim_state_c35_six_plus_six_AcmsteeringV09_main_2lflm 000000018014b6e0 f   c35_six_plus_six_AcmsteeringV09_main_2lflm.obj
 0001:0014a700       sf_opaque_set_sim_state_c35_six_plus_six_AcmsteeringV09_main_2lflm 000000018014b700 f   c35_six_plus_six_AcmsteeringV09_main_2lflm.obj
 0001:0014a730       sf_opaque_terminate_c35_six_plus_six_AcmsteeringV09_main_2lflm 000000018014b730 f   c35_six_plus_six_AcmsteeringV09_main_2lflm.obj
 0001:0014a7d0       finalize_c35_six_plus_six_AcmsteeringV09_main_2lflm 000000018014b7d0 f   c35_six_plus_six_AcmsteeringV09_main_2lflm.obj
 0001:0014a7e0       sf_opaque_init_subchart_simstructs 000000018014b7e0 f   c35_six_plus_six_AcmsteeringV09_main_2lflm.obj
 0001:0014a800       initSimStructsc35_six_plus_six_AcmsteeringV09_main_2lflm 000000018014b800 f   c35_six_plus_six_AcmsteeringV09_main_2lflm.obj
 0001:0014a810       mdlRTW_c35_six_plus_six_AcmsteeringV09_main_2lflm 000000018014b810 f   c35_six_plus_six_AcmsteeringV09_main_2lflm.obj
 0001:0014a8c0       c36_info_helper            000000018014b8c0 f   c36_six_plus_six_AcmsteeringV09_main_2lflm.obj
 0001:0014c0f0       c36_emlrt_marshallOut      000000018014d0f0 f   c36_six_plus_six_AcmsteeringV09_main_2lflm.obj
 0001:0014c180       c36_b_emlrt_marshallOut    000000018014d180 f   c36_six_plus_six_AcmsteeringV09_main_2lflm.obj
 0001:0014ce50       get_sim_state_c36_six_plus_six_AcmsteeringV09_main_2lflm 000000018014de50 f   c36_six_plus_six_AcmsteeringV09_main_2lflm.obj
 0001:0014cff0       sf_get_sim_state_info_c36_six_plus_six_AcmsteeringV09_main_2lflm 000000018014dff0 f   c36_six_plus_six_AcmsteeringV09_main_2lflm.obj
 0001:0014d1c0       set_sim_state_c36_six_plus_six_AcmsteeringV09_main_2lflm 000000018014e1c0 f   c36_six_plus_six_AcmsteeringV09_main_2lflm.obj
 0001:0014d2a0       c36_update_debugger_state_c36_six_plus_six_AcmsteeringV09_main_2 000000018014e2a0 f   c36_six_plus_six_AcmsteeringV09_main_2lflm.obj
 0001:0014d2b0       c36_emlrt_marshallIn       000000018014e2b0 f   c36_six_plus_six_AcmsteeringV09_main_2lflm.obj
 0001:0014d320       c36_b_emlrt_marshallIn     000000018014e320 f   c36_six_plus_six_AcmsteeringV09_main_2lflm.obj
 0001:0014d3b0       c36_e_emlrt_marshallIn     000000018014e3b0 f   c36_six_plus_six_AcmsteeringV09_main_2lflm.obj
 0001:0014d410       c36_f_emlrt_marshallIn     000000018014e410 f   c36_six_plus_six_AcmsteeringV09_main_2lflm.obj
 0001:0014d510       mdlProcessParameters_c36_six_plus_six_AcmsteeringV09_main_2lflm 000000018014e510 f   c36_six_plus_six_AcmsteeringV09_main_2lflm.obj
 0001:0014d5f0       initialize_params_c36_six_plus_six_AcmsteeringV09_main_2lflm 000000018014e5f0 f   c36_six_plus_six_AcmsteeringV09_main_2lflm.obj
 0001:0014d600       mdlSetWorkWidths_c36_six_plus_six_AcmsteeringV09_main_2lflm 000000018014e600 f   c36_six_plus_six_AcmsteeringV09_main_2lflm.obj
 0001:0014dbc0       sf_get_instance_specialization 000000018014ebc0 f   c36_six_plus_six_AcmsteeringV09_main_2lflm.obj
 0001:0014dbd0       mdlStart_c36_six_plus_six_AcmsteeringV09_main_2lflm 000000018014ebd0 f   c36_six_plus_six_AcmsteeringV09_main_2lflm.obj
 0001:0014de00       init_dsm_address_info      000000018014ee00 f   c36_six_plus_six_AcmsteeringV09_main_2lflm.obj
 0001:0014de10       chart_debug_initialization 000000018014ee10 f   c36_six_plus_six_AcmsteeringV09_main_2lflm.obj
 0001:0014ec30       init_script_number_translation 000000018014fc30 f   c36_six_plus_six_AcmsteeringV09_main_2lflm.obj
 0001:0014ec50       c36_sf_marshallOut         000000018014fc50 f   c36_six_plus_six_AcmsteeringV09_main_2lflm.obj
 0001:0014ed10       c36_sf_marshallIn          000000018014fd10 f   c36_six_plus_six_AcmsteeringV09_main_2lflm.obj
 0001:0014edb0       sf_opaque_initialize_c36_six_plus_six_AcmsteeringV09_main_2lflm 000000018014fdb0 f   c36_six_plus_six_AcmsteeringV09_main_2lflm.obj
 0001:0014edf0       initialize_c36_six_plus_six_AcmsteeringV09_main_2lflm 000000018014fdf0 f   c36_six_plus_six_AcmsteeringV09_main_2lflm.obj
 0001:0014ee40       sf_opaque_enable_c36_six_plus_six_AcmsteeringV09_main_2lflm 000000018014fe40 f   c36_six_plus_six_AcmsteeringV09_main_2lflm.obj
 0001:0014ee60       enable_c36_six_plus_six_AcmsteeringV09_main_2lflm 000000018014fe60 f   c36_six_plus_six_AcmsteeringV09_main_2lflm.obj
 0001:0014ee90       sf_opaque_disable_c36_six_plus_six_AcmsteeringV09_main_2lflm 000000018014fe90 f   c36_six_plus_six_AcmsteeringV09_main_2lflm.obj
 0001:0014eeb0       disable_c36_six_plus_six_AcmsteeringV09_main_2lflm 000000018014feb0 f   c36_six_plus_six_AcmsteeringV09_main_2lflm.obj
 0001:0014eee0       sf_opaque_gateway_c36_six_plus_six_AcmsteeringV09_main_2lflm 000000018014fee0 f   c36_six_plus_six_AcmsteeringV09_main_2lflm.obj
 0001:0014ef00       sf_gateway_c36_six_plus_six_AcmsteeringV09_main_2lflm 000000018014ff00 f   c36_six_plus_six_AcmsteeringV09_main_2lflm.obj
 0001:0014fb20       c36_b_sf_marshallOut       0000000180150b20 f   c36_six_plus_six_AcmsteeringV09_main_2lflm.obj
 0001:0014fbd0       c36_b_sf_marshallIn        0000000180150bd0 f   c36_six_plus_six_AcmsteeringV09_main_2lflm.obj
 0001:0014fc70       c36_c_emlrt_marshallIn     0000000180150c70 f   c36_six_plus_six_AcmsteeringV09_main_2lflm.obj
 0001:0014fd00       sf_opaque_get_sim_state_c36_six_plus_six_AcmsteeringV09_main_2lflm 0000000180150d00 f   c36_six_plus_six_AcmsteeringV09_main_2lflm.obj
 0001:0014fd20       sf_opaque_set_sim_state_c36_six_plus_six_AcmsteeringV09_main_2lflm 0000000180150d20 f   c36_six_plus_six_AcmsteeringV09_main_2lflm.obj
 0001:0014fd50       sf_opaque_terminate_c36_six_plus_six_AcmsteeringV09_main_2lflm 0000000180150d50 f   c36_six_plus_six_AcmsteeringV09_main_2lflm.obj
 0001:0014fdf0       finalize_c36_six_plus_six_AcmsteeringV09_main_2lflm 0000000180150df0 f   c36_six_plus_six_AcmsteeringV09_main_2lflm.obj
 0001:0014fe00       sf_opaque_init_subchart_simstructs 0000000180150e00 f   c36_six_plus_six_AcmsteeringV09_main_2lflm.obj
 0001:0014fe20       initSimStructsc36_six_plus_six_AcmsteeringV09_main_2lflm 0000000180150e20 f   c36_six_plus_six_AcmsteeringV09_main_2lflm.obj
 0001:0014fe30       mdlRTW_c36_six_plus_six_AcmsteeringV09_main_2lflm 0000000180150e30 f   c36_six_plus_six_AcmsteeringV09_main_2lflm.obj
 0001:001504f0       get_sim_state_c37_six_plus_six_AcmsteeringV09_main_2lflm 00000001801514f0 f   c37_six_plus_six_AcmsteeringV09_main_2lflm.obj
 0001:00150690       sf_get_sim_state_info_c37_six_plus_six_AcmsteeringV09_main_2lflm 0000000180151690 f   c37_six_plus_six_AcmsteeringV09_main_2lflm.obj
 0001:00150860       set_sim_state_c37_six_plus_six_AcmsteeringV09_main_2lflm 0000000180151860 f   c37_six_plus_six_AcmsteeringV09_main_2lflm.obj
 0001:00150940       c37_update_debugger_state_c37_six_plus_six_AcmsteeringV09_main_2 0000000180151940 f   c37_six_plus_six_AcmsteeringV09_main_2lflm.obj
 0001:00150950       c37_emlrt_marshallIn       0000000180151950 f   c37_six_plus_six_AcmsteeringV09_main_2lflm.obj
 0001:001509c0       c37_b_emlrt_marshallIn     00000001801519c0 f   c37_six_plus_six_AcmsteeringV09_main_2lflm.obj
 0001:00150a50       c37_e_emlrt_marshallIn     0000000180151a50 f   c37_six_plus_six_AcmsteeringV09_main_2lflm.obj
 0001:00150ab0       c37_f_emlrt_marshallIn     0000000180151ab0 f   c37_six_plus_six_AcmsteeringV09_main_2lflm.obj
 0001:00150bb0       mdlProcessParameters_c37_six_plus_six_AcmsteeringV09_main_2lflm 0000000180151bb0 f   c37_six_plus_six_AcmsteeringV09_main_2lflm.obj
 0001:00150c90       initialize_params_c37_six_plus_six_AcmsteeringV09_main_2lflm 0000000180151c90 f   c37_six_plus_six_AcmsteeringV09_main_2lflm.obj
 0001:00150ca0       mdlSetWorkWidths_c37_six_plus_six_AcmsteeringV09_main_2lflm 0000000180151ca0 f   c37_six_plus_six_AcmsteeringV09_main_2lflm.obj
 0001:00151170       sf_get_instance_specialization 0000000180152170 f   c37_six_plus_six_AcmsteeringV09_main_2lflm.obj
 0001:00151180       mdlStart_c37_six_plus_six_AcmsteeringV09_main_2lflm 0000000180152180 f   c37_six_plus_six_AcmsteeringV09_main_2lflm.obj
 0001:001513b0       init_dsm_address_info      00000001801523b0 f   c37_six_plus_six_AcmsteeringV09_main_2lflm.obj
 0001:001513c0       chart_debug_initialization 00000001801523c0 f   c37_six_plus_six_AcmsteeringV09_main_2lflm.obj
 0001:00151b70       init_script_number_translation 0000000180152b70 f   c37_six_plus_six_AcmsteeringV09_main_2lflm.obj
 0001:00151b90       c37_sf_marshallOut         0000000180152b90 f   c37_six_plus_six_AcmsteeringV09_main_2lflm.obj
 0001:00151c50       c37_sf_marshallIn          0000000180152c50 f   c37_six_plus_six_AcmsteeringV09_main_2lflm.obj
 0001:00151cf0       sf_opaque_initialize_c37_six_plus_six_AcmsteeringV09_main_2lflm 0000000180152cf0 f   c37_six_plus_six_AcmsteeringV09_main_2lflm.obj
 0001:00151d30       initialize_c37_six_plus_six_AcmsteeringV09_main_2lflm 0000000180152d30 f   c37_six_plus_six_AcmsteeringV09_main_2lflm.obj
 0001:00151d80       sf_opaque_enable_c37_six_plus_six_AcmsteeringV09_main_2lflm 0000000180152d80 f   c37_six_plus_six_AcmsteeringV09_main_2lflm.obj
 0001:00151da0       enable_c37_six_plus_six_AcmsteeringV09_main_2lflm 0000000180152da0 f   c37_six_plus_six_AcmsteeringV09_main_2lflm.obj
 0001:00151dd0       sf_opaque_disable_c37_six_plus_six_AcmsteeringV09_main_2lflm 0000000180152dd0 f   c37_six_plus_six_AcmsteeringV09_main_2lflm.obj
 0001:00151df0       disable_c37_six_plus_six_AcmsteeringV09_main_2lflm 0000000180152df0 f   c37_six_plus_six_AcmsteeringV09_main_2lflm.obj
 0001:00151e20       sf_opaque_gateway_c37_six_plus_six_AcmsteeringV09_main_2lflm 0000000180152e20 f   c37_six_plus_six_AcmsteeringV09_main_2lflm.obj
 0001:00151e40       sf_gateway_c37_six_plus_six_AcmsteeringV09_main_2lflm 0000000180152e40 f   c37_six_plus_six_AcmsteeringV09_main_2lflm.obj
 0001:00152560       c37_b_sf_marshallOut       0000000180153560 f   c37_six_plus_six_AcmsteeringV09_main_2lflm.obj
 0001:00152610       c37_b_sf_marshallIn        0000000180153610 f   c37_six_plus_six_AcmsteeringV09_main_2lflm.obj
 0001:001526b0       c37_c_emlrt_marshallIn     00000001801536b0 f   c37_six_plus_six_AcmsteeringV09_main_2lflm.obj
 0001:00152740       sf_opaque_get_sim_state_c37_six_plus_six_AcmsteeringV09_main_2lflm 0000000180153740 f   c37_six_plus_six_AcmsteeringV09_main_2lflm.obj
 0001:00152760       sf_opaque_set_sim_state_c37_six_plus_six_AcmsteeringV09_main_2lflm 0000000180153760 f   c37_six_plus_six_AcmsteeringV09_main_2lflm.obj
 0001:00152790       sf_opaque_terminate_c37_six_plus_six_AcmsteeringV09_main_2lflm 0000000180153790 f   c37_six_plus_six_AcmsteeringV09_main_2lflm.obj
 0001:00152830       finalize_c37_six_plus_six_AcmsteeringV09_main_2lflm 0000000180153830 f   c37_six_plus_six_AcmsteeringV09_main_2lflm.obj
 0001:00152840       sf_opaque_init_subchart_simstructs 0000000180153840 f   c37_six_plus_six_AcmsteeringV09_main_2lflm.obj
 0001:00152860       initSimStructsc37_six_plus_six_AcmsteeringV09_main_2lflm 0000000180153860 f   c37_six_plus_six_AcmsteeringV09_main_2lflm.obj
 0001:00152870       mdlRTW_c37_six_plus_six_AcmsteeringV09_main_2lflm 0000000180153870 f   c37_six_plus_six_AcmsteeringV09_main_2lflm.obj
 0001:001531c0       get_sim_state_c38_six_plus_six_AcmsteeringV09_main_2lflm 00000001801541c0 f   c38_six_plus_six_AcmsteeringV09_main_2lflm.obj
 0001:00153360       sf_get_sim_state_info_c38_six_plus_six_AcmsteeringV09_main_2lflm 0000000180154360 f   c38_six_plus_six_AcmsteeringV09_main_2lflm.obj
 0001:00153530       set_sim_state_c38_six_plus_six_AcmsteeringV09_main_2lflm 0000000180154530 f   c38_six_plus_six_AcmsteeringV09_main_2lflm.obj
 0001:00153600       c38_update_debugger_state_c38_six_plus_six_AcmsteeringV09_main_2 0000000180154600 f   c38_six_plus_six_AcmsteeringV09_main_2lflm.obj
 0001:00153610       c38_emlrt_marshallIn       0000000180154610 f   c38_six_plus_six_AcmsteeringV09_main_2lflm.obj
 0001:00153670       c38_b_emlrt_marshallIn     0000000180154670 f   c38_six_plus_six_AcmsteeringV09_main_2lflm.obj
 0001:00153700       c38_e_emlrt_marshallIn     0000000180154700 f   c38_six_plus_six_AcmsteeringV09_main_2lflm.obj
 0001:00153760       c38_f_emlrt_marshallIn     0000000180154760 f   c38_six_plus_six_AcmsteeringV09_main_2lflm.obj
 0001:00153860       mdlProcessParameters_c38_six_plus_six_AcmsteeringV09_main_2lflm 0000000180154860 f   c38_six_plus_six_AcmsteeringV09_main_2lflm.obj
 0001:00153940       initialize_params_c38_six_plus_six_AcmsteeringV09_main_2lflm 0000000180154940 f   c38_six_plus_six_AcmsteeringV09_main_2lflm.obj
 0001:00153950       mdlSetWorkWidths_c38_six_plus_six_AcmsteeringV09_main_2lflm 0000000180154950 f   c38_six_plus_six_AcmsteeringV09_main_2lflm.obj
 0001:00153e80       sf_get_instance_specialization 0000000180154e80 f   c38_six_plus_six_AcmsteeringV09_main_2lflm.obj
 0001:00153e90       mdlStart_c38_six_plus_six_AcmsteeringV09_main_2lflm 0000000180154e90 f   c38_six_plus_six_AcmsteeringV09_main_2lflm.obj
 0001:001540c0       init_dsm_address_info      00000001801550c0 f   c38_six_plus_six_AcmsteeringV09_main_2lflm.obj
 0001:001540d0       chart_debug_initialization 00000001801550d0 f   c38_six_plus_six_AcmsteeringV09_main_2lflm.obj
 0001:00154c00       init_script_number_translation 0000000180155c00 f   c38_six_plus_six_AcmsteeringV09_main_2lflm.obj
 0001:00154c20       c38_sf_marshallOut         0000000180155c20 f   c38_six_plus_six_AcmsteeringV09_main_2lflm.obj
 0001:00154cd0       c38_sf_marshallIn          0000000180155cd0 f   c38_six_plus_six_AcmsteeringV09_main_2lflm.obj
 0001:00154d70       c38_b_sf_marshallOut       0000000180155d70 f   c38_six_plus_six_AcmsteeringV09_main_2lflm.obj
 0001:00154e20       c38_c_sf_marshallOut       0000000180155e20 f   c38_six_plus_six_AcmsteeringV09_main_2lflm.obj
 0001:00154ee0       sf_opaque_initialize_c38_six_plus_six_AcmsteeringV09_main_2lflm 0000000180155ee0 f   c38_six_plus_six_AcmsteeringV09_main_2lflm.obj
 0001:00154f20       initialize_c38_six_plus_six_AcmsteeringV09_main_2lflm 0000000180155f20 f   c38_six_plus_six_AcmsteeringV09_main_2lflm.obj
 0001:00154f70       sf_opaque_enable_c38_six_plus_six_AcmsteeringV09_main_2lflm 0000000180155f70 f   c38_six_plus_six_AcmsteeringV09_main_2lflm.obj
 0001:00154f90       enable_c38_six_plus_six_AcmsteeringV09_main_2lflm 0000000180155f90 f   c38_six_plus_six_AcmsteeringV09_main_2lflm.obj
 0001:00154fc0       sf_opaque_disable_c38_six_plus_six_AcmsteeringV09_main_2lflm 0000000180155fc0 f   c38_six_plus_six_AcmsteeringV09_main_2lflm.obj
 0001:00154fe0       disable_c38_six_plus_six_AcmsteeringV09_main_2lflm 0000000180155fe0 f   c38_six_plus_six_AcmsteeringV09_main_2lflm.obj
 0001:00155010       sf_opaque_gateway_c38_six_plus_six_AcmsteeringV09_main_2lflm 0000000180156010 f   c38_six_plus_six_AcmsteeringV09_main_2lflm.obj
 0001:00155030       sf_gateway_c38_six_plus_six_AcmsteeringV09_main_2lflm 0000000180156030 f   c38_six_plus_six_AcmsteeringV09_main_2lflm.obj
 0001:00155bc0       c38_d_sf_marshallOut       0000000180156bc0 f   c38_six_plus_six_AcmsteeringV09_main_2lflm.obj
 0001:00155c70       c38_b_sf_marshallIn        0000000180156c70 f   c38_six_plus_six_AcmsteeringV09_main_2lflm.obj
 0001:00155d10       c38_c_emlrt_marshallIn     0000000180156d10 f   c38_six_plus_six_AcmsteeringV09_main_2lflm.obj
 0001:00155da0       sf_opaque_get_sim_state_c38_six_plus_six_AcmsteeringV09_main_2lflm 0000000180156da0 f   c38_six_plus_six_AcmsteeringV09_main_2lflm.obj
 0001:00155dc0       sf_opaque_set_sim_state_c38_six_plus_six_AcmsteeringV09_main_2lflm 0000000180156dc0 f   c38_six_plus_six_AcmsteeringV09_main_2lflm.obj
 0001:00155df0       sf_opaque_terminate_c38_six_plus_six_AcmsteeringV09_main_2lflm 0000000180156df0 f   c38_six_plus_six_AcmsteeringV09_main_2lflm.obj
 0001:00155e90       finalize_c38_six_plus_six_AcmsteeringV09_main_2lflm 0000000180156e90 f   c38_six_plus_six_AcmsteeringV09_main_2lflm.obj
 0001:00155ea0       sf_opaque_init_subchart_simstructs 0000000180156ea0 f   c38_six_plus_six_AcmsteeringV09_main_2lflm.obj
 0001:00155ec0       initSimStructsc38_six_plus_six_AcmsteeringV09_main_2lflm 0000000180156ec0 f   c38_six_plus_six_AcmsteeringV09_main_2lflm.obj
 0001:00155ed0       mdlRTW_c38_six_plus_six_AcmsteeringV09_main_2lflm 0000000180156ed0 f   c38_six_plus_six_AcmsteeringV09_main_2lflm.obj
 0001:00156590       get_sim_state_c39_six_plus_six_AcmsteeringV09_main_2lflm 0000000180157590 f   c39_six_plus_six_AcmsteeringV09_main_2lflm.obj
 0001:00156730       sf_get_sim_state_info_c39_six_plus_six_AcmsteeringV09_main_2lflm 0000000180157730 f   c39_six_plus_six_AcmsteeringV09_main_2lflm.obj
 0001:00156900       set_sim_state_c39_six_plus_six_AcmsteeringV09_main_2lflm 0000000180157900 f   c39_six_plus_six_AcmsteeringV09_main_2lflm.obj
 0001:001569e0       c39_update_debugger_state_c39_six_plus_six_AcmsteeringV09_main_2 00000001801579e0 f   c39_six_plus_six_AcmsteeringV09_main_2lflm.obj
 0001:001569f0       c39_emlrt_marshallIn       00000001801579f0 f   c39_six_plus_six_AcmsteeringV09_main_2lflm.obj
 0001:00156a60       c39_b_emlrt_marshallIn     0000000180157a60 f   c39_six_plus_six_AcmsteeringV09_main_2lflm.obj
 0001:00156af0       c39_e_emlrt_marshallIn     0000000180157af0 f   c39_six_plus_six_AcmsteeringV09_main_2lflm.obj
 0001:00156b50       c39_f_emlrt_marshallIn     0000000180157b50 f   c39_six_plus_six_AcmsteeringV09_main_2lflm.obj
 0001:00156c50       mdlProcessParameters_c39_six_plus_six_AcmsteeringV09_main_2lflm 0000000180157c50 f   c39_six_plus_six_AcmsteeringV09_main_2lflm.obj
 0001:00156d30       initialize_params_c39_six_plus_six_AcmsteeringV09_main_2lflm 0000000180157d30 f   c39_six_plus_six_AcmsteeringV09_main_2lflm.obj
 0001:00156d40       mdlSetWorkWidths_c39_six_plus_six_AcmsteeringV09_main_2lflm 0000000180157d40 f   c39_six_plus_six_AcmsteeringV09_main_2lflm.obj
 0001:00157210       sf_get_instance_specialization 0000000180158210 f   c39_six_plus_six_AcmsteeringV09_main_2lflm.obj
 0001:00157220       mdlStart_c39_six_plus_six_AcmsteeringV09_main_2lflm 0000000180158220 f   c39_six_plus_six_AcmsteeringV09_main_2lflm.obj
 0001:00157450       init_dsm_address_info      0000000180158450 f   c39_six_plus_six_AcmsteeringV09_main_2lflm.obj
 0001:00157460       chart_debug_initialization 0000000180158460 f   c39_six_plus_six_AcmsteeringV09_main_2lflm.obj
 0001:00157c10       init_script_number_translation 0000000180158c10 f   c39_six_plus_six_AcmsteeringV09_main_2lflm.obj
 0001:00157c30       c39_sf_marshallOut         0000000180158c30 f   c39_six_plus_six_AcmsteeringV09_main_2lflm.obj
 0001:00157cf0       c39_sf_marshallIn          0000000180158cf0 f   c39_six_plus_six_AcmsteeringV09_main_2lflm.obj
 0001:00157d90       sf_opaque_initialize_c39_six_plus_six_AcmsteeringV09_main_2lflm 0000000180158d90 f   c39_six_plus_six_AcmsteeringV09_main_2lflm.obj
 0001:00157dd0       initialize_c39_six_plus_six_AcmsteeringV09_main_2lflm 0000000180158dd0 f   c39_six_plus_six_AcmsteeringV09_main_2lflm.obj
 0001:00157e20       sf_opaque_enable_c39_six_plus_six_AcmsteeringV09_main_2lflm 0000000180158e20 f   c39_six_plus_six_AcmsteeringV09_main_2lflm.obj
 0001:00157e40       enable_c39_six_plus_six_AcmsteeringV09_main_2lflm 0000000180158e40 f   c39_six_plus_six_AcmsteeringV09_main_2lflm.obj
 0001:00157e70       sf_opaque_disable_c39_six_plus_six_AcmsteeringV09_main_2lflm 0000000180158e70 f   c39_six_plus_six_AcmsteeringV09_main_2lflm.obj
 0001:00157e90       disable_c39_six_plus_six_AcmsteeringV09_main_2lflm 0000000180158e90 f   c39_six_plus_six_AcmsteeringV09_main_2lflm.obj
 0001:00157ec0       sf_opaque_gateway_c39_six_plus_six_AcmsteeringV09_main_2lflm 0000000180158ec0 f   c39_six_plus_six_AcmsteeringV09_main_2lflm.obj
 0001:00157ee0       sf_gateway_c39_six_plus_six_AcmsteeringV09_main_2lflm 0000000180158ee0 f   c39_six_plus_six_AcmsteeringV09_main_2lflm.obj
 0001:00158610       c39_b_sf_marshallOut       0000000180159610 f   c39_six_plus_six_AcmsteeringV09_main_2lflm.obj
 0001:001586c0       c39_b_sf_marshallIn        00000001801596c0 f   c39_six_plus_six_AcmsteeringV09_main_2lflm.obj
 0001:00158760       c39_c_emlrt_marshallIn     0000000180159760 f   c39_six_plus_six_AcmsteeringV09_main_2lflm.obj
 0001:001587f0       sf_opaque_get_sim_state_c39_six_plus_six_AcmsteeringV09_main_2lflm 00000001801597f0 f   c39_six_plus_six_AcmsteeringV09_main_2lflm.obj
 0001:00158810       sf_opaque_set_sim_state_c39_six_plus_six_AcmsteeringV09_main_2lflm 0000000180159810 f   c39_six_plus_six_AcmsteeringV09_main_2lflm.obj
 0001:00158840       sf_opaque_terminate_c39_six_plus_six_AcmsteeringV09_main_2lflm 0000000180159840 f   c39_six_plus_six_AcmsteeringV09_main_2lflm.obj
 0001:001588e0       finalize_c39_six_plus_six_AcmsteeringV09_main_2lflm 00000001801598e0 f   c39_six_plus_six_AcmsteeringV09_main_2lflm.obj
 0001:001588f0       sf_opaque_init_subchart_simstructs 00000001801598f0 f   c39_six_plus_six_AcmsteeringV09_main_2lflm.obj
 0001:00158910       initSimStructsc39_six_plus_six_AcmsteeringV09_main_2lflm 0000000180159910 f   c39_six_plus_six_AcmsteeringV09_main_2lflm.obj
 0001:00158920       mdlRTW_c39_six_plus_six_AcmsteeringV09_main_2lflm 0000000180159920 f   c39_six_plus_six_AcmsteeringV09_main_2lflm.obj
 0001:00158fe0       get_sim_state_c40_six_plus_six_AcmsteeringV09_main_2lflm 0000000180159fe0 f   c40_six_plus_six_AcmsteeringV09_main_2lflm.obj
 0001:00159180       sf_get_sim_state_info_c40_six_plus_six_AcmsteeringV09_main_2lflm 000000018015a180 f   c40_six_plus_six_AcmsteeringV09_main_2lflm.obj
 0001:00159350       set_sim_state_c40_six_plus_six_AcmsteeringV09_main_2lflm 000000018015a350 f   c40_six_plus_six_AcmsteeringV09_main_2lflm.obj
 0001:00159430       c40_update_debugger_state_c40_six_plus_six_AcmsteeringV09_main_2 000000018015a430 f   c40_six_plus_six_AcmsteeringV09_main_2lflm.obj
 0001:00159440       c40_emlrt_marshallIn       000000018015a440 f   c40_six_plus_six_AcmsteeringV09_main_2lflm.obj
 0001:001594b0       c40_b_emlrt_marshallIn     000000018015a4b0 f   c40_six_plus_six_AcmsteeringV09_main_2lflm.obj
 0001:00159540       c40_e_emlrt_marshallIn     000000018015a540 f   c40_six_plus_six_AcmsteeringV09_main_2lflm.obj
 0001:001595a0       c40_f_emlrt_marshallIn     000000018015a5a0 f   c40_six_plus_six_AcmsteeringV09_main_2lflm.obj
 0001:001596a0       mdlProcessParameters_c40_six_plus_six_AcmsteeringV09_main_2lflm 000000018015a6a0 f   c40_six_plus_six_AcmsteeringV09_main_2lflm.obj
 0001:00159780       initialize_params_c40_six_plus_six_AcmsteeringV09_main_2lflm 000000018015a780 f   c40_six_plus_six_AcmsteeringV09_main_2lflm.obj
 0001:00159790       mdlSetWorkWidths_c40_six_plus_six_AcmsteeringV09_main_2lflm 000000018015a790 f   c40_six_plus_six_AcmsteeringV09_main_2lflm.obj
 0001:00159c60       sf_get_instance_specialization 000000018015ac60 f   c40_six_plus_six_AcmsteeringV09_main_2lflm.obj
 0001:00159c70       mdlStart_c40_six_plus_six_AcmsteeringV09_main_2lflm 000000018015ac70 f   c40_six_plus_six_AcmsteeringV09_main_2lflm.obj
 0001:00159ea0       init_dsm_address_info      000000018015aea0 f   c40_six_plus_six_AcmsteeringV09_main_2lflm.obj
 0001:00159eb0       chart_debug_initialization 000000018015aeb0 f   c40_six_plus_six_AcmsteeringV09_main_2lflm.obj
 0001:0015a660       init_script_number_translation 000000018015b660 f   c40_six_plus_six_AcmsteeringV09_main_2lflm.obj
 0001:0015a680       c40_sf_marshallOut         000000018015b680 f   c40_six_plus_six_AcmsteeringV09_main_2lflm.obj
 0001:0015a740       c40_sf_marshallIn          000000018015b740 f   c40_six_plus_six_AcmsteeringV09_main_2lflm.obj
 0001:0015a7e0       sf_opaque_initialize_c40_six_plus_six_AcmsteeringV09_main_2lflm 000000018015b7e0 f   c40_six_plus_six_AcmsteeringV09_main_2lflm.obj
 0001:0015a820       initialize_c40_six_plus_six_AcmsteeringV09_main_2lflm 000000018015b820 f   c40_six_plus_six_AcmsteeringV09_main_2lflm.obj
 0001:0015a870       sf_opaque_enable_c40_six_plus_six_AcmsteeringV09_main_2lflm 000000018015b870 f   c40_six_plus_six_AcmsteeringV09_main_2lflm.obj
 0001:0015a890       enable_c40_six_plus_six_AcmsteeringV09_main_2lflm 000000018015b890 f   c40_six_plus_six_AcmsteeringV09_main_2lflm.obj
 0001:0015a8c0       sf_opaque_disable_c40_six_plus_six_AcmsteeringV09_main_2lflm 000000018015b8c0 f   c40_six_plus_six_AcmsteeringV09_main_2lflm.obj
 0001:0015a8e0       disable_c40_six_plus_six_AcmsteeringV09_main_2lflm 000000018015b8e0 f   c40_six_plus_six_AcmsteeringV09_main_2lflm.obj
 0001:0015a910       sf_opaque_gateway_c40_six_plus_six_AcmsteeringV09_main_2lflm 000000018015b910 f   c40_six_plus_six_AcmsteeringV09_main_2lflm.obj
 0001:0015a930       sf_gateway_c40_six_plus_six_AcmsteeringV09_main_2lflm 000000018015b930 f   c40_six_plus_six_AcmsteeringV09_main_2lflm.obj
 0001:0015b060       c40_b_sf_marshallOut       000000018015c060 f   c40_six_plus_six_AcmsteeringV09_main_2lflm.obj
 0001:0015b110       c40_b_sf_marshallIn        000000018015c110 f   c40_six_plus_six_AcmsteeringV09_main_2lflm.obj
 0001:0015b1b0       c40_c_emlrt_marshallIn     000000018015c1b0 f   c40_six_plus_six_AcmsteeringV09_main_2lflm.obj
 0001:0015b240       sf_opaque_get_sim_state_c40_six_plus_six_AcmsteeringV09_main_2lflm 000000018015c240 f   c40_six_plus_six_AcmsteeringV09_main_2lflm.obj
 0001:0015b260       sf_opaque_set_sim_state_c40_six_plus_six_AcmsteeringV09_main_2lflm 000000018015c260 f   c40_six_plus_six_AcmsteeringV09_main_2lflm.obj
 0001:0015b290       sf_opaque_terminate_c40_six_plus_six_AcmsteeringV09_main_2lflm 000000018015c290 f   c40_six_plus_six_AcmsteeringV09_main_2lflm.obj
 0001:0015b330       finalize_c40_six_plus_six_AcmsteeringV09_main_2lflm 000000018015c330 f   c40_six_plus_six_AcmsteeringV09_main_2lflm.obj
 0001:0015b340       sf_opaque_init_subchart_simstructs 000000018015c340 f   c40_six_plus_six_AcmsteeringV09_main_2lflm.obj
 0001:0015b360       initSimStructsc40_six_plus_six_AcmsteeringV09_main_2lflm 000000018015c360 f   c40_six_plus_six_AcmsteeringV09_main_2lflm.obj
 0001:0015b370       mdlRTW_c40_six_plus_six_AcmsteeringV09_main_2lflm 000000018015c370 f   c40_six_plus_six_AcmsteeringV09_main_2lflm.obj
 0001:0015ba30       get_sim_state_c41_six_plus_six_AcmsteeringV09_main_2lflm 000000018015ca30 f   c41_six_plus_six_AcmsteeringV09_main_2lflm.obj
 0001:0015bbd0       sf_get_sim_state_info_c41_six_plus_six_AcmsteeringV09_main_2lflm 000000018015cbd0 f   c41_six_plus_six_AcmsteeringV09_main_2lflm.obj
 0001:0015bda0       set_sim_state_c41_six_plus_six_AcmsteeringV09_main_2lflm 000000018015cda0 f   c41_six_plus_six_AcmsteeringV09_main_2lflm.obj
 0001:0015be80       c41_update_debugger_state_c41_six_plus_six_AcmsteeringV09_main_2 000000018015ce80 f   c41_six_plus_six_AcmsteeringV09_main_2lflm.obj
 0001:0015be90       c41_emlrt_marshallIn       000000018015ce90 f   c41_six_plus_six_AcmsteeringV09_main_2lflm.obj
 0001:0015bf00       c41_b_emlrt_marshallIn     000000018015cf00 f   c41_six_plus_six_AcmsteeringV09_main_2lflm.obj
 0001:0015bf90       c41_e_emlrt_marshallIn     000000018015cf90 f   c41_six_plus_six_AcmsteeringV09_main_2lflm.obj
 0001:0015bff0       c41_f_emlrt_marshallIn     000000018015cff0 f   c41_six_plus_six_AcmsteeringV09_main_2lflm.obj
 0001:0015c0f0       mdlProcessParameters_c41_six_plus_six_AcmsteeringV09_main_2lflm 000000018015d0f0 f   c41_six_plus_six_AcmsteeringV09_main_2lflm.obj
 0001:0015c1d0       initialize_params_c41_six_plus_six_AcmsteeringV09_main_2lflm 000000018015d1d0 f   c41_six_plus_six_AcmsteeringV09_main_2lflm.obj
 0001:0015c1e0       mdlSetWorkWidths_c41_six_plus_six_AcmsteeringV09_main_2lflm 000000018015d1e0 f   c41_six_plus_six_AcmsteeringV09_main_2lflm.obj
 0001:0015c6b0       sf_get_instance_specialization 000000018015d6b0 f   c41_six_plus_six_AcmsteeringV09_main_2lflm.obj
 0001:0015c6c0       mdlStart_c41_six_plus_six_AcmsteeringV09_main_2lflm 000000018015d6c0 f   c41_six_plus_six_AcmsteeringV09_main_2lflm.obj
 0001:0015c8f0       init_dsm_address_info      000000018015d8f0 f   c41_six_plus_six_AcmsteeringV09_main_2lflm.obj
 0001:0015c900       chart_debug_initialization 000000018015d900 f   c41_six_plus_six_AcmsteeringV09_main_2lflm.obj
 0001:0015d0b0       init_script_number_translation 000000018015e0b0 f   c41_six_plus_six_AcmsteeringV09_main_2lflm.obj
 0001:0015d0d0       c41_sf_marshallOut         000000018015e0d0 f   c41_six_plus_six_AcmsteeringV09_main_2lflm.obj
 0001:0015d190       c41_sf_marshallIn          000000018015e190 f   c41_six_plus_six_AcmsteeringV09_main_2lflm.obj
 0001:0015d230       sf_opaque_initialize_c41_six_plus_six_AcmsteeringV09_main_2lflm 000000018015e230 f   c41_six_plus_six_AcmsteeringV09_main_2lflm.obj
 0001:0015d270       initialize_c41_six_plus_six_AcmsteeringV09_main_2lflm 000000018015e270 f   c41_six_plus_six_AcmsteeringV09_main_2lflm.obj
 0001:0015d2c0       sf_opaque_enable_c41_six_plus_six_AcmsteeringV09_main_2lflm 000000018015e2c0 f   c41_six_plus_six_AcmsteeringV09_main_2lflm.obj
 0001:0015d2e0       enable_c41_six_plus_six_AcmsteeringV09_main_2lflm 000000018015e2e0 f   c41_six_plus_six_AcmsteeringV09_main_2lflm.obj
 0001:0015d310       sf_opaque_disable_c41_six_plus_six_AcmsteeringV09_main_2lflm 000000018015e310 f   c41_six_plus_six_AcmsteeringV09_main_2lflm.obj
 0001:0015d330       disable_c41_six_plus_six_AcmsteeringV09_main_2lflm 000000018015e330 f   c41_six_plus_six_AcmsteeringV09_main_2lflm.obj
 0001:0015d360       sf_opaque_gateway_c41_six_plus_six_AcmsteeringV09_main_2lflm 000000018015e360 f   c41_six_plus_six_AcmsteeringV09_main_2lflm.obj
 0001:0015d380       sf_gateway_c41_six_plus_six_AcmsteeringV09_main_2lflm 000000018015e380 f   c41_six_plus_six_AcmsteeringV09_main_2lflm.obj
 0001:0015daa0       c41_b_sf_marshallOut       000000018015eaa0 f   c41_six_plus_six_AcmsteeringV09_main_2lflm.obj
 0001:0015db50       c41_b_sf_marshallIn        000000018015eb50 f   c41_six_plus_six_AcmsteeringV09_main_2lflm.obj
 0001:0015dbf0       c41_c_emlrt_marshallIn     000000018015ebf0 f   c41_six_plus_six_AcmsteeringV09_main_2lflm.obj
 0001:0015dc80       sf_opaque_get_sim_state_c41_six_plus_six_AcmsteeringV09_main_2lflm 000000018015ec80 f   c41_six_plus_six_AcmsteeringV09_main_2lflm.obj
 0001:0015dca0       sf_opaque_set_sim_state_c41_six_plus_six_AcmsteeringV09_main_2lflm 000000018015eca0 f   c41_six_plus_six_AcmsteeringV09_main_2lflm.obj
 0001:0015dcd0       sf_opaque_terminate_c41_six_plus_six_AcmsteeringV09_main_2lflm 000000018015ecd0 f   c41_six_plus_six_AcmsteeringV09_main_2lflm.obj
 0001:0015dd70       finalize_c41_six_plus_six_AcmsteeringV09_main_2lflm 000000018015ed70 f   c41_six_plus_six_AcmsteeringV09_main_2lflm.obj
 0001:0015dd80       sf_opaque_init_subchart_simstructs 000000018015ed80 f   c41_six_plus_six_AcmsteeringV09_main_2lflm.obj
 0001:0015dda0       initSimStructsc41_six_plus_six_AcmsteeringV09_main_2lflm 000000018015eda0 f   c41_six_plus_six_AcmsteeringV09_main_2lflm.obj
 0001:0015ddb0       mdlRTW_c41_six_plus_six_AcmsteeringV09_main_2lflm 000000018015edb0 f   c41_six_plus_six_AcmsteeringV09_main_2lflm.obj
 0001:0015e470       get_sim_state_c42_six_plus_six_AcmsteeringV09_main_2lflm 000000018015f470 f   c42_six_plus_six_AcmsteeringV09_main_2lflm.obj
 0001:0015e610       sf_get_sim_state_info_c42_six_plus_six_AcmsteeringV09_main_2lflm 000000018015f610 f   c42_six_plus_six_AcmsteeringV09_main_2lflm.obj
 0001:0015e7e0       set_sim_state_c42_six_plus_six_AcmsteeringV09_main_2lflm 000000018015f7e0 f   c42_six_plus_six_AcmsteeringV09_main_2lflm.obj
 0001:0015e8c0       c42_update_debugger_state_c42_six_plus_six_AcmsteeringV09_main_2 000000018015f8c0 f   c42_six_plus_six_AcmsteeringV09_main_2lflm.obj
 0001:0015e8d0       c42_emlrt_marshallIn       000000018015f8d0 f   c42_six_plus_six_AcmsteeringV09_main_2lflm.obj
 0001:0015e940       c42_b_emlrt_marshallIn     000000018015f940 f   c42_six_plus_six_AcmsteeringV09_main_2lflm.obj
 0001:0015e9d0       c42_e_emlrt_marshallIn     000000018015f9d0 f   c42_six_plus_six_AcmsteeringV09_main_2lflm.obj
 0001:0015ea30       c42_f_emlrt_marshallIn     000000018015fa30 f   c42_six_plus_six_AcmsteeringV09_main_2lflm.obj
 0001:0015eb30       mdlProcessParameters_c42_six_plus_six_AcmsteeringV09_main_2lflm 000000018015fb30 f   c42_six_plus_six_AcmsteeringV09_main_2lflm.obj
 0001:0015ec10       initialize_params_c42_six_plus_six_AcmsteeringV09_main_2lflm 000000018015fc10 f   c42_six_plus_six_AcmsteeringV09_main_2lflm.obj
 0001:0015ec20       mdlSetWorkWidths_c42_six_plus_six_AcmsteeringV09_main_2lflm 000000018015fc20 f   c42_six_plus_six_AcmsteeringV09_main_2lflm.obj
 0001:0015f0f0       sf_get_instance_specialization 00000001801600f0 f   c42_six_plus_six_AcmsteeringV09_main_2lflm.obj
 0001:0015f100       mdlStart_c42_six_plus_six_AcmsteeringV09_main_2lflm 0000000180160100 f   c42_six_plus_six_AcmsteeringV09_main_2lflm.obj
 0001:0015f330       init_dsm_address_info      0000000180160330 f   c42_six_plus_six_AcmsteeringV09_main_2lflm.obj
 0001:0015f340       chart_debug_initialization 0000000180160340 f   c42_six_plus_six_AcmsteeringV09_main_2lflm.obj
 0001:0015faf0       init_script_number_translation 0000000180160af0 f   c42_six_plus_six_AcmsteeringV09_main_2lflm.obj
 0001:0015fb10       c42_sf_marshallOut         0000000180160b10 f   c42_six_plus_six_AcmsteeringV09_main_2lflm.obj
 0001:0015fbd0       c42_sf_marshallIn          0000000180160bd0 f   c42_six_plus_six_AcmsteeringV09_main_2lflm.obj
 0001:0015fc70       sf_opaque_initialize_c42_six_plus_six_AcmsteeringV09_main_2lflm 0000000180160c70 f   c42_six_plus_six_AcmsteeringV09_main_2lflm.obj
 0001:0015fcb0       initialize_c42_six_plus_six_AcmsteeringV09_main_2lflm 0000000180160cb0 f   c42_six_plus_six_AcmsteeringV09_main_2lflm.obj
 0001:0015fd00       sf_opaque_enable_c42_six_plus_six_AcmsteeringV09_main_2lflm 0000000180160d00 f   c42_six_plus_six_AcmsteeringV09_main_2lflm.obj
 0001:0015fd20       enable_c42_six_plus_six_AcmsteeringV09_main_2lflm 0000000180160d20 f   c42_six_plus_six_AcmsteeringV09_main_2lflm.obj
 0001:0015fd50       sf_opaque_disable_c42_six_plus_six_AcmsteeringV09_main_2lflm 0000000180160d50 f   c42_six_plus_six_AcmsteeringV09_main_2lflm.obj
 0001:0015fd70       disable_c42_six_plus_six_AcmsteeringV09_main_2lflm 0000000180160d70 f   c42_six_plus_six_AcmsteeringV09_main_2lflm.obj
 0001:0015fda0       sf_opaque_gateway_c42_six_plus_six_AcmsteeringV09_main_2lflm 0000000180160da0 f   c42_six_plus_six_AcmsteeringV09_main_2lflm.obj
 0001:0015fdc0       sf_gateway_c42_six_plus_six_AcmsteeringV09_main_2lflm 0000000180160dc0 f   c42_six_plus_six_AcmsteeringV09_main_2lflm.obj
 0001:001604e0       c42_b_sf_marshallOut       00000001801614e0 f   c42_six_plus_six_AcmsteeringV09_main_2lflm.obj
 0001:00160590       c42_b_sf_marshallIn        0000000180161590 f   c42_six_plus_six_AcmsteeringV09_main_2lflm.obj
 0001:00160630       c42_c_emlrt_marshallIn     0000000180161630 f   c42_six_plus_six_AcmsteeringV09_main_2lflm.obj
 0001:001606c0       sf_opaque_get_sim_state_c42_six_plus_six_AcmsteeringV09_main_2lflm 00000001801616c0 f   c42_six_plus_six_AcmsteeringV09_main_2lflm.obj
 0001:001606e0       sf_opaque_set_sim_state_c42_six_plus_six_AcmsteeringV09_main_2lflm 00000001801616e0 f   c42_six_plus_six_AcmsteeringV09_main_2lflm.obj
 0001:00160710       sf_opaque_terminate_c42_six_plus_six_AcmsteeringV09_main_2lflm 0000000180161710 f   c42_six_plus_six_AcmsteeringV09_main_2lflm.obj
 0001:001607b0       finalize_c42_six_plus_six_AcmsteeringV09_main_2lflm 00000001801617b0 f   c42_six_plus_six_AcmsteeringV09_main_2lflm.obj
 0001:001607c0       sf_opaque_init_subchart_simstructs 00000001801617c0 f   c42_six_plus_six_AcmsteeringV09_main_2lflm.obj
 0001:001607e0       initSimStructsc42_six_plus_six_AcmsteeringV09_main_2lflm 00000001801617e0 f   c42_six_plus_six_AcmsteeringV09_main_2lflm.obj
 0001:001607f0       mdlRTW_c42_six_plus_six_AcmsteeringV09_main_2lflm 00000001801617f0 f   c42_six_plus_six_AcmsteeringV09_main_2lflm.obj
 0001:00160eb0       get_sim_state_c43_six_plus_six_AcmsteeringV09_main_2lflm 0000000180161eb0 f   c43_six_plus_six_AcmsteeringV09_main_2lflm.obj
 0001:00161050       sf_get_sim_state_info_c43_six_plus_six_AcmsteeringV09_main_2lflm 0000000180162050 f   c43_six_plus_six_AcmsteeringV09_main_2lflm.obj
 0001:00161220       set_sim_state_c43_six_plus_six_AcmsteeringV09_main_2lflm 0000000180162220 f   c43_six_plus_six_AcmsteeringV09_main_2lflm.obj
 0001:00161300       c43_update_debugger_state_c43_six_plus_six_AcmsteeringV09_main_2 0000000180162300 f   c43_six_plus_six_AcmsteeringV09_main_2lflm.obj
 0001:00161310       c43_emlrt_marshallIn       0000000180162310 f   c43_six_plus_six_AcmsteeringV09_main_2lflm.obj
 0001:00161380       c43_b_emlrt_marshallIn     0000000180162380 f   c43_six_plus_six_AcmsteeringV09_main_2lflm.obj
 0001:00161410       c43_e_emlrt_marshallIn     0000000180162410 f   c43_six_plus_six_AcmsteeringV09_main_2lflm.obj
 0001:00161470       c43_f_emlrt_marshallIn     0000000180162470 f   c43_six_plus_six_AcmsteeringV09_main_2lflm.obj
 0001:00161570       mdlProcessParameters_c43_six_plus_six_AcmsteeringV09_main_2lflm 0000000180162570 f   c43_six_plus_six_AcmsteeringV09_main_2lflm.obj
 0001:00161650       initialize_params_c43_six_plus_six_AcmsteeringV09_main_2lflm 0000000180162650 f   c43_six_plus_six_AcmsteeringV09_main_2lflm.obj
 0001:00161660       mdlSetWorkWidths_c43_six_plus_six_AcmsteeringV09_main_2lflm 0000000180162660 f   c43_six_plus_six_AcmsteeringV09_main_2lflm.obj
 0001:00161b30       sf_get_instance_specialization 0000000180162b30 f   c43_six_plus_six_AcmsteeringV09_main_2lflm.obj
 0001:00161b40       mdlStart_c43_six_plus_six_AcmsteeringV09_main_2lflm 0000000180162b40 f   c43_six_plus_six_AcmsteeringV09_main_2lflm.obj
 0001:00161d70       init_dsm_address_info      0000000180162d70 f   c43_six_plus_six_AcmsteeringV09_main_2lflm.obj
 0001:00161d80       chart_debug_initialization 0000000180162d80 f   c43_six_plus_six_AcmsteeringV09_main_2lflm.obj
 0001:00162530       init_script_number_translation 0000000180163530 f   c43_six_plus_six_AcmsteeringV09_main_2lflm.obj
 0001:00162550       c43_sf_marshallOut         0000000180163550 f   c43_six_plus_six_AcmsteeringV09_main_2lflm.obj
 0001:00162610       c43_sf_marshallIn          0000000180163610 f   c43_six_plus_six_AcmsteeringV09_main_2lflm.obj
 0001:001626b0       sf_opaque_initialize_c43_six_plus_six_AcmsteeringV09_main_2lflm 00000001801636b0 f   c43_six_plus_six_AcmsteeringV09_main_2lflm.obj
 0001:001626f0       initialize_c43_six_plus_six_AcmsteeringV09_main_2lflm 00000001801636f0 f   c43_six_plus_six_AcmsteeringV09_main_2lflm.obj
 0001:00162740       sf_opaque_enable_c43_six_plus_six_AcmsteeringV09_main_2lflm 0000000180163740 f   c43_six_plus_six_AcmsteeringV09_main_2lflm.obj
 0001:00162760       enable_c43_six_plus_six_AcmsteeringV09_main_2lflm 0000000180163760 f   c43_six_plus_six_AcmsteeringV09_main_2lflm.obj
 0001:00162790       sf_opaque_disable_c43_six_plus_six_AcmsteeringV09_main_2lflm 0000000180163790 f   c43_six_plus_six_AcmsteeringV09_main_2lflm.obj
 0001:001627b0       disable_c43_six_plus_six_AcmsteeringV09_main_2lflm 00000001801637b0 f   c43_six_plus_six_AcmsteeringV09_main_2lflm.obj
 0001:001627e0       sf_opaque_gateway_c43_six_plus_six_AcmsteeringV09_main_2lflm 00000001801637e0 f   c43_six_plus_six_AcmsteeringV09_main_2lflm.obj
 0001:00162800       sf_gateway_c43_six_plus_six_AcmsteeringV09_main_2lflm 0000000180163800 f   c43_six_plus_six_AcmsteeringV09_main_2lflm.obj
 0001:00162f20       c43_b_sf_marshallOut       0000000180163f20 f   c43_six_plus_six_AcmsteeringV09_main_2lflm.obj
 0001:00162fd0       c43_b_sf_marshallIn        0000000180163fd0 f   c43_six_plus_six_AcmsteeringV09_main_2lflm.obj
 0001:00163070       c43_c_emlrt_marshallIn     0000000180164070 f   c43_six_plus_six_AcmsteeringV09_main_2lflm.obj
 0001:00163100       sf_opaque_get_sim_state_c43_six_plus_six_AcmsteeringV09_main_2lflm 0000000180164100 f   c43_six_plus_six_AcmsteeringV09_main_2lflm.obj
 0001:00163120       sf_opaque_set_sim_state_c43_six_plus_six_AcmsteeringV09_main_2lflm 0000000180164120 f   c43_six_plus_six_AcmsteeringV09_main_2lflm.obj
 0001:00163150       sf_opaque_terminate_c43_six_plus_six_AcmsteeringV09_main_2lflm 0000000180164150 f   c43_six_plus_six_AcmsteeringV09_main_2lflm.obj
 0001:001631f0       finalize_c43_six_plus_six_AcmsteeringV09_main_2lflm 00000001801641f0 f   c43_six_plus_six_AcmsteeringV09_main_2lflm.obj
 0001:00163200       sf_opaque_init_subchart_simstructs 0000000180164200 f   c43_six_plus_six_AcmsteeringV09_main_2lflm.obj
 0001:00163220       initSimStructsc43_six_plus_six_AcmsteeringV09_main_2lflm 0000000180164220 f   c43_six_plus_six_AcmsteeringV09_main_2lflm.obj
 0001:00163230       mdlRTW_c43_six_plus_six_AcmsteeringV09_main_2lflm 0000000180164230 f   c43_six_plus_six_AcmsteeringV09_main_2lflm.obj
 0001:00163b80       get_sim_state_c44_six_plus_six_AcmsteeringV09_main_2lflm 0000000180164b80 f   c44_six_plus_six_AcmsteeringV09_main_2lflm.obj
 0001:00163d20       sf_get_sim_state_info_c44_six_plus_six_AcmsteeringV09_main_2lflm 0000000180164d20 f   c44_six_plus_six_AcmsteeringV09_main_2lflm.obj
 0001:00163ef0       set_sim_state_c44_six_plus_six_AcmsteeringV09_main_2lflm 0000000180164ef0 f   c44_six_plus_six_AcmsteeringV09_main_2lflm.obj
 0001:00163fc0       c44_update_debugger_state_c44_six_plus_six_AcmsteeringV09_main_2 0000000180164fc0 f   c44_six_plus_six_AcmsteeringV09_main_2lflm.obj
 0001:00163fd0       c44_emlrt_marshallIn       0000000180164fd0 f   c44_six_plus_six_AcmsteeringV09_main_2lflm.obj
 0001:00164030       c44_b_emlrt_marshallIn     0000000180165030 f   c44_six_plus_six_AcmsteeringV09_main_2lflm.obj
 0001:001640c0       c44_e_emlrt_marshallIn     00000001801650c0 f   c44_six_plus_six_AcmsteeringV09_main_2lflm.obj
 0001:00164120       c44_f_emlrt_marshallIn     0000000180165120 f   c44_six_plus_six_AcmsteeringV09_main_2lflm.obj
 0001:00164220       mdlProcessParameters_c44_six_plus_six_AcmsteeringV09_main_2lflm 0000000180165220 f   c44_six_plus_six_AcmsteeringV09_main_2lflm.obj
 0001:00164300       initialize_params_c44_six_plus_six_AcmsteeringV09_main_2lflm 0000000180165300 f   c44_six_plus_six_AcmsteeringV09_main_2lflm.obj
 0001:00164310       mdlSetWorkWidths_c44_six_plus_six_AcmsteeringV09_main_2lflm 0000000180165310 f   c44_six_plus_six_AcmsteeringV09_main_2lflm.obj
 0001:00164840       sf_get_instance_specialization 0000000180165840 f   c44_six_plus_six_AcmsteeringV09_main_2lflm.obj
 0001:00164850       mdlStart_c44_six_plus_six_AcmsteeringV09_main_2lflm 0000000180165850 f   c44_six_plus_six_AcmsteeringV09_main_2lflm.obj
 0001:00164a80       init_dsm_address_info      0000000180165a80 f   c44_six_plus_six_AcmsteeringV09_main_2lflm.obj
 0001:00164a90       chart_debug_initialization 0000000180165a90 f   c44_six_plus_six_AcmsteeringV09_main_2lflm.obj
 0001:001655c0       init_script_number_translation 00000001801665c0 f   c44_six_plus_six_AcmsteeringV09_main_2lflm.obj
 0001:001655e0       c44_sf_marshallOut         00000001801665e0 f   c44_six_plus_six_AcmsteeringV09_main_2lflm.obj
 0001:00165690       c44_sf_marshallIn          0000000180166690 f   c44_six_plus_six_AcmsteeringV09_main_2lflm.obj
 0001:00165730       c44_b_sf_marshallOut       0000000180166730 f   c44_six_plus_six_AcmsteeringV09_main_2lflm.obj
 0001:001657e0       c44_c_sf_marshallOut       00000001801667e0 f   c44_six_plus_six_AcmsteeringV09_main_2lflm.obj
 0001:001658a0       sf_opaque_initialize_c44_six_plus_six_AcmsteeringV09_main_2lflm 00000001801668a0 f   c44_six_plus_six_AcmsteeringV09_main_2lflm.obj
 0001:001658e0       initialize_c44_six_plus_six_AcmsteeringV09_main_2lflm 00000001801668e0 f   c44_six_plus_six_AcmsteeringV09_main_2lflm.obj
 0001:00165930       sf_opaque_enable_c44_six_plus_six_AcmsteeringV09_main_2lflm 0000000180166930 f   c44_six_plus_six_AcmsteeringV09_main_2lflm.obj
 0001:00165950       enable_c44_six_plus_six_AcmsteeringV09_main_2lflm 0000000180166950 f   c44_six_plus_six_AcmsteeringV09_main_2lflm.obj
 0001:00165980       sf_opaque_disable_c44_six_plus_six_AcmsteeringV09_main_2lflm 0000000180166980 f   c44_six_plus_six_AcmsteeringV09_main_2lflm.obj
 0001:001659a0       disable_c44_six_plus_six_AcmsteeringV09_main_2lflm 00000001801669a0 f   c44_six_plus_six_AcmsteeringV09_main_2lflm.obj
 0001:001659d0       sf_opaque_gateway_c44_six_plus_six_AcmsteeringV09_main_2lflm 00000001801669d0 f   c44_six_plus_six_AcmsteeringV09_main_2lflm.obj
 0001:001659f0       sf_gateway_c44_six_plus_six_AcmsteeringV09_main_2lflm 00000001801669f0 f   c44_six_plus_six_AcmsteeringV09_main_2lflm.obj
 0001:00166570       c44_d_sf_marshallOut       0000000180167570 f   c44_six_plus_six_AcmsteeringV09_main_2lflm.obj
 0001:00166620       c44_b_sf_marshallIn        0000000180167620 f   c44_six_plus_six_AcmsteeringV09_main_2lflm.obj
 0001:001666c0       c44_c_emlrt_marshallIn     00000001801676c0 f   c44_six_plus_six_AcmsteeringV09_main_2lflm.obj
 0001:00166750       sf_opaque_get_sim_state_c44_six_plus_six_AcmsteeringV09_main_2lflm 0000000180167750 f   c44_six_plus_six_AcmsteeringV09_main_2lflm.obj
 0001:00166770       sf_opaque_set_sim_state_c44_six_plus_six_AcmsteeringV09_main_2lflm 0000000180167770 f   c44_six_plus_six_AcmsteeringV09_main_2lflm.obj
 0001:001667a0       sf_opaque_terminate_c44_six_plus_six_AcmsteeringV09_main_2lflm 00000001801677a0 f   c44_six_plus_six_AcmsteeringV09_main_2lflm.obj
 0001:00166840       finalize_c44_six_plus_six_AcmsteeringV09_main_2lflm 0000000180167840 f   c44_six_plus_six_AcmsteeringV09_main_2lflm.obj
 0001:00166850       sf_opaque_init_subchart_simstructs 0000000180167850 f   c44_six_plus_six_AcmsteeringV09_main_2lflm.obj
 0001:00166870       initSimStructsc44_six_plus_six_AcmsteeringV09_main_2lflm 0000000180167870 f   c44_six_plus_six_AcmsteeringV09_main_2lflm.obj
 0001:00166880       mdlRTW_c44_six_plus_six_AcmsteeringV09_main_2lflm 0000000180167880 f   c44_six_plus_six_AcmsteeringV09_main_2lflm.obj
 0001:00166930       c45_info_helper            0000000180167930 f   c45_six_plus_six_AcmsteeringV09_main_2lflm.obj
 0001:0016a610       c45_emlrt_marshallOut      000000018016b610 f   c45_six_plus_six_AcmsteeringV09_main_2lflm.obj
 0001:0016a6a0       c45_b_emlrt_marshallOut    000000018016b6a0 f   c45_six_plus_six_AcmsteeringV09_main_2lflm.obj
 0001:0016dff0       get_sim_state_c45_six_plus_six_AcmsteeringV09_main_2lflm 000000018016eff0 f   c45_six_plus_six_AcmsteeringV09_main_2lflm.obj
 0001:0016e6f0       sf_get_sim_state_info_c45_six_plus_six_AcmsteeringV09_main_2lflm 000000018016f6f0 f   c45_six_plus_six_AcmsteeringV09_main_2lflm.obj
 0001:0016e8c0       set_sim_state_c45_six_plus_six_AcmsteeringV09_main_2lflm 000000018016f8c0 f   c45_six_plus_six_AcmsteeringV09_main_2lflm.obj
 0001:0016ec00       c45_update_debugger_state_c45_six_plus_six_AcmsteeringV09_main_2 000000018016fc00 f   c45_six_plus_six_AcmsteeringV09_main_2lflm.obj
 0001:0016ec10       c45_emlrt_marshallIn       000000018016fc10 f   c45_six_plus_six_AcmsteeringV09_main_2lflm.obj
 0001:0016ec80       c45_b_emlrt_marshallIn     000000018016fc80 f   c45_six_plus_six_AcmsteeringV09_main_2lflm.obj
 0001:0016ed10       c45_e_emlrt_marshallIn     000000018016fd10 f   c45_six_plus_six_AcmsteeringV09_main_2lflm.obj
 0001:0016ed70       c45_f_emlrt_marshallIn     000000018016fd70 f   c45_six_plus_six_AcmsteeringV09_main_2lflm.obj
 0001:0016ee70       mdlProcessParameters_c45_six_plus_six_AcmsteeringV09_main_2lflm 000000018016fe70 f   c45_six_plus_six_AcmsteeringV09_main_2lflm.obj
 0001:0016ef50       initialize_params_c45_six_plus_six_AcmsteeringV09_main_2lflm 000000018016ff50 f   c45_six_plus_six_AcmsteeringV09_main_2lflm.obj
 0001:0016ef60       mdlSetWorkWidths_c45_six_plus_six_AcmsteeringV09_main_2lflm 000000018016ff60 f   c45_six_plus_six_AcmsteeringV09_main_2lflm.obj
 0001:0016fa60       sf_get_instance_specialization 0000000180170a60 f   c45_six_plus_six_AcmsteeringV09_main_2lflm.obj
 0001:0016fa70       mdlStart_c45_six_plus_six_AcmsteeringV09_main_2lflm 0000000180170a70 f   c45_six_plus_six_AcmsteeringV09_main_2lflm.obj
 0001:0016fca0       init_dsm_address_info      0000000180170ca0 f   c45_six_plus_six_AcmsteeringV09_main_2lflm.obj
 0001:0016fcb0       chart_debug_initialization 0000000180170cb0 f   c45_six_plus_six_AcmsteeringV09_main_2lflm.obj
 0001:00173d70       init_script_number_translation 0000000180174d70 f   c45_six_plus_six_AcmsteeringV09_main_2lflm.obj
 0001:00173d90       c45_sf_marshallOut         0000000180174d90 f   c45_six_plus_six_AcmsteeringV09_main_2lflm.obj
 0001:00173e50       c45_sf_marshallIn          0000000180174e50 f   c45_six_plus_six_AcmsteeringV09_main_2lflm.obj
 0001:00173ef0       c45_b_sf_marshallOut       0000000180174ef0 f   c45_six_plus_six_AcmsteeringV09_main_2lflm.obj
 0001:00173fa0       c45_c_sf_marshallOut       0000000180174fa0 f   c45_six_plus_six_AcmsteeringV09_main_2lflm.obj
 0001:00174050       sf_opaque_initialize_c45_six_plus_six_AcmsteeringV09_main_2lflm 0000000180175050 f   c45_six_plus_six_AcmsteeringV09_main_2lflm.obj
 0001:00174090       initialize_c45_six_plus_six_AcmsteeringV09_main_2lflm 0000000180175090 f   c45_six_plus_six_AcmsteeringV09_main_2lflm.obj
 0001:001740e0       sf_opaque_enable_c45_six_plus_six_AcmsteeringV09_main_2lflm 00000001801750e0 f   c45_six_plus_six_AcmsteeringV09_main_2lflm.obj
 0001:00174100       enable_c45_six_plus_six_AcmsteeringV09_main_2lflm 0000000180175100 f   c45_six_plus_six_AcmsteeringV09_main_2lflm.obj
 0001:00174130       sf_opaque_disable_c45_six_plus_six_AcmsteeringV09_main_2lflm 0000000180175130 f   c45_six_plus_six_AcmsteeringV09_main_2lflm.obj
 0001:00174150       disable_c45_six_plus_six_AcmsteeringV09_main_2lflm 0000000180175150 f   c45_six_plus_six_AcmsteeringV09_main_2lflm.obj
 0001:00174180       sf_opaque_gateway_c45_six_plus_six_AcmsteeringV09_main_2lflm 0000000180175180 f   c45_six_plus_six_AcmsteeringV09_main_2lflm.obj
 0001:001741a0       sf_gateway_c45_six_plus_six_AcmsteeringV09_main_2lflm 00000001801751a0 f   c45_six_plus_six_AcmsteeringV09_main_2lflm.obj
 0001:00175440       c45_chartstep_c45_six_plus_six_AcmsteeringV09_main_2lflm 0000000180176440 f   c45_six_plus_six_AcmsteeringV09_main_2lflm.obj
 0001:0017a400       c45_b_sf_marshallIn        000000018017b400 f   c45_six_plus_six_AcmsteeringV09_main_2lflm.obj
 0001:0017a4a0       c45_c_emlrt_marshallIn     000000018017b4a0 f   c45_six_plus_six_AcmsteeringV09_main_2lflm.obj
 0001:0017a530       c45_eml_scalar_eg          000000018017b530 f   c45_six_plus_six_AcmsteeringV09_main_2lflm.obj
 0001:0017a540       c45_b_eml_scalar_eg        000000018017b540 f   c45_six_plus_six_AcmsteeringV09_main_2lflm.obj
 0001:0017a550       sf_opaque_get_sim_state_c45_six_plus_six_AcmsteeringV09_main_2lflm 000000018017b550 f   c45_six_plus_six_AcmsteeringV09_main_2lflm.obj
 0001:0017a570       sf_opaque_set_sim_state_c45_six_plus_six_AcmsteeringV09_main_2lflm 000000018017b570 f   c45_six_plus_six_AcmsteeringV09_main_2lflm.obj
 0001:0017a5a0       sf_opaque_terminate_c45_six_plus_six_AcmsteeringV09_main_2lflm 000000018017b5a0 f   c45_six_plus_six_AcmsteeringV09_main_2lflm.obj
 0001:0017a640       finalize_c45_six_plus_six_AcmsteeringV09_main_2lflm 000000018017b640 f   c45_six_plus_six_AcmsteeringV09_main_2lflm.obj
 0001:0017a650       sf_opaque_init_subchart_simstructs 000000018017b650 f   c45_six_plus_six_AcmsteeringV09_main_2lflm.obj
 0001:0017a670       initSimStructsc45_six_plus_six_AcmsteeringV09_main_2lflm 000000018017b670 f   c45_six_plus_six_AcmsteeringV09_main_2lflm.obj
 0001:0017a680       mdlRTW_c45_six_plus_six_AcmsteeringV09_main_2lflm 000000018017b680 f   c45_six_plus_six_AcmsteeringV09_main_2lflm.obj
 0001:0017ad40       get_sim_state_c46_six_plus_six_AcmsteeringV09_main_2lflm 000000018017bd40 f   c46_six_plus_six_AcmsteeringV09_main_2lflm.obj
 0001:0017aee0       sf_get_sim_state_info_c46_six_plus_six_AcmsteeringV09_main_2lflm 000000018017bee0 f   c46_six_plus_six_AcmsteeringV09_main_2lflm.obj
 0001:0017b0b0       set_sim_state_c46_six_plus_six_AcmsteeringV09_main_2lflm 000000018017c0b0 f   c46_six_plus_six_AcmsteeringV09_main_2lflm.obj
 0001:0017b190       c46_update_debugger_state_c46_six_plus_six_AcmsteeringV09_main_2 000000018017c190 f   c46_six_plus_six_AcmsteeringV09_main_2lflm.obj
 0001:0017b1a0       c46_emlrt_marshallIn       000000018017c1a0 f   c46_six_plus_six_AcmsteeringV09_main_2lflm.obj
 0001:0017b210       c46_b_emlrt_marshallIn     000000018017c210 f   c46_six_plus_six_AcmsteeringV09_main_2lflm.obj
 0001:0017b2a0       c46_e_emlrt_marshallIn     000000018017c2a0 f   c46_six_plus_six_AcmsteeringV09_main_2lflm.obj
 0001:0017b300       c46_f_emlrt_marshallIn     000000018017c300 f   c46_six_plus_six_AcmsteeringV09_main_2lflm.obj
 0001:0017b400       mdlProcessParameters_c46_six_plus_six_AcmsteeringV09_main_2lflm 000000018017c400 f   c46_six_plus_six_AcmsteeringV09_main_2lflm.obj
 0001:0017b4e0       initialize_params_c46_six_plus_six_AcmsteeringV09_main_2lflm 000000018017c4e0 f   c46_six_plus_six_AcmsteeringV09_main_2lflm.obj
 0001:0017b4f0       mdlSetWorkWidths_c46_six_plus_six_AcmsteeringV09_main_2lflm 000000018017c4f0 f   c46_six_plus_six_AcmsteeringV09_main_2lflm.obj
 0001:0017b9c0       sf_get_instance_specialization 000000018017c9c0 f   c46_six_plus_six_AcmsteeringV09_main_2lflm.obj
 0001:0017b9d0       mdlStart_c46_six_plus_six_AcmsteeringV09_main_2lflm 000000018017c9d0 f   c46_six_plus_six_AcmsteeringV09_main_2lflm.obj
 0001:0017bc00       init_dsm_address_info      000000018017cc00 f   c46_six_plus_six_AcmsteeringV09_main_2lflm.obj
 0001:0017bc10       chart_debug_initialization 000000018017cc10 f   c46_six_plus_six_AcmsteeringV09_main_2lflm.obj
 0001:0017c3c0       init_script_number_translation 000000018017d3c0 f   c46_six_plus_six_AcmsteeringV09_main_2lflm.obj
 0001:0017c3e0       c46_sf_marshallOut         000000018017d3e0 f   c46_six_plus_six_AcmsteeringV09_main_2lflm.obj
 0001:0017c4a0       c46_sf_marshallIn          000000018017d4a0 f   c46_six_plus_six_AcmsteeringV09_main_2lflm.obj
 0001:0017c540       sf_opaque_initialize_c46_six_plus_six_AcmsteeringV09_main_2lflm 000000018017d540 f   c46_six_plus_six_AcmsteeringV09_main_2lflm.obj
 0001:0017c580       initialize_c46_six_plus_six_AcmsteeringV09_main_2lflm 000000018017d580 f   c46_six_plus_six_AcmsteeringV09_main_2lflm.obj
 0001:0017c5d0       sf_opaque_enable_c46_six_plus_six_AcmsteeringV09_main_2lflm 000000018017d5d0 f   c46_six_plus_six_AcmsteeringV09_main_2lflm.obj
 0001:0017c5f0       enable_c46_six_plus_six_AcmsteeringV09_main_2lflm 000000018017d5f0 f   c46_six_plus_six_AcmsteeringV09_main_2lflm.obj
 0001:0017c620       sf_opaque_disable_c46_six_plus_six_AcmsteeringV09_main_2lflm 000000018017d620 f   c46_six_plus_six_AcmsteeringV09_main_2lflm.obj
 0001:0017c640       disable_c46_six_plus_six_AcmsteeringV09_main_2lflm 000000018017d640 f   c46_six_plus_six_AcmsteeringV09_main_2lflm.obj
 0001:0017c670       sf_opaque_gateway_c46_six_plus_six_AcmsteeringV09_main_2lflm 000000018017d670 f   c46_six_plus_six_AcmsteeringV09_main_2lflm.obj
 0001:0017c690       sf_gateway_c46_six_plus_six_AcmsteeringV09_main_2lflm 000000018017d690 f   c46_six_plus_six_AcmsteeringV09_main_2lflm.obj
 0001:0017cdb0       c46_b_sf_marshallOut       000000018017ddb0 f   c46_six_plus_six_AcmsteeringV09_main_2lflm.obj
 0001:0017ce60       c46_b_sf_marshallIn        000000018017de60 f   c46_six_plus_six_AcmsteeringV09_main_2lflm.obj
 0001:0017cf00       c46_c_emlrt_marshallIn     000000018017df00 f   c46_six_plus_six_AcmsteeringV09_main_2lflm.obj
 0001:0017cf90       sf_opaque_get_sim_state_c46_six_plus_six_AcmsteeringV09_main_2lflm 000000018017df90 f   c46_six_plus_six_AcmsteeringV09_main_2lflm.obj
 0001:0017cfb0       sf_opaque_set_sim_state_c46_six_plus_six_AcmsteeringV09_main_2lflm 000000018017dfb0 f   c46_six_plus_six_AcmsteeringV09_main_2lflm.obj
 0001:0017cfe0       sf_opaque_terminate_c46_six_plus_six_AcmsteeringV09_main_2lflm 000000018017dfe0 f   c46_six_plus_six_AcmsteeringV09_main_2lflm.obj
 0001:0017d080       finalize_c46_six_plus_six_AcmsteeringV09_main_2lflm 000000018017e080 f   c46_six_plus_six_AcmsteeringV09_main_2lflm.obj
 0001:0017d090       sf_opaque_init_subchart_simstructs 000000018017e090 f   c46_six_plus_six_AcmsteeringV09_main_2lflm.obj
 0001:0017d0b0       initSimStructsc46_six_plus_six_AcmsteeringV09_main_2lflm 000000018017e0b0 f   c46_six_plus_six_AcmsteeringV09_main_2lflm.obj
 0001:0017d0c0       mdlRTW_c46_six_plus_six_AcmsteeringV09_main_2lflm 000000018017e0c0 f   c46_six_plus_six_AcmsteeringV09_main_2lflm.obj
 0001:0017d780       get_sim_state_c47_six_plus_six_AcmsteeringV09_main_2lflm 000000018017e780 f   c47_six_plus_six_AcmsteeringV09_main_2lflm.obj
 0001:0017d920       sf_get_sim_state_info_c47_six_plus_six_AcmsteeringV09_main_2lflm 000000018017e920 f   c47_six_plus_six_AcmsteeringV09_main_2lflm.obj
 0001:0017daf0       set_sim_state_c47_six_plus_six_AcmsteeringV09_main_2lflm 000000018017eaf0 f   c47_six_plus_six_AcmsteeringV09_main_2lflm.obj
 0001:0017dbd0       c47_update_debugger_state_c47_six_plus_six_AcmsteeringV09_main_2 000000018017ebd0 f   c47_six_plus_six_AcmsteeringV09_main_2lflm.obj
 0001:0017dbe0       c47_emlrt_marshallIn       000000018017ebe0 f   c47_six_plus_six_AcmsteeringV09_main_2lflm.obj
 0001:0017dc50       c47_b_emlrt_marshallIn     000000018017ec50 f   c47_six_plus_six_AcmsteeringV09_main_2lflm.obj
 0001:0017dce0       c47_e_emlrt_marshallIn     000000018017ece0 f   c47_six_plus_six_AcmsteeringV09_main_2lflm.obj
 0001:0017dd40       c47_f_emlrt_marshallIn     000000018017ed40 f   c47_six_plus_six_AcmsteeringV09_main_2lflm.obj
 0001:0017de40       mdlProcessParameters_c47_six_plus_six_AcmsteeringV09_main_2lflm 000000018017ee40 f   c47_six_plus_six_AcmsteeringV09_main_2lflm.obj
 0001:0017df20       initialize_params_c47_six_plus_six_AcmsteeringV09_main_2lflm 000000018017ef20 f   c47_six_plus_six_AcmsteeringV09_main_2lflm.obj
 0001:0017df30       mdlSetWorkWidths_c47_six_plus_six_AcmsteeringV09_main_2lflm 000000018017ef30 f   c47_six_plus_six_AcmsteeringV09_main_2lflm.obj
 0001:0017e400       sf_get_instance_specialization 000000018017f400 f   c47_six_plus_six_AcmsteeringV09_main_2lflm.obj
 0001:0017e410       mdlStart_c47_six_plus_six_AcmsteeringV09_main_2lflm 000000018017f410 f   c47_six_plus_six_AcmsteeringV09_main_2lflm.obj
 0001:0017e640       init_dsm_address_info      000000018017f640 f   c47_six_plus_six_AcmsteeringV09_main_2lflm.obj
 0001:0017e650       chart_debug_initialization 000000018017f650 f   c47_six_plus_six_AcmsteeringV09_main_2lflm.obj
 0001:0017ee00       init_script_number_translation 000000018017fe00 f   c47_six_plus_six_AcmsteeringV09_main_2lflm.obj
 0001:0017ee20       c47_sf_marshallOut         000000018017fe20 f   c47_six_plus_six_AcmsteeringV09_main_2lflm.obj
 0001:0017eee0       c47_sf_marshallIn          000000018017fee0 f   c47_six_plus_six_AcmsteeringV09_main_2lflm.obj
 0001:0017ef80       sf_opaque_initialize_c47_six_plus_six_AcmsteeringV09_main_2lflm 000000018017ff80 f   c47_six_plus_six_AcmsteeringV09_main_2lflm.obj
 0001:0017efc0       initialize_c47_six_plus_six_AcmsteeringV09_main_2lflm 000000018017ffc0 f   c47_six_plus_six_AcmsteeringV09_main_2lflm.obj
 0001:0017f010       sf_opaque_enable_c47_six_plus_six_AcmsteeringV09_main_2lflm 0000000180180010 f   c47_six_plus_six_AcmsteeringV09_main_2lflm.obj
 0001:0017f030       enable_c47_six_plus_six_AcmsteeringV09_main_2lflm 0000000180180030 f   c47_six_plus_six_AcmsteeringV09_main_2lflm.obj
 0001:0017f060       sf_opaque_disable_c47_six_plus_six_AcmsteeringV09_main_2lflm 0000000180180060 f   c47_six_plus_six_AcmsteeringV09_main_2lflm.obj
 0001:0017f080       disable_c47_six_plus_six_AcmsteeringV09_main_2lflm 0000000180180080 f   c47_six_plus_six_AcmsteeringV09_main_2lflm.obj
 0001:0017f0b0       sf_opaque_gateway_c47_six_plus_six_AcmsteeringV09_main_2lflm 00000001801800b0 f   c47_six_plus_six_AcmsteeringV09_main_2lflm.obj
 0001:0017f0d0       sf_gateway_c47_six_plus_six_AcmsteeringV09_main_2lflm 00000001801800d0 f   c47_six_plus_six_AcmsteeringV09_main_2lflm.obj
 0001:0017f7f0       c47_b_sf_marshallOut       00000001801807f0 f   c47_six_plus_six_AcmsteeringV09_main_2lflm.obj
 0001:0017f8a0       c47_b_sf_marshallIn        00000001801808a0 f   c47_six_plus_six_AcmsteeringV09_main_2lflm.obj
 0001:0017f940       c47_c_emlrt_marshallIn     0000000180180940 f   c47_six_plus_six_AcmsteeringV09_main_2lflm.obj
 0001:0017f9d0       sf_opaque_get_sim_state_c47_six_plus_six_AcmsteeringV09_main_2lflm 00000001801809d0 f   c47_six_plus_six_AcmsteeringV09_main_2lflm.obj
 0001:0017f9f0       sf_opaque_set_sim_state_c47_six_plus_six_AcmsteeringV09_main_2lflm 00000001801809f0 f   c47_six_plus_six_AcmsteeringV09_main_2lflm.obj
 0001:0017fa20       sf_opaque_terminate_c47_six_plus_six_AcmsteeringV09_main_2lflm 0000000180180a20 f   c47_six_plus_six_AcmsteeringV09_main_2lflm.obj
 0001:0017fac0       finalize_c47_six_plus_six_AcmsteeringV09_main_2lflm 0000000180180ac0 f   c47_six_plus_six_AcmsteeringV09_main_2lflm.obj
 0001:0017fad0       sf_opaque_init_subchart_simstructs 0000000180180ad0 f   c47_six_plus_six_AcmsteeringV09_main_2lflm.obj
 0001:0017faf0       initSimStructsc47_six_plus_six_AcmsteeringV09_main_2lflm 0000000180180af0 f   c47_six_plus_six_AcmsteeringV09_main_2lflm.obj
 0001:0017fb00       mdlRTW_c47_six_plus_six_AcmsteeringV09_main_2lflm 0000000180180b00 f   c47_six_plus_six_AcmsteeringV09_main_2lflm.obj
 0001:001801c0       get_sim_state_c48_six_plus_six_AcmsteeringV09_main_2lflm 00000001801811c0 f   c48_six_plus_six_AcmsteeringV09_main_2lflm.obj
 0001:00180360       sf_get_sim_state_info_c48_six_plus_six_AcmsteeringV09_main_2lflm 0000000180181360 f   c48_six_plus_six_AcmsteeringV09_main_2lflm.obj
 0001:00180530       set_sim_state_c48_six_plus_six_AcmsteeringV09_main_2lflm 0000000180181530 f   c48_six_plus_six_AcmsteeringV09_main_2lflm.obj
 0001:00180610       c48_update_debugger_state_c48_six_plus_six_AcmsteeringV09_main_2 0000000180181610 f   c48_six_plus_six_AcmsteeringV09_main_2lflm.obj
 0001:00180620       c48_emlrt_marshallIn       0000000180181620 f   c48_six_plus_six_AcmsteeringV09_main_2lflm.obj
 0001:00180690       c48_b_emlrt_marshallIn     0000000180181690 f   c48_six_plus_six_AcmsteeringV09_main_2lflm.obj
 0001:00180720       c48_e_emlrt_marshallIn     0000000180181720 f   c48_six_plus_six_AcmsteeringV09_main_2lflm.obj
 0001:00180780       c48_f_emlrt_marshallIn     0000000180181780 f   c48_six_plus_six_AcmsteeringV09_main_2lflm.obj
 0001:00180880       mdlProcessParameters_c48_six_plus_six_AcmsteeringV09_main_2lflm 0000000180181880 f   c48_six_plus_six_AcmsteeringV09_main_2lflm.obj
 0001:00180960       initialize_params_c48_six_plus_six_AcmsteeringV09_main_2lflm 0000000180181960 f   c48_six_plus_six_AcmsteeringV09_main_2lflm.obj
 0001:00180970       mdlSetWorkWidths_c48_six_plus_six_AcmsteeringV09_main_2lflm 0000000180181970 f   c48_six_plus_six_AcmsteeringV09_main_2lflm.obj
 0001:00180e40       sf_get_instance_specialization 0000000180181e40 f   c48_six_plus_six_AcmsteeringV09_main_2lflm.obj
 0001:00180e50       mdlStart_c48_six_plus_six_AcmsteeringV09_main_2lflm 0000000180181e50 f   c48_six_plus_six_AcmsteeringV09_main_2lflm.obj
 0001:00181080       init_dsm_address_info      0000000180182080 f   c48_six_plus_six_AcmsteeringV09_main_2lflm.obj
 0001:00181090       chart_debug_initialization 0000000180182090 f   c48_six_plus_six_AcmsteeringV09_main_2lflm.obj
 0001:00181840       init_script_number_translation 0000000180182840 f   c48_six_plus_six_AcmsteeringV09_main_2lflm.obj
 0001:00181860       c48_sf_marshallOut         0000000180182860 f   c48_six_plus_six_AcmsteeringV09_main_2lflm.obj
 0001:00181920       c48_sf_marshallIn          0000000180182920 f   c48_six_plus_six_AcmsteeringV09_main_2lflm.obj
 0001:001819c0       sf_opaque_initialize_c48_six_plus_six_AcmsteeringV09_main_2lflm 00000001801829c0 f   c48_six_plus_six_AcmsteeringV09_main_2lflm.obj
 0001:00181a00       initialize_c48_six_plus_six_AcmsteeringV09_main_2lflm 0000000180182a00 f   c48_six_plus_six_AcmsteeringV09_main_2lflm.obj
 0001:00181a50       sf_opaque_enable_c48_six_plus_six_AcmsteeringV09_main_2lflm 0000000180182a50 f   c48_six_plus_six_AcmsteeringV09_main_2lflm.obj
 0001:00181a70       enable_c48_six_plus_six_AcmsteeringV09_main_2lflm 0000000180182a70 f   c48_six_plus_six_AcmsteeringV09_main_2lflm.obj
 0001:00181aa0       sf_opaque_disable_c48_six_plus_six_AcmsteeringV09_main_2lflm 0000000180182aa0 f   c48_six_plus_six_AcmsteeringV09_main_2lflm.obj
 0001:00181ac0       disable_c48_six_plus_six_AcmsteeringV09_main_2lflm 0000000180182ac0 f   c48_six_plus_six_AcmsteeringV09_main_2lflm.obj
 0001:00181af0       sf_opaque_gateway_c48_six_plus_six_AcmsteeringV09_main_2lflm 0000000180182af0 f   c48_six_plus_six_AcmsteeringV09_main_2lflm.obj
 0001:00181b10       sf_gateway_c48_six_plus_six_AcmsteeringV09_main_2lflm 0000000180182b10 f   c48_six_plus_six_AcmsteeringV09_main_2lflm.obj
 0001:00182240       c48_b_sf_marshallOut       0000000180183240 f   c48_six_plus_six_AcmsteeringV09_main_2lflm.obj
 0001:001822f0       c48_b_sf_marshallIn        00000001801832f0 f   c48_six_plus_six_AcmsteeringV09_main_2lflm.obj
 0001:00182390       c48_c_emlrt_marshallIn     0000000180183390 f   c48_six_plus_six_AcmsteeringV09_main_2lflm.obj
 0001:00182420       sf_opaque_get_sim_state_c48_six_plus_six_AcmsteeringV09_main_2lflm 0000000180183420 f   c48_six_plus_six_AcmsteeringV09_main_2lflm.obj
 0001:00182440       sf_opaque_set_sim_state_c48_six_plus_six_AcmsteeringV09_main_2lflm 0000000180183440 f   c48_six_plus_six_AcmsteeringV09_main_2lflm.obj
 0001:00182470       sf_opaque_terminate_c48_six_plus_six_AcmsteeringV09_main_2lflm 0000000180183470 f   c48_six_plus_six_AcmsteeringV09_main_2lflm.obj
 0001:00182510       finalize_c48_six_plus_six_AcmsteeringV09_main_2lflm 0000000180183510 f   c48_six_plus_six_AcmsteeringV09_main_2lflm.obj
 0001:00182520       sf_opaque_init_subchart_simstructs 0000000180183520 f   c48_six_plus_six_AcmsteeringV09_main_2lflm.obj
 0001:00182540       initSimStructsc48_six_plus_six_AcmsteeringV09_main_2lflm 0000000180183540 f   c48_six_plus_six_AcmsteeringV09_main_2lflm.obj
 0001:00182550       mdlRTW_c48_six_plus_six_AcmsteeringV09_main_2lflm 0000000180183550 f   c48_six_plus_six_AcmsteeringV09_main_2lflm.obj
 0001:00182600       c49_info_helper            0000000180183600 f   c49_six_plus_six_AcmsteeringV09_main_2lflm.obj
 0001:00185b90       c49_emlrt_marshallOut      0000000180186b90 f   c49_six_plus_six_AcmsteeringV09_main_2lflm.obj
 0001:00185c20       c49_b_emlrt_marshallOut    0000000180186c20 f   c49_six_plus_six_AcmsteeringV09_main_2lflm.obj
 0001:00188280       get_sim_state_c49_six_plus_six_AcmsteeringV09_main_2lflm 0000000180189280 f   c49_six_plus_six_AcmsteeringV09_main_2lflm.obj
 0001:00188a50       sf_get_sim_state_info_c49_six_plus_six_AcmsteeringV09_main_2lflm 0000000180189a50 f   c49_six_plus_six_AcmsteeringV09_main_2lflm.obj
 0001:00188c20       set_sim_state_c49_six_plus_six_AcmsteeringV09_main_2lflm 0000000180189c20 f   c49_six_plus_six_AcmsteeringV09_main_2lflm.obj
 0001:00188fc0       c49_update_debugger_state_c49_six_plus_six_AcmsteeringV09_main_2 0000000180189fc0 f   c49_six_plus_six_AcmsteeringV09_main_2lflm.obj
 0001:00188fd0       c49_emlrt_marshallIn       0000000180189fd0 f   c49_six_plus_six_AcmsteeringV09_main_2lflm.obj
 0001:00189040       c49_b_emlrt_marshallIn     000000018018a040 f   c49_six_plus_six_AcmsteeringV09_main_2lflm.obj
 0001:001890d0       c49_c_emlrt_marshallIn     000000018018a0d0 f   c49_six_plus_six_AcmsteeringV09_main_2lflm.obj
 0001:00189140       c49_d_emlrt_marshallIn     000000018018a140 f   c49_six_plus_six_AcmsteeringV09_main_2lflm.obj
 0001:001891d0       c49_f_emlrt_marshallIn     000000018018a1d0 f   c49_six_plus_six_AcmsteeringV09_main_2lflm.obj
 0001:00189230       c49_g_emlrt_marshallIn     000000018018a230 f   c49_six_plus_six_AcmsteeringV09_main_2lflm.obj
 0001:00189330       mdlProcessParameters_c49_six_plus_six_AcmsteeringV09_main_2lflm 000000018018a330 f   c49_six_plus_six_AcmsteeringV09_main_2lflm.obj
 0001:00189410       initialize_params_c49_six_plus_six_AcmsteeringV09_main_2lflm 000000018018a410 f   c49_six_plus_six_AcmsteeringV09_main_2lflm.obj
 0001:00189420       mdlSetWorkWidths_c49_six_plus_six_AcmsteeringV09_main_2lflm 000000018018a420 f   c49_six_plus_six_AcmsteeringV09_main_2lflm.obj
 0001:00189c20       sf_get_instance_specialization 000000018018ac20 f   c49_six_plus_six_AcmsteeringV09_main_2lflm.obj
 0001:00189c30       mdlStart_c49_six_plus_six_AcmsteeringV09_main_2lflm 000000018018ac30 f   c49_six_plus_six_AcmsteeringV09_main_2lflm.obj
 0001:00189e60       init_dsm_address_info      000000018018ae60 f   c49_six_plus_six_AcmsteeringV09_main_2lflm.obj
 0001:00189e70       chart_debug_initialization 000000018018ae70 f   c49_six_plus_six_AcmsteeringV09_main_2lflm.obj
 0001:0018c8a0       init_script_number_translation 000000018018d8a0 f   c49_six_plus_six_AcmsteeringV09_main_2lflm.obj
 0001:0018c8c0       c49_sf_marshallOut         000000018018d8c0 f   c49_six_plus_six_AcmsteeringV09_main_2lflm.obj
 0001:0018c970       c49_sf_marshallIn          000000018018d970 f   c49_six_plus_six_AcmsteeringV09_main_2lflm.obj
 0001:0018ca10       c49_b_sf_marshallOut       000000018018da10 f   c49_six_plus_six_AcmsteeringV09_main_2lflm.obj
 0001:0018cad0       c49_b_sf_marshallIn        000000018018dad0 f   c49_six_plus_six_AcmsteeringV09_main_2lflm.obj
 0001:0018cb70       c49_c_sf_marshallOut       000000018018db70 f   c49_six_plus_six_AcmsteeringV09_main_2lflm.obj
 0001:0018cc20       sf_opaque_initialize_c49_six_plus_six_AcmsteeringV09_main_2lflm 000000018018dc20 f   c49_six_plus_six_AcmsteeringV09_main_2lflm.obj
 0001:0018cc60       initialize_c49_six_plus_six_AcmsteeringV09_main_2lflm 000000018018dc60 f   c49_six_plus_six_AcmsteeringV09_main_2lflm.obj
 0001:0018ccb0       sf_opaque_enable_c49_six_plus_six_AcmsteeringV09_main_2lflm 000000018018dcb0 f   c49_six_plus_six_AcmsteeringV09_main_2lflm.obj
 0001:0018ccd0       enable_c49_six_plus_six_AcmsteeringV09_main_2lflm 000000018018dcd0 f   c49_six_plus_six_AcmsteeringV09_main_2lflm.obj
 0001:0018cd00       sf_opaque_disable_c49_six_plus_six_AcmsteeringV09_main_2lflm 000000018018dd00 f   c49_six_plus_six_AcmsteeringV09_main_2lflm.obj
 0001:0018cd20       disable_c49_six_plus_six_AcmsteeringV09_main_2lflm 000000018018dd20 f   c49_six_plus_six_AcmsteeringV09_main_2lflm.obj
 0001:0018cd50       sf_opaque_gateway_c49_six_plus_six_AcmsteeringV09_main_2lflm 000000018018dd50 f   c49_six_plus_six_AcmsteeringV09_main_2lflm.obj
 0001:0018cd70       sf_gateway_c49_six_plus_six_AcmsteeringV09_main_2lflm 000000018018dd70 f   c49_six_plus_six_AcmsteeringV09_main_2lflm.obj
 0001:0018d9f0       c49_chartstep_c49_six_plus_six_AcmsteeringV09_main_2lflm 000000018018e9f0 f   c49_six_plus_six_AcmsteeringV09_main_2lflm.obj
 0001:00190480       c49_eml_scalar_eg          0000000180191480 f   c49_six_plus_six_AcmsteeringV09_main_2lflm.obj
 0001:00190490       c49_b_eml_scalar_eg        0000000180191490 f   c49_six_plus_six_AcmsteeringV09_main_2lflm.obj
 0001:001904a0       sf_opaque_get_sim_state_c49_six_plus_six_AcmsteeringV09_main_2lflm 00000001801914a0 f   c49_six_plus_six_AcmsteeringV09_main_2lflm.obj
 0001:001904c0       sf_opaque_set_sim_state_c49_six_plus_six_AcmsteeringV09_main_2lflm 00000001801914c0 f   c49_six_plus_six_AcmsteeringV09_main_2lflm.obj
 0001:001904f0       sf_opaque_terminate_c49_six_plus_six_AcmsteeringV09_main_2lflm 00000001801914f0 f   c49_six_plus_six_AcmsteeringV09_main_2lflm.obj
 0001:00190590       finalize_c49_six_plus_six_AcmsteeringV09_main_2lflm 0000000180191590 f   c49_six_plus_six_AcmsteeringV09_main_2lflm.obj
 0001:001905a0       sf_opaque_init_subchart_simstructs 00000001801915a0 f   c49_six_plus_six_AcmsteeringV09_main_2lflm.obj
 0001:001905c0       initSimStructsc49_six_plus_six_AcmsteeringV09_main_2lflm 00000001801915c0 f   c49_six_plus_six_AcmsteeringV09_main_2lflm.obj
 0001:001905d0       mdlRTW_c49_six_plus_six_AcmsteeringV09_main_2lflm 00000001801915d0 f   c49_six_plus_six_AcmsteeringV09_main_2lflm.obj
 0001:00190c90       get_sim_state_c50_six_plus_six_AcmsteeringV09_main_2lflm 0000000180191c90 f   c50_six_plus_six_AcmsteeringV09_main_2lflm.obj
 0001:00190e30       sf_get_sim_state_info_c50_six_plus_six_AcmsteeringV09_main_2lflm 0000000180191e30 f   c50_six_plus_six_AcmsteeringV09_main_2lflm.obj
 0001:00191000       set_sim_state_c50_six_plus_six_AcmsteeringV09_main_2lflm 0000000180192000 f   c50_six_plus_six_AcmsteeringV09_main_2lflm.obj
 0001:001910e0       c50_update_debugger_state_c50_six_plus_six_AcmsteeringV09_main_2 00000001801920e0 f   c50_six_plus_six_AcmsteeringV09_main_2lflm.obj
 0001:001910f0       c50_emlrt_marshallIn       00000001801920f0 f   c50_six_plus_six_AcmsteeringV09_main_2lflm.obj
 0001:00191160       c50_b_emlrt_marshallIn     0000000180192160 f   c50_six_plus_six_AcmsteeringV09_main_2lflm.obj
 0001:001911f0       c50_e_emlrt_marshallIn     00000001801921f0 f   c50_six_plus_six_AcmsteeringV09_main_2lflm.obj
 0001:00191250       c50_f_emlrt_marshallIn     0000000180192250 f   c50_six_plus_six_AcmsteeringV09_main_2lflm.obj
 0001:00191350       mdlProcessParameters_c50_six_plus_six_AcmsteeringV09_main_2lflm 0000000180192350 f   c50_six_plus_six_AcmsteeringV09_main_2lflm.obj
 0001:00191430       initialize_params_c50_six_plus_six_AcmsteeringV09_main_2lflm 0000000180192430 f   c50_six_plus_six_AcmsteeringV09_main_2lflm.obj
 0001:00191440       mdlSetWorkWidths_c50_six_plus_six_AcmsteeringV09_main_2lflm 0000000180192440 f   c50_six_plus_six_AcmsteeringV09_main_2lflm.obj
 0001:00191910       sf_get_instance_specialization 0000000180192910 f   c50_six_plus_six_AcmsteeringV09_main_2lflm.obj
 0001:00191920       mdlStart_c50_six_plus_six_AcmsteeringV09_main_2lflm 0000000180192920 f   c50_six_plus_six_AcmsteeringV09_main_2lflm.obj
 0001:00191b50       init_dsm_address_info      0000000180192b50 f   c50_six_plus_six_AcmsteeringV09_main_2lflm.obj
 0001:00191b60       chart_debug_initialization 0000000180192b60 f   c50_six_plus_six_AcmsteeringV09_main_2lflm.obj
 0001:00192310       init_script_number_translation 0000000180193310 f   c50_six_plus_six_AcmsteeringV09_main_2lflm.obj
 0001:00192330       c50_sf_marshallOut         0000000180193330 f   c50_six_plus_six_AcmsteeringV09_main_2lflm.obj
 0001:001923f0       c50_sf_marshallIn          00000001801933f0 f   c50_six_plus_six_AcmsteeringV09_main_2lflm.obj
 0001:00192490       sf_opaque_initialize_c50_six_plus_six_AcmsteeringV09_main_2lflm 0000000180193490 f   c50_six_plus_six_AcmsteeringV09_main_2lflm.obj
 0001:001924d0       initialize_c50_six_plus_six_AcmsteeringV09_main_2lflm 00000001801934d0 f   c50_six_plus_six_AcmsteeringV09_main_2lflm.obj
 0001:00192520       sf_opaque_enable_c50_six_plus_six_AcmsteeringV09_main_2lflm 0000000180193520 f   c50_six_plus_six_AcmsteeringV09_main_2lflm.obj
 0001:00192540       enable_c50_six_plus_six_AcmsteeringV09_main_2lflm 0000000180193540 f   c50_six_plus_six_AcmsteeringV09_main_2lflm.obj
 0001:00192570       sf_opaque_disable_c50_six_plus_six_AcmsteeringV09_main_2lflm 0000000180193570 f   c50_six_plus_six_AcmsteeringV09_main_2lflm.obj
 0001:00192590       disable_c50_six_plus_six_AcmsteeringV09_main_2lflm 0000000180193590 f   c50_six_plus_six_AcmsteeringV09_main_2lflm.obj
 0001:001925c0       sf_opaque_gateway_c50_six_plus_six_AcmsteeringV09_main_2lflm 00000001801935c0 f   c50_six_plus_six_AcmsteeringV09_main_2lflm.obj
 0001:001925e0       sf_gateway_c50_six_plus_six_AcmsteeringV09_main_2lflm 00000001801935e0 f   c50_six_plus_six_AcmsteeringV09_main_2lflm.obj
 0001:00192d00       c50_b_sf_marshallOut       0000000180193d00 f   c50_six_plus_six_AcmsteeringV09_main_2lflm.obj
 0001:00192db0       c50_b_sf_marshallIn        0000000180193db0 f   c50_six_plus_six_AcmsteeringV09_main_2lflm.obj
 0001:00192e50       c50_c_emlrt_marshallIn     0000000180193e50 f   c50_six_plus_six_AcmsteeringV09_main_2lflm.obj
 0001:00192ee0       sf_opaque_get_sim_state_c50_six_plus_six_AcmsteeringV09_main_2lflm 0000000180193ee0 f   c50_six_plus_six_AcmsteeringV09_main_2lflm.obj
 0001:00192f00       sf_opaque_set_sim_state_c50_six_plus_six_AcmsteeringV09_main_2lflm 0000000180193f00 f   c50_six_plus_six_AcmsteeringV09_main_2lflm.obj
 0001:00192f30       sf_opaque_terminate_c50_six_plus_six_AcmsteeringV09_main_2lflm 0000000180193f30 f   c50_six_plus_six_AcmsteeringV09_main_2lflm.obj
 0001:00192fd0       finalize_c50_six_plus_six_AcmsteeringV09_main_2lflm 0000000180193fd0 f   c50_six_plus_six_AcmsteeringV09_main_2lflm.obj
 0001:00192fe0       sf_opaque_init_subchart_simstructs 0000000180193fe0 f   c50_six_plus_six_AcmsteeringV09_main_2lflm.obj
 0001:00193000       initSimStructsc50_six_plus_six_AcmsteeringV09_main_2lflm 0000000180194000 f   c50_six_plus_six_AcmsteeringV09_main_2lflm.obj
 0001:00193010       mdlRTW_c50_six_plus_six_AcmsteeringV09_main_2lflm 0000000180194010 f   c50_six_plus_six_AcmsteeringV09_main_2lflm.obj
 0001:001936d0       get_sim_state_c51_six_plus_six_AcmsteeringV09_main_2lflm 00000001801946d0 f   c51_six_plus_six_AcmsteeringV09_main_2lflm.obj
 0001:00193870       sf_get_sim_state_info_c51_six_plus_six_AcmsteeringV09_main_2lflm 0000000180194870 f   c51_six_plus_six_AcmsteeringV09_main_2lflm.obj
 0001:00193a40       set_sim_state_c51_six_plus_six_AcmsteeringV09_main_2lflm 0000000180194a40 f   c51_six_plus_six_AcmsteeringV09_main_2lflm.obj
 0001:00193b20       c51_update_debugger_state_c51_six_plus_six_AcmsteeringV09_main_2 0000000180194b20 f   c51_six_plus_six_AcmsteeringV09_main_2lflm.obj
 0001:00193b30       c51_emlrt_marshallIn       0000000180194b30 f   c51_six_plus_six_AcmsteeringV09_main_2lflm.obj
 0001:00193ba0       c51_b_emlrt_marshallIn     0000000180194ba0 f   c51_six_plus_six_AcmsteeringV09_main_2lflm.obj
 0001:00193c30       c51_e_emlrt_marshallIn     0000000180194c30 f   c51_six_plus_six_AcmsteeringV09_main_2lflm.obj
 0001:00193c90       c51_f_emlrt_marshallIn     0000000180194c90 f   c51_six_plus_six_AcmsteeringV09_main_2lflm.obj
 0001:00193d90       mdlProcessParameters_c51_six_plus_six_AcmsteeringV09_main_2lflm 0000000180194d90 f   c51_six_plus_six_AcmsteeringV09_main_2lflm.obj
 0001:00193e70       initialize_params_c51_six_plus_six_AcmsteeringV09_main_2lflm 0000000180194e70 f   c51_six_plus_six_AcmsteeringV09_main_2lflm.obj
 0001:00193e80       mdlSetWorkWidths_c51_six_plus_six_AcmsteeringV09_main_2lflm 0000000180194e80 f   c51_six_plus_six_AcmsteeringV09_main_2lflm.obj
 0001:00194350       sf_get_instance_specialization 0000000180195350 f   c51_six_plus_six_AcmsteeringV09_main_2lflm.obj
 0001:00194360       mdlStart_c51_six_plus_six_AcmsteeringV09_main_2lflm 0000000180195360 f   c51_six_plus_six_AcmsteeringV09_main_2lflm.obj
 0001:00194590       init_dsm_address_info      0000000180195590 f   c51_six_plus_six_AcmsteeringV09_main_2lflm.obj
 0001:001945a0       chart_debug_initialization 00000001801955a0 f   c51_six_plus_six_AcmsteeringV09_main_2lflm.obj
 0001:00194d50       init_script_number_translation 0000000180195d50 f   c51_six_plus_six_AcmsteeringV09_main_2lflm.obj
 0001:00194d70       c51_sf_marshallOut         0000000180195d70 f   c51_six_plus_six_AcmsteeringV09_main_2lflm.obj
 0001:00194e30       c51_sf_marshallIn          0000000180195e30 f   c51_six_plus_six_AcmsteeringV09_main_2lflm.obj
 0001:00194ed0       sf_opaque_initialize_c51_six_plus_six_AcmsteeringV09_main_2lflm 0000000180195ed0 f   c51_six_plus_six_AcmsteeringV09_main_2lflm.obj
 0001:00194f10       initialize_c51_six_plus_six_AcmsteeringV09_main_2lflm 0000000180195f10 f   c51_six_plus_six_AcmsteeringV09_main_2lflm.obj
 0001:00194f60       sf_opaque_enable_c51_six_plus_six_AcmsteeringV09_main_2lflm 0000000180195f60 f   c51_six_plus_six_AcmsteeringV09_main_2lflm.obj
 0001:00194f80       enable_c51_six_plus_six_AcmsteeringV09_main_2lflm 0000000180195f80 f   c51_six_plus_six_AcmsteeringV09_main_2lflm.obj
 0001:00194fb0       sf_opaque_disable_c51_six_plus_six_AcmsteeringV09_main_2lflm 0000000180195fb0 f   c51_six_plus_six_AcmsteeringV09_main_2lflm.obj
 0001:00194fd0       disable_c51_six_plus_six_AcmsteeringV09_main_2lflm 0000000180195fd0 f   c51_six_plus_six_AcmsteeringV09_main_2lflm.obj
 0001:00195000       sf_opaque_gateway_c51_six_plus_six_AcmsteeringV09_main_2lflm 0000000180196000 f   c51_six_plus_six_AcmsteeringV09_main_2lflm.obj
 0001:00195020       sf_gateway_c51_six_plus_six_AcmsteeringV09_main_2lflm 0000000180196020 f   c51_six_plus_six_AcmsteeringV09_main_2lflm.obj
 0001:00195740       c51_b_sf_marshallOut       0000000180196740 f   c51_six_plus_six_AcmsteeringV09_main_2lflm.obj
 0001:001957f0       c51_b_sf_marshallIn        00000001801967f0 f   c51_six_plus_six_AcmsteeringV09_main_2lflm.obj
 0001:00195890       c51_c_emlrt_marshallIn     0000000180196890 f   c51_six_plus_six_AcmsteeringV09_main_2lflm.obj
 0001:00195920       sf_opaque_get_sim_state_c51_six_plus_six_AcmsteeringV09_main_2lflm 0000000180196920 f   c51_six_plus_six_AcmsteeringV09_main_2lflm.obj
 0001:00195940       sf_opaque_set_sim_state_c51_six_plus_six_AcmsteeringV09_main_2lflm 0000000180196940 f   c51_six_plus_six_AcmsteeringV09_main_2lflm.obj
 0001:00195970       sf_opaque_terminate_c51_six_plus_six_AcmsteeringV09_main_2lflm 0000000180196970 f   c51_six_plus_six_AcmsteeringV09_main_2lflm.obj
 0001:00195a10       finalize_c51_six_plus_six_AcmsteeringV09_main_2lflm 0000000180196a10 f   c51_six_plus_six_AcmsteeringV09_main_2lflm.obj
 0001:00195a20       sf_opaque_init_subchart_simstructs 0000000180196a20 f   c51_six_plus_six_AcmsteeringV09_main_2lflm.obj
 0001:00195a40       initSimStructsc51_six_plus_six_AcmsteeringV09_main_2lflm 0000000180196a40 f   c51_six_plus_six_AcmsteeringV09_main_2lflm.obj
 0001:00195a50       mdlRTW_c51_six_plus_six_AcmsteeringV09_main_2lflm 0000000180196a50 f   c51_six_plus_six_AcmsteeringV09_main_2lflm.obj
 0001:00196110       get_sim_state_c52_six_plus_six_AcmsteeringV09_main_2lflm 0000000180197110 f   c52_six_plus_six_AcmsteeringV09_main_2lflm.obj
 0001:001962b0       sf_get_sim_state_info_c52_six_plus_six_AcmsteeringV09_main_2lflm 00000001801972b0 f   c52_six_plus_six_AcmsteeringV09_main_2lflm.obj
 0001:00196480       set_sim_state_c52_six_plus_six_AcmsteeringV09_main_2lflm 0000000180197480 f   c52_six_plus_six_AcmsteeringV09_main_2lflm.obj
 0001:00196560       c52_update_debugger_state_c52_six_plus_six_AcmsteeringV09_main_2 0000000180197560 f   c52_six_plus_six_AcmsteeringV09_main_2lflm.obj
 0001:00196570       c52_emlrt_marshallIn       0000000180197570 f   c52_six_plus_six_AcmsteeringV09_main_2lflm.obj
 0001:001965e0       c52_b_emlrt_marshallIn     00000001801975e0 f   c52_six_plus_six_AcmsteeringV09_main_2lflm.obj
 0001:00196670       c52_e_emlrt_marshallIn     0000000180197670 f   c52_six_plus_six_AcmsteeringV09_main_2lflm.obj
 0001:001966d0       c52_f_emlrt_marshallIn     00000001801976d0 f   c52_six_plus_six_AcmsteeringV09_main_2lflm.obj
 0001:001967d0       mdlProcessParameters_c52_six_plus_six_AcmsteeringV09_main_2lflm 00000001801977d0 f   c52_six_plus_six_AcmsteeringV09_main_2lflm.obj
 0001:001968b0       initialize_params_c52_six_plus_six_AcmsteeringV09_main_2lflm 00000001801978b0 f   c52_six_plus_six_AcmsteeringV09_main_2lflm.obj
 0001:001968c0       mdlSetWorkWidths_c52_six_plus_six_AcmsteeringV09_main_2lflm 00000001801978c0 f   c52_six_plus_six_AcmsteeringV09_main_2lflm.obj
 0001:00196d90       sf_get_instance_specialization 0000000180197d90 f   c52_six_plus_six_AcmsteeringV09_main_2lflm.obj
 0001:00196da0       mdlStart_c52_six_plus_six_AcmsteeringV09_main_2lflm 0000000180197da0 f   c52_six_plus_six_AcmsteeringV09_main_2lflm.obj
 0001:00196fd0       init_dsm_address_info      0000000180197fd0 f   c52_six_plus_six_AcmsteeringV09_main_2lflm.obj
 0001:00196fe0       chart_debug_initialization 0000000180197fe0 f   c52_six_plus_six_AcmsteeringV09_main_2lflm.obj
 0001:00197790       init_script_number_translation 0000000180198790 f   c52_six_plus_six_AcmsteeringV09_main_2lflm.obj
 0001:001977b0       c52_sf_marshallOut         00000001801987b0 f   c52_six_plus_six_AcmsteeringV09_main_2lflm.obj
 0001:00197870       c52_sf_marshallIn          0000000180198870 f   c52_six_plus_six_AcmsteeringV09_main_2lflm.obj
 0001:00197910       sf_opaque_initialize_c52_six_plus_six_AcmsteeringV09_main_2lflm 0000000180198910 f   c52_six_plus_six_AcmsteeringV09_main_2lflm.obj
 0001:00197950       initialize_c52_six_plus_six_AcmsteeringV09_main_2lflm 0000000180198950 f   c52_six_plus_six_AcmsteeringV09_main_2lflm.obj
 0001:001979a0       sf_opaque_enable_c52_six_plus_six_AcmsteeringV09_main_2lflm 00000001801989a0 f   c52_six_plus_six_AcmsteeringV09_main_2lflm.obj
 0001:001979c0       enable_c52_six_plus_six_AcmsteeringV09_main_2lflm 00000001801989c0 f   c52_six_plus_six_AcmsteeringV09_main_2lflm.obj
 0001:001979f0       sf_opaque_disable_c52_six_plus_six_AcmsteeringV09_main_2lflm 00000001801989f0 f   c52_six_plus_six_AcmsteeringV09_main_2lflm.obj
 0001:00197a10       disable_c52_six_plus_six_AcmsteeringV09_main_2lflm 0000000180198a10 f   c52_six_plus_six_AcmsteeringV09_main_2lflm.obj
 0001:00197a40       sf_opaque_gateway_c52_six_plus_six_AcmsteeringV09_main_2lflm 0000000180198a40 f   c52_six_plus_six_AcmsteeringV09_main_2lflm.obj
 0001:00197a60       sf_gateway_c52_six_plus_six_AcmsteeringV09_main_2lflm 0000000180198a60 f   c52_six_plus_six_AcmsteeringV09_main_2lflm.obj
 0001:00198190       c52_b_sf_marshallOut       0000000180199190 f   c52_six_plus_six_AcmsteeringV09_main_2lflm.obj
 0001:00198240       c52_b_sf_marshallIn        0000000180199240 f   c52_six_plus_six_AcmsteeringV09_main_2lflm.obj
 0001:001982e0       c52_c_emlrt_marshallIn     00000001801992e0 f   c52_six_plus_six_AcmsteeringV09_main_2lflm.obj
 0001:00198370       sf_opaque_get_sim_state_c52_six_plus_six_AcmsteeringV09_main_2lflm 0000000180199370 f   c52_six_plus_six_AcmsteeringV09_main_2lflm.obj
 0001:00198390       sf_opaque_set_sim_state_c52_six_plus_six_AcmsteeringV09_main_2lflm 0000000180199390 f   c52_six_plus_six_AcmsteeringV09_main_2lflm.obj
 0001:001983c0       sf_opaque_terminate_c52_six_plus_six_AcmsteeringV09_main_2lflm 00000001801993c0 f   c52_six_plus_six_AcmsteeringV09_main_2lflm.obj
 0001:00198460       finalize_c52_six_plus_six_AcmsteeringV09_main_2lflm 0000000180199460 f   c52_six_plus_six_AcmsteeringV09_main_2lflm.obj
 0001:00198470       sf_opaque_init_subchart_simstructs 0000000180199470 f   c52_six_plus_six_AcmsteeringV09_main_2lflm.obj
 0001:00198490       initSimStructsc52_six_plus_six_AcmsteeringV09_main_2lflm 0000000180199490 f   c52_six_plus_six_AcmsteeringV09_main_2lflm.obj
 0001:001984a0       mdlRTW_c52_six_plus_six_AcmsteeringV09_main_2lflm 00000001801994a0 f   c52_six_plus_six_AcmsteeringV09_main_2lflm.obj
 0001:00198b60       get_sim_state_c53_six_plus_six_AcmsteeringV09_main_2lflm 0000000180199b60 f   c53_six_plus_six_AcmsteeringV09_main_2lflm.obj
 0001:00198d00       sf_get_sim_state_info_c53_six_plus_six_AcmsteeringV09_main_2lflm 0000000180199d00 f   c53_six_plus_six_AcmsteeringV09_main_2lflm.obj
 0001:00198ed0       set_sim_state_c53_six_plus_six_AcmsteeringV09_main_2lflm 0000000180199ed0 f   c53_six_plus_six_AcmsteeringV09_main_2lflm.obj
 0001:00198fb0       c53_update_debugger_state_c53_six_plus_six_AcmsteeringV09_main_2 0000000180199fb0 f   c53_six_plus_six_AcmsteeringV09_main_2lflm.obj
 0001:00198fc0       c53_emlrt_marshallIn       0000000180199fc0 f   c53_six_plus_six_AcmsteeringV09_main_2lflm.obj
 0001:00199030       c53_b_emlrt_marshallIn     000000018019a030 f   c53_six_plus_six_AcmsteeringV09_main_2lflm.obj
 0001:001990c0       c53_e_emlrt_marshallIn     000000018019a0c0 f   c53_six_plus_six_AcmsteeringV09_main_2lflm.obj
 0001:00199120       c53_f_emlrt_marshallIn     000000018019a120 f   c53_six_plus_six_AcmsteeringV09_main_2lflm.obj
 0001:00199220       mdlProcessParameters_c53_six_plus_six_AcmsteeringV09_main_2lflm 000000018019a220 f   c53_six_plus_six_AcmsteeringV09_main_2lflm.obj
 0001:00199300       initialize_params_c53_six_plus_six_AcmsteeringV09_main_2lflm 000000018019a300 f   c53_six_plus_six_AcmsteeringV09_main_2lflm.obj
 0001:00199310       mdlSetWorkWidths_c53_six_plus_six_AcmsteeringV09_main_2lflm 000000018019a310 f   c53_six_plus_six_AcmsteeringV09_main_2lflm.obj
 0001:001997e0       sf_get_instance_specialization 000000018019a7e0 f   c53_six_plus_six_AcmsteeringV09_main_2lflm.obj
 0001:001997f0       mdlStart_c53_six_plus_six_AcmsteeringV09_main_2lflm 000000018019a7f0 f   c53_six_plus_six_AcmsteeringV09_main_2lflm.obj
 0001:00199a20       init_dsm_address_info      000000018019aa20 f   c53_six_plus_six_AcmsteeringV09_main_2lflm.obj
 0001:00199a30       chart_debug_initialization 000000018019aa30 f   c53_six_plus_six_AcmsteeringV09_main_2lflm.obj
 0001:0019a1e0       init_script_number_translation 000000018019b1e0 f   c53_six_plus_six_AcmsteeringV09_main_2lflm.obj
 0001:0019a200       c53_sf_marshallOut         000000018019b200 f   c53_six_plus_six_AcmsteeringV09_main_2lflm.obj
 0001:0019a2c0       c53_sf_marshallIn          000000018019b2c0 f   c53_six_plus_six_AcmsteeringV09_main_2lflm.obj
 0001:0019a360       sf_opaque_initialize_c53_six_plus_six_AcmsteeringV09_main_2lflm 000000018019b360 f   c53_six_plus_six_AcmsteeringV09_main_2lflm.obj
 0001:0019a3a0       initialize_c53_six_plus_six_AcmsteeringV09_main_2lflm 000000018019b3a0 f   c53_six_plus_six_AcmsteeringV09_main_2lflm.obj
 0001:0019a3f0       sf_opaque_enable_c53_six_plus_six_AcmsteeringV09_main_2lflm 000000018019b3f0 f   c53_six_plus_six_AcmsteeringV09_main_2lflm.obj
 0001:0019a410       enable_c53_six_plus_six_AcmsteeringV09_main_2lflm 000000018019b410 f   c53_six_plus_six_AcmsteeringV09_main_2lflm.obj
 0001:0019a440       sf_opaque_disable_c53_six_plus_six_AcmsteeringV09_main_2lflm 000000018019b440 f   c53_six_plus_six_AcmsteeringV09_main_2lflm.obj
 0001:0019a460       disable_c53_six_plus_six_AcmsteeringV09_main_2lflm 000000018019b460 f   c53_six_plus_six_AcmsteeringV09_main_2lflm.obj
 0001:0019a490       sf_opaque_gateway_c53_six_plus_six_AcmsteeringV09_main_2lflm 000000018019b490 f   c53_six_plus_six_AcmsteeringV09_main_2lflm.obj
 0001:0019a4b0       sf_gateway_c53_six_plus_six_AcmsteeringV09_main_2lflm 000000018019b4b0 f   c53_six_plus_six_AcmsteeringV09_main_2lflm.obj
 0001:0019abd0       c53_b_sf_marshallOut       000000018019bbd0 f   c53_six_plus_six_AcmsteeringV09_main_2lflm.obj
 0001:0019ac80       c53_b_sf_marshallIn        000000018019bc80 f   c53_six_plus_six_AcmsteeringV09_main_2lflm.obj
 0001:0019ad20       c53_c_emlrt_marshallIn     000000018019bd20 f   c53_six_plus_six_AcmsteeringV09_main_2lflm.obj
 0001:0019adb0       sf_opaque_get_sim_state_c53_six_plus_six_AcmsteeringV09_main_2lflm 000000018019bdb0 f   c53_six_plus_six_AcmsteeringV09_main_2lflm.obj
 0001:0019add0       sf_opaque_set_sim_state_c53_six_plus_six_AcmsteeringV09_main_2lflm 000000018019bdd0 f   c53_six_plus_six_AcmsteeringV09_main_2lflm.obj
 0001:0019ae00       sf_opaque_terminate_c53_six_plus_six_AcmsteeringV09_main_2lflm 000000018019be00 f   c53_six_plus_six_AcmsteeringV09_main_2lflm.obj
 0001:0019aea0       finalize_c53_six_plus_six_AcmsteeringV09_main_2lflm 000000018019bea0 f   c53_six_plus_six_AcmsteeringV09_main_2lflm.obj
 0001:0019aeb0       sf_opaque_init_subchart_simstructs 000000018019beb0 f   c53_six_plus_six_AcmsteeringV09_main_2lflm.obj
 0001:0019aed0       initSimStructsc53_six_plus_six_AcmsteeringV09_main_2lflm 000000018019bed0 f   c53_six_plus_six_AcmsteeringV09_main_2lflm.obj
 0001:0019aee0       mdlRTW_c53_six_plus_six_AcmsteeringV09_main_2lflm 000000018019bee0 f   c53_six_plus_six_AcmsteeringV09_main_2lflm.obj
 0001:0019b5a0       get_sim_state_c54_six_plus_six_AcmsteeringV09_main_2lflm 000000018019c5a0 f   c54_six_plus_six_AcmsteeringV09_main_2lflm.obj
 0001:0019b740       sf_get_sim_state_info_c54_six_plus_six_AcmsteeringV09_main_2lflm 000000018019c740 f   c54_six_plus_six_AcmsteeringV09_main_2lflm.obj
 0001:0019b910       set_sim_state_c54_six_plus_six_AcmsteeringV09_main_2lflm 000000018019c910 f   c54_six_plus_six_AcmsteeringV09_main_2lflm.obj
 0001:0019b9f0       c54_update_debugger_state_c54_six_plus_six_AcmsteeringV09_main_2 000000018019c9f0 f   c54_six_plus_six_AcmsteeringV09_main_2lflm.obj
 0001:0019ba00       c54_emlrt_marshallIn       000000018019ca00 f   c54_six_plus_six_AcmsteeringV09_main_2lflm.obj
 0001:0019ba70       c54_b_emlrt_marshallIn     000000018019ca70 f   c54_six_plus_six_AcmsteeringV09_main_2lflm.obj
 0001:0019bb00       c54_e_emlrt_marshallIn     000000018019cb00 f   c54_six_plus_six_AcmsteeringV09_main_2lflm.obj
 0001:0019bb60       c54_f_emlrt_marshallIn     000000018019cb60 f   c54_six_plus_six_AcmsteeringV09_main_2lflm.obj
 0001:0019bc60       mdlProcessParameters_c54_six_plus_six_AcmsteeringV09_main_2lflm 000000018019cc60 f   c54_six_plus_six_AcmsteeringV09_main_2lflm.obj
 0001:0019bd40       initialize_params_c54_six_plus_six_AcmsteeringV09_main_2lflm 000000018019cd40 f   c54_six_plus_six_AcmsteeringV09_main_2lflm.obj
 0001:0019bd50       mdlSetWorkWidths_c54_six_plus_six_AcmsteeringV09_main_2lflm 000000018019cd50 f   c54_six_plus_six_AcmsteeringV09_main_2lflm.obj
 0001:0019c220       sf_get_instance_specialization 000000018019d220 f   c54_six_plus_six_AcmsteeringV09_main_2lflm.obj
 0001:0019c230       mdlStart_c54_six_plus_six_AcmsteeringV09_main_2lflm 000000018019d230 f   c54_six_plus_six_AcmsteeringV09_main_2lflm.obj
 0001:0019c460       init_dsm_address_info      000000018019d460 f   c54_six_plus_six_AcmsteeringV09_main_2lflm.obj
 0001:0019c470       chart_debug_initialization 000000018019d470 f   c54_six_plus_six_AcmsteeringV09_main_2lflm.obj
 0001:0019cc20       init_script_number_translation 000000018019dc20 f   c54_six_plus_six_AcmsteeringV09_main_2lflm.obj
 0001:0019cc40       c54_sf_marshallOut         000000018019dc40 f   c54_six_plus_six_AcmsteeringV09_main_2lflm.obj
 0001:0019cd00       c54_sf_marshallIn          000000018019dd00 f   c54_six_plus_six_AcmsteeringV09_main_2lflm.obj
 0001:0019cda0       sf_opaque_initialize_c54_six_plus_six_AcmsteeringV09_main_2lflm 000000018019dda0 f   c54_six_plus_six_AcmsteeringV09_main_2lflm.obj
 0001:0019cde0       initialize_c54_six_plus_six_AcmsteeringV09_main_2lflm 000000018019dde0 f   c54_six_plus_six_AcmsteeringV09_main_2lflm.obj
 0001:0019ce30       sf_opaque_enable_c54_six_plus_six_AcmsteeringV09_main_2lflm 000000018019de30 f   c54_six_plus_six_AcmsteeringV09_main_2lflm.obj
 0001:0019ce50       enable_c54_six_plus_six_AcmsteeringV09_main_2lflm 000000018019de50 f   c54_six_plus_six_AcmsteeringV09_main_2lflm.obj
 0001:0019ce80       sf_opaque_disable_c54_six_plus_six_AcmsteeringV09_main_2lflm 000000018019de80 f   c54_six_plus_six_AcmsteeringV09_main_2lflm.obj
 0001:0019cea0       disable_c54_six_plus_six_AcmsteeringV09_main_2lflm 000000018019dea0 f   c54_six_plus_six_AcmsteeringV09_main_2lflm.obj
 0001:0019ced0       sf_opaque_gateway_c54_six_plus_six_AcmsteeringV09_main_2lflm 000000018019ded0 f   c54_six_plus_six_AcmsteeringV09_main_2lflm.obj
 0001:0019cef0       sf_gateway_c54_six_plus_six_AcmsteeringV09_main_2lflm 000000018019def0 f   c54_six_plus_six_AcmsteeringV09_main_2lflm.obj
 0001:0019d610       c54_b_sf_marshallOut       000000018019e610 f   c54_six_plus_six_AcmsteeringV09_main_2lflm.obj
 0001:0019d6c0       c54_b_sf_marshallIn        000000018019e6c0 f   c54_six_plus_six_AcmsteeringV09_main_2lflm.obj
 0001:0019d760       c54_c_emlrt_marshallIn     000000018019e760 f   c54_six_plus_six_AcmsteeringV09_main_2lflm.obj
 0001:0019d7f0       sf_opaque_get_sim_state_c54_six_plus_six_AcmsteeringV09_main_2lflm 000000018019e7f0 f   c54_six_plus_six_AcmsteeringV09_main_2lflm.obj
 0001:0019d810       sf_opaque_set_sim_state_c54_six_plus_six_AcmsteeringV09_main_2lflm 000000018019e810 f   c54_six_plus_six_AcmsteeringV09_main_2lflm.obj
 0001:0019d840       sf_opaque_terminate_c54_six_plus_six_AcmsteeringV09_main_2lflm 000000018019e840 f   c54_six_plus_six_AcmsteeringV09_main_2lflm.obj
 0001:0019d8e0       finalize_c54_six_plus_six_AcmsteeringV09_main_2lflm 000000018019e8e0 f   c54_six_plus_six_AcmsteeringV09_main_2lflm.obj
 0001:0019d8f0       sf_opaque_init_subchart_simstructs 000000018019e8f0 f   c54_six_plus_six_AcmsteeringV09_main_2lflm.obj
 0001:0019d910       initSimStructsc54_six_plus_six_AcmsteeringV09_main_2lflm 000000018019e910 f   c54_six_plus_six_AcmsteeringV09_main_2lflm.obj
 0001:0019d920       mdlRTW_c54_six_plus_six_AcmsteeringV09_main_2lflm 000000018019e920 f   c54_six_plus_six_AcmsteeringV09_main_2lflm.obj
 0001:0019dfe0       get_sim_state_c55_six_plus_six_AcmsteeringV09_main_2lflm 000000018019efe0 f   c55_six_plus_six_AcmsteeringV09_main_2lflm.obj
 0001:0019e180       sf_get_sim_state_info_c55_six_plus_six_AcmsteeringV09_main_2lflm 000000018019f180 f   c55_six_plus_six_AcmsteeringV09_main_2lflm.obj
 0001:0019e350       set_sim_state_c55_six_plus_six_AcmsteeringV09_main_2lflm 000000018019f350 f   c55_six_plus_six_AcmsteeringV09_main_2lflm.obj
 0001:0019e430       c55_update_debugger_state_c55_six_plus_six_AcmsteeringV09_main_2 000000018019f430 f   c55_six_plus_six_AcmsteeringV09_main_2lflm.obj
 0001:0019e440       c55_emlrt_marshallIn       000000018019f440 f   c55_six_plus_six_AcmsteeringV09_main_2lflm.obj
 0001:0019e4b0       c55_b_emlrt_marshallIn     000000018019f4b0 f   c55_six_plus_six_AcmsteeringV09_main_2lflm.obj
 0001:0019e540       c55_e_emlrt_marshallIn     000000018019f540 f   c55_six_plus_six_AcmsteeringV09_main_2lflm.obj
 0001:0019e5a0       c55_f_emlrt_marshallIn     000000018019f5a0 f   c55_six_plus_six_AcmsteeringV09_main_2lflm.obj
 0001:0019e6a0       mdlProcessParameters_c55_six_plus_six_AcmsteeringV09_main_2lflm 000000018019f6a0 f   c55_six_plus_six_AcmsteeringV09_main_2lflm.obj
 0001:0019e780       initialize_params_c55_six_plus_six_AcmsteeringV09_main_2lflm 000000018019f780 f   c55_six_plus_six_AcmsteeringV09_main_2lflm.obj
 0001:0019e790       mdlSetWorkWidths_c55_six_plus_six_AcmsteeringV09_main_2lflm 000000018019f790 f   c55_six_plus_six_AcmsteeringV09_main_2lflm.obj
 0001:0019ec60       sf_get_instance_specialization 000000018019fc60 f   c55_six_plus_six_AcmsteeringV09_main_2lflm.obj
 0001:0019ec70       mdlStart_c55_six_plus_six_AcmsteeringV09_main_2lflm 000000018019fc70 f   c55_six_plus_six_AcmsteeringV09_main_2lflm.obj
 0001:0019eea0       init_dsm_address_info      000000018019fea0 f   c55_six_plus_six_AcmsteeringV09_main_2lflm.obj
 0001:0019eeb0       chart_debug_initialization 000000018019feb0 f   c55_six_plus_six_AcmsteeringV09_main_2lflm.obj
 0001:0019f660       init_script_number_translation 00000001801a0660 f   c55_six_plus_six_AcmsteeringV09_main_2lflm.obj
 0001:0019f680       c55_sf_marshallOut         00000001801a0680 f   c55_six_plus_six_AcmsteeringV09_main_2lflm.obj
 0001:0019f740       c55_sf_marshallIn          00000001801a0740 f   c55_six_plus_six_AcmsteeringV09_main_2lflm.obj
 0001:0019f7e0       sf_opaque_initialize_c55_six_plus_six_AcmsteeringV09_main_2lflm 00000001801a07e0 f   c55_six_plus_six_AcmsteeringV09_main_2lflm.obj
 0001:0019f820       initialize_c55_six_plus_six_AcmsteeringV09_main_2lflm 00000001801a0820 f   c55_six_plus_six_AcmsteeringV09_main_2lflm.obj
 0001:0019f870       sf_opaque_enable_c55_six_plus_six_AcmsteeringV09_main_2lflm 00000001801a0870 f   c55_six_plus_six_AcmsteeringV09_main_2lflm.obj
 0001:0019f890       enable_c55_six_plus_six_AcmsteeringV09_main_2lflm 00000001801a0890 f   c55_six_plus_six_AcmsteeringV09_main_2lflm.obj
 0001:0019f8c0       sf_opaque_disable_c55_six_plus_six_AcmsteeringV09_main_2lflm 00000001801a08c0 f   c55_six_plus_six_AcmsteeringV09_main_2lflm.obj
 0001:0019f8e0       disable_c55_six_plus_six_AcmsteeringV09_main_2lflm 00000001801a08e0 f   c55_six_plus_six_AcmsteeringV09_main_2lflm.obj
 0001:0019f910       sf_opaque_gateway_c55_six_plus_six_AcmsteeringV09_main_2lflm 00000001801a0910 f   c55_six_plus_six_AcmsteeringV09_main_2lflm.obj
 0001:0019f930       sf_gateway_c55_six_plus_six_AcmsteeringV09_main_2lflm 00000001801a0930 f   c55_six_plus_six_AcmsteeringV09_main_2lflm.obj
 0001:001a0050       c55_b_sf_marshallOut       00000001801a1050 f   c55_six_plus_six_AcmsteeringV09_main_2lflm.obj
 0001:001a0100       c55_b_sf_marshallIn        00000001801a1100 f   c55_six_plus_six_AcmsteeringV09_main_2lflm.obj
 0001:001a01a0       c55_c_emlrt_marshallIn     00000001801a11a0 f   c55_six_plus_six_AcmsteeringV09_main_2lflm.obj
 0001:001a0230       sf_opaque_get_sim_state_c55_six_plus_six_AcmsteeringV09_main_2lflm 00000001801a1230 f   c55_six_plus_six_AcmsteeringV09_main_2lflm.obj
 0001:001a0250       sf_opaque_set_sim_state_c55_six_plus_six_AcmsteeringV09_main_2lflm 00000001801a1250 f   c55_six_plus_six_AcmsteeringV09_main_2lflm.obj
 0001:001a0280       sf_opaque_terminate_c55_six_plus_six_AcmsteeringV09_main_2lflm 00000001801a1280 f   c55_six_plus_six_AcmsteeringV09_main_2lflm.obj
 0001:001a0320       finalize_c55_six_plus_six_AcmsteeringV09_main_2lflm 00000001801a1320 f   c55_six_plus_six_AcmsteeringV09_main_2lflm.obj
 0001:001a0330       sf_opaque_init_subchart_simstructs 00000001801a1330 f   c55_six_plus_six_AcmsteeringV09_main_2lflm.obj
 0001:001a0350       initSimStructsc55_six_plus_six_AcmsteeringV09_main_2lflm 00000001801a1350 f   c55_six_plus_six_AcmsteeringV09_main_2lflm.obj
 0001:001a0360       mdlRTW_c55_six_plus_six_AcmsteeringV09_main_2lflm 00000001801a1360 f   c55_six_plus_six_AcmsteeringV09_main_2lflm.obj
 0001:001a0a20       get_sim_state_c56_six_plus_six_AcmsteeringV09_main_2lflm 00000001801a1a20 f   c56_six_plus_six_AcmsteeringV09_main_2lflm.obj
 0001:001a0bc0       sf_get_sim_state_info_c56_six_plus_six_AcmsteeringV09_main_2lflm 00000001801a1bc0 f   c56_six_plus_six_AcmsteeringV09_main_2lflm.obj
 0001:001a0d90       set_sim_state_c56_six_plus_six_AcmsteeringV09_main_2lflm 00000001801a1d90 f   c56_six_plus_six_AcmsteeringV09_main_2lflm.obj
 0001:001a0e70       c56_update_debugger_state_c56_six_plus_six_AcmsteeringV09_main_2 00000001801a1e70 f   c56_six_plus_six_AcmsteeringV09_main_2lflm.obj
 0001:001a0e80       c56_emlrt_marshallIn       00000001801a1e80 f   c56_six_plus_six_AcmsteeringV09_main_2lflm.obj
 0001:001a0ef0       c56_b_emlrt_marshallIn     00000001801a1ef0 f   c56_six_plus_six_AcmsteeringV09_main_2lflm.obj
 0001:001a0f80       c56_e_emlrt_marshallIn     00000001801a1f80 f   c56_six_plus_six_AcmsteeringV09_main_2lflm.obj
 0001:001a0fe0       c56_f_emlrt_marshallIn     00000001801a1fe0 f   c56_six_plus_six_AcmsteeringV09_main_2lflm.obj
 0001:001a10e0       mdlProcessParameters_c56_six_plus_six_AcmsteeringV09_main_2lflm 00000001801a20e0 f   c56_six_plus_six_AcmsteeringV09_main_2lflm.obj
 0001:001a11c0       initialize_params_c56_six_plus_six_AcmsteeringV09_main_2lflm 00000001801a21c0 f   c56_six_plus_six_AcmsteeringV09_main_2lflm.obj
 0001:001a11d0       mdlSetWorkWidths_c56_six_plus_six_AcmsteeringV09_main_2lflm 00000001801a21d0 f   c56_six_plus_six_AcmsteeringV09_main_2lflm.obj
 0001:001a16a0       sf_get_instance_specialization 00000001801a26a0 f   c56_six_plus_six_AcmsteeringV09_main_2lflm.obj
 0001:001a16b0       mdlStart_c56_six_plus_six_AcmsteeringV09_main_2lflm 00000001801a26b0 f   c56_six_plus_six_AcmsteeringV09_main_2lflm.obj
 0001:001a18e0       init_dsm_address_info      00000001801a28e0 f   c56_six_plus_six_AcmsteeringV09_main_2lflm.obj
 0001:001a18f0       chart_debug_initialization 00000001801a28f0 f   c56_six_plus_six_AcmsteeringV09_main_2lflm.obj
 0001:001a20a0       init_script_number_translation 00000001801a30a0 f   c56_six_plus_six_AcmsteeringV09_main_2lflm.obj
 0001:001a20c0       c56_sf_marshallOut         00000001801a30c0 f   c56_six_plus_six_AcmsteeringV09_main_2lflm.obj
 0001:001a2180       c56_sf_marshallIn          00000001801a3180 f   c56_six_plus_six_AcmsteeringV09_main_2lflm.obj
 0001:001a2220       sf_opaque_initialize_c56_six_plus_six_AcmsteeringV09_main_2lflm 00000001801a3220 f   c56_six_plus_six_AcmsteeringV09_main_2lflm.obj
 0001:001a2260       initialize_c56_six_plus_six_AcmsteeringV09_main_2lflm 00000001801a3260 f   c56_six_plus_six_AcmsteeringV09_main_2lflm.obj
 0001:001a22b0       sf_opaque_enable_c56_six_plus_six_AcmsteeringV09_main_2lflm 00000001801a32b0 f   c56_six_plus_six_AcmsteeringV09_main_2lflm.obj
 0001:001a22d0       enable_c56_six_plus_six_AcmsteeringV09_main_2lflm 00000001801a32d0 f   c56_six_plus_six_AcmsteeringV09_main_2lflm.obj
 0001:001a2300       sf_opaque_disable_c56_six_plus_six_AcmsteeringV09_main_2lflm 00000001801a3300 f   c56_six_plus_six_AcmsteeringV09_main_2lflm.obj
 0001:001a2320       disable_c56_six_plus_six_AcmsteeringV09_main_2lflm 00000001801a3320 f   c56_six_plus_six_AcmsteeringV09_main_2lflm.obj
 0001:001a2350       sf_opaque_gateway_c56_six_plus_six_AcmsteeringV09_main_2lflm 00000001801a3350 f   c56_six_plus_six_AcmsteeringV09_main_2lflm.obj
 0001:001a2370       sf_gateway_c56_six_plus_six_AcmsteeringV09_main_2lflm 00000001801a3370 f   c56_six_plus_six_AcmsteeringV09_main_2lflm.obj
 0001:001a2a90       c56_b_sf_marshallOut       00000001801a3a90 f   c56_six_plus_six_AcmsteeringV09_main_2lflm.obj
 0001:001a2b40       c56_b_sf_marshallIn        00000001801a3b40 f   c56_six_plus_six_AcmsteeringV09_main_2lflm.obj
 0001:001a2be0       c56_c_emlrt_marshallIn     00000001801a3be0 f   c56_six_plus_six_AcmsteeringV09_main_2lflm.obj
 0001:001a2c70       sf_opaque_get_sim_state_c56_six_plus_six_AcmsteeringV09_main_2lflm 00000001801a3c70 f   c56_six_plus_six_AcmsteeringV09_main_2lflm.obj
 0001:001a2c90       sf_opaque_set_sim_state_c56_six_plus_six_AcmsteeringV09_main_2lflm 00000001801a3c90 f   c56_six_plus_six_AcmsteeringV09_main_2lflm.obj
 0001:001a2cc0       sf_opaque_terminate_c56_six_plus_six_AcmsteeringV09_main_2lflm 00000001801a3cc0 f   c56_six_plus_six_AcmsteeringV09_main_2lflm.obj
 0001:001a2d60       finalize_c56_six_plus_six_AcmsteeringV09_main_2lflm 00000001801a3d60 f   c56_six_plus_six_AcmsteeringV09_main_2lflm.obj
 0001:001a2d70       sf_opaque_init_subchart_simstructs 00000001801a3d70 f   c56_six_plus_six_AcmsteeringV09_main_2lflm.obj
 0001:001a2d90       initSimStructsc56_six_plus_six_AcmsteeringV09_main_2lflm 00000001801a3d90 f   c56_six_plus_six_AcmsteeringV09_main_2lflm.obj
 0001:001a2da0       mdlRTW_c56_six_plus_six_AcmsteeringV09_main_2lflm 00000001801a3da0 f   c56_six_plus_six_AcmsteeringV09_main_2lflm.obj
 0001:001a3460       get_sim_state_c57_six_plus_six_AcmsteeringV09_main_2lflm 00000001801a4460 f   c57_six_plus_six_AcmsteeringV09_main_2lflm.obj
 0001:001a3600       sf_get_sim_state_info_c57_six_plus_six_AcmsteeringV09_main_2lflm 00000001801a4600 f   c57_six_plus_six_AcmsteeringV09_main_2lflm.obj
 0001:001a37d0       set_sim_state_c57_six_plus_six_AcmsteeringV09_main_2lflm 00000001801a47d0 f   c57_six_plus_six_AcmsteeringV09_main_2lflm.obj
 0001:001a38b0       c57_update_debugger_state_c57_six_plus_six_AcmsteeringV09_main_2 00000001801a48b0 f   c57_six_plus_six_AcmsteeringV09_main_2lflm.obj
 0001:001a38c0       c57_emlrt_marshallIn       00000001801a48c0 f   c57_six_plus_six_AcmsteeringV09_main_2lflm.obj
 0001:001a3930       c57_b_emlrt_marshallIn     00000001801a4930 f   c57_six_plus_six_AcmsteeringV09_main_2lflm.obj
 0001:001a39c0       c57_e_emlrt_marshallIn     00000001801a49c0 f   c57_six_plus_six_AcmsteeringV09_main_2lflm.obj
 0001:001a3a20       c57_f_emlrt_marshallIn     00000001801a4a20 f   c57_six_plus_six_AcmsteeringV09_main_2lflm.obj
 0001:001a3b20       mdlProcessParameters_c57_six_plus_six_AcmsteeringV09_main_2lflm 00000001801a4b20 f   c57_six_plus_six_AcmsteeringV09_main_2lflm.obj
 0001:001a3c00       initialize_params_c57_six_plus_six_AcmsteeringV09_main_2lflm 00000001801a4c00 f   c57_six_plus_six_AcmsteeringV09_main_2lflm.obj
 0001:001a3c10       mdlSetWorkWidths_c57_six_plus_six_AcmsteeringV09_main_2lflm 00000001801a4c10 f   c57_six_plus_six_AcmsteeringV09_main_2lflm.obj
 0001:001a40e0       sf_get_instance_specialization 00000001801a50e0 f   c57_six_plus_six_AcmsteeringV09_main_2lflm.obj
 0001:001a40f0       mdlStart_c57_six_plus_six_AcmsteeringV09_main_2lflm 00000001801a50f0 f   c57_six_plus_six_AcmsteeringV09_main_2lflm.obj
 0001:001a4320       init_dsm_address_info      00000001801a5320 f   c57_six_plus_six_AcmsteeringV09_main_2lflm.obj
 0001:001a4330       chart_debug_initialization 00000001801a5330 f   c57_six_plus_six_AcmsteeringV09_main_2lflm.obj
 0001:001a4ae0       init_script_number_translation 00000001801a5ae0 f   c57_six_plus_six_AcmsteeringV09_main_2lflm.obj
 0001:001a4b00       c57_sf_marshallOut         00000001801a5b00 f   c57_six_plus_six_AcmsteeringV09_main_2lflm.obj
 0001:001a4bc0       c57_sf_marshallIn          00000001801a5bc0 f   c57_six_plus_six_AcmsteeringV09_main_2lflm.obj
 0001:001a4c60       sf_opaque_initialize_c57_six_plus_six_AcmsteeringV09_main_2lflm 00000001801a5c60 f   c57_six_plus_six_AcmsteeringV09_main_2lflm.obj
 0001:001a4ca0       initialize_c57_six_plus_six_AcmsteeringV09_main_2lflm 00000001801a5ca0 f   c57_six_plus_six_AcmsteeringV09_main_2lflm.obj
 0001:001a4cf0       sf_opaque_enable_c57_six_plus_six_AcmsteeringV09_main_2lflm 00000001801a5cf0 f   c57_six_plus_six_AcmsteeringV09_main_2lflm.obj
 0001:001a4d10       enable_c57_six_plus_six_AcmsteeringV09_main_2lflm 00000001801a5d10 f   c57_six_plus_six_AcmsteeringV09_main_2lflm.obj
 0001:001a4d40       sf_opaque_disable_c57_six_plus_six_AcmsteeringV09_main_2lflm 00000001801a5d40 f   c57_six_plus_six_AcmsteeringV09_main_2lflm.obj
 0001:001a4d60       disable_c57_six_plus_six_AcmsteeringV09_main_2lflm 00000001801a5d60 f   c57_six_plus_six_AcmsteeringV09_main_2lflm.obj
 0001:001a4d90       sf_opaque_gateway_c57_six_plus_six_AcmsteeringV09_main_2lflm 00000001801a5d90 f   c57_six_plus_six_AcmsteeringV09_main_2lflm.obj
 0001:001a4db0       sf_gateway_c57_six_plus_six_AcmsteeringV09_main_2lflm 00000001801a5db0 f   c57_six_plus_six_AcmsteeringV09_main_2lflm.obj
 0001:001a54d0       c57_b_sf_marshallOut       00000001801a64d0 f   c57_six_plus_six_AcmsteeringV09_main_2lflm.obj
 0001:001a5580       c57_b_sf_marshallIn        00000001801a6580 f   c57_six_plus_six_AcmsteeringV09_main_2lflm.obj
 0001:001a5620       c57_c_emlrt_marshallIn     00000001801a6620 f   c57_six_plus_six_AcmsteeringV09_main_2lflm.obj
 0001:001a56b0       sf_opaque_get_sim_state_c57_six_plus_six_AcmsteeringV09_main_2lflm 00000001801a66b0 f   c57_six_plus_six_AcmsteeringV09_main_2lflm.obj
 0001:001a56d0       sf_opaque_set_sim_state_c57_six_plus_six_AcmsteeringV09_main_2lflm 00000001801a66d0 f   c57_six_plus_six_AcmsteeringV09_main_2lflm.obj
 0001:001a5700       sf_opaque_terminate_c57_six_plus_six_AcmsteeringV09_main_2lflm 00000001801a6700 f   c57_six_plus_six_AcmsteeringV09_main_2lflm.obj
 0001:001a57a0       finalize_c57_six_plus_six_AcmsteeringV09_main_2lflm 00000001801a67a0 f   c57_six_plus_six_AcmsteeringV09_main_2lflm.obj
 0001:001a57b0       sf_opaque_init_subchart_simstructs 00000001801a67b0 f   c57_six_plus_six_AcmsteeringV09_main_2lflm.obj
 0001:001a57d0       initSimStructsc57_six_plus_six_AcmsteeringV09_main_2lflm 00000001801a67d0 f   c57_six_plus_six_AcmsteeringV09_main_2lflm.obj
 0001:001a57e0       mdlRTW_c57_six_plus_six_AcmsteeringV09_main_2lflm 00000001801a67e0 f   c57_six_plus_six_AcmsteeringV09_main_2lflm.obj
 0001:001a5ea0       get_sim_state_c58_six_plus_six_AcmsteeringV09_main_2lflm 00000001801a6ea0 f   c58_six_plus_six_AcmsteeringV09_main_2lflm.obj
 0001:001a6040       sf_get_sim_state_info_c58_six_plus_six_AcmsteeringV09_main_2lflm 00000001801a7040 f   c58_six_plus_six_AcmsteeringV09_main_2lflm.obj
 0001:001a6210       set_sim_state_c58_six_plus_six_AcmsteeringV09_main_2lflm 00000001801a7210 f   c58_six_plus_six_AcmsteeringV09_main_2lflm.obj
 0001:001a62f0       c58_update_debugger_state_c58_six_plus_six_AcmsteeringV09_main_2 00000001801a72f0 f   c58_six_plus_six_AcmsteeringV09_main_2lflm.obj
 0001:001a6300       c58_emlrt_marshallIn       00000001801a7300 f   c58_six_plus_six_AcmsteeringV09_main_2lflm.obj
 0001:001a6370       c58_b_emlrt_marshallIn     00000001801a7370 f   c58_six_plus_six_AcmsteeringV09_main_2lflm.obj
 0001:001a6400       c58_e_emlrt_marshallIn     00000001801a7400 f   c58_six_plus_six_AcmsteeringV09_main_2lflm.obj
 0001:001a6460       c58_f_emlrt_marshallIn     00000001801a7460 f   c58_six_plus_six_AcmsteeringV09_main_2lflm.obj
 0001:001a6560       mdlProcessParameters_c58_six_plus_six_AcmsteeringV09_main_2lflm 00000001801a7560 f   c58_six_plus_six_AcmsteeringV09_main_2lflm.obj
 0001:001a6640       initialize_params_c58_six_plus_six_AcmsteeringV09_main_2lflm 00000001801a7640 f   c58_six_plus_six_AcmsteeringV09_main_2lflm.obj
 0001:001a6650       mdlSetWorkWidths_c58_six_plus_six_AcmsteeringV09_main_2lflm 00000001801a7650 f   c58_six_plus_six_AcmsteeringV09_main_2lflm.obj
 0001:001a6b20       sf_get_instance_specialization 00000001801a7b20 f   c58_six_plus_six_AcmsteeringV09_main_2lflm.obj
 0001:001a6b30       mdlStart_c58_six_plus_six_AcmsteeringV09_main_2lflm 00000001801a7b30 f   c58_six_plus_six_AcmsteeringV09_main_2lflm.obj
 0001:001a6d60       init_dsm_address_info      00000001801a7d60 f   c58_six_plus_six_AcmsteeringV09_main_2lflm.obj
 0001:001a6d70       chart_debug_initialization 00000001801a7d70 f   c58_six_plus_six_AcmsteeringV09_main_2lflm.obj
 0001:001a7520       init_script_number_translation 00000001801a8520 f   c58_six_plus_six_AcmsteeringV09_main_2lflm.obj
 0001:001a7540       c58_sf_marshallOut         00000001801a8540 f   c58_six_plus_six_AcmsteeringV09_main_2lflm.obj
 0001:001a7600       c58_sf_marshallIn          00000001801a8600 f   c58_six_plus_six_AcmsteeringV09_main_2lflm.obj
 0001:001a76a0       sf_opaque_initialize_c58_six_plus_six_AcmsteeringV09_main_2lflm 00000001801a86a0 f   c58_six_plus_six_AcmsteeringV09_main_2lflm.obj
 0001:001a76e0       initialize_c58_six_plus_six_AcmsteeringV09_main_2lflm 00000001801a86e0 f   c58_six_plus_six_AcmsteeringV09_main_2lflm.obj
 0001:001a7730       sf_opaque_enable_c58_six_plus_six_AcmsteeringV09_main_2lflm 00000001801a8730 f   c58_six_plus_six_AcmsteeringV09_main_2lflm.obj
 0001:001a7750       enable_c58_six_plus_six_AcmsteeringV09_main_2lflm 00000001801a8750 f   c58_six_plus_six_AcmsteeringV09_main_2lflm.obj
 0001:001a7780       sf_opaque_disable_c58_six_plus_six_AcmsteeringV09_main_2lflm 00000001801a8780 f   c58_six_plus_six_AcmsteeringV09_main_2lflm.obj
 0001:001a77a0       disable_c58_six_plus_six_AcmsteeringV09_main_2lflm 00000001801a87a0 f   c58_six_plus_six_AcmsteeringV09_main_2lflm.obj
 0001:001a77d0       sf_opaque_gateway_c58_six_plus_six_AcmsteeringV09_main_2lflm 00000001801a87d0 f   c58_six_plus_six_AcmsteeringV09_main_2lflm.obj
 0001:001a77f0       sf_gateway_c58_six_plus_six_AcmsteeringV09_main_2lflm 00000001801a87f0 f   c58_six_plus_six_AcmsteeringV09_main_2lflm.obj
 0001:001a7f00       c58_b_sf_marshallOut       00000001801a8f00 f   c58_six_plus_six_AcmsteeringV09_main_2lflm.obj
 0001:001a7fb0       c58_b_sf_marshallIn        00000001801a8fb0 f   c58_six_plus_six_AcmsteeringV09_main_2lflm.obj
 0001:001a8050       c58_c_emlrt_marshallIn     00000001801a9050 f   c58_six_plus_six_AcmsteeringV09_main_2lflm.obj
 0001:001a80e0       sf_opaque_get_sim_state_c58_six_plus_six_AcmsteeringV09_main_2lflm 00000001801a90e0 f   c58_six_plus_six_AcmsteeringV09_main_2lflm.obj
 0001:001a8100       sf_opaque_set_sim_state_c58_six_plus_six_AcmsteeringV09_main_2lflm 00000001801a9100 f   c58_six_plus_six_AcmsteeringV09_main_2lflm.obj
 0001:001a8130       sf_opaque_terminate_c58_six_plus_six_AcmsteeringV09_main_2lflm 00000001801a9130 f   c58_six_plus_six_AcmsteeringV09_main_2lflm.obj
 0001:001a81d0       finalize_c58_six_plus_six_AcmsteeringV09_main_2lflm 00000001801a91d0 f   c58_six_plus_six_AcmsteeringV09_main_2lflm.obj
 0001:001a81e0       sf_opaque_init_subchart_simstructs 00000001801a91e0 f   c58_six_plus_six_AcmsteeringV09_main_2lflm.obj
 0001:001a8200       initSimStructsc58_six_plus_six_AcmsteeringV09_main_2lflm 00000001801a9200 f   c58_six_plus_six_AcmsteeringV09_main_2lflm.obj
 0001:001a8210       mdlRTW_c58_six_plus_six_AcmsteeringV09_main_2lflm 00000001801a9210 f   c58_six_plus_six_AcmsteeringV09_main_2lflm.obj
 0001:001a88d0       get_sim_state_c59_six_plus_six_AcmsteeringV09_main_2lflm 00000001801a98d0 f   c59_six_plus_six_AcmsteeringV09_main_2lflm.obj
 0001:001a8a70       sf_get_sim_state_info_c59_six_plus_six_AcmsteeringV09_main_2lflm 00000001801a9a70 f   c59_six_plus_six_AcmsteeringV09_main_2lflm.obj
 0001:001a8c40       set_sim_state_c59_six_plus_six_AcmsteeringV09_main_2lflm 00000001801a9c40 f   c59_six_plus_six_AcmsteeringV09_main_2lflm.obj
 0001:001a8d20       c59_update_debugger_state_c59_six_plus_six_AcmsteeringV09_main_2 00000001801a9d20 f   c59_six_plus_six_AcmsteeringV09_main_2lflm.obj
 0001:001a8d30       c59_emlrt_marshallIn       00000001801a9d30 f   c59_six_plus_six_AcmsteeringV09_main_2lflm.obj
 0001:001a8da0       c59_b_emlrt_marshallIn     00000001801a9da0 f   c59_six_plus_six_AcmsteeringV09_main_2lflm.obj
 0001:001a8e30       c59_e_emlrt_marshallIn     00000001801a9e30 f   c59_six_plus_six_AcmsteeringV09_main_2lflm.obj
 0001:001a8e90       c59_f_emlrt_marshallIn     00000001801a9e90 f   c59_six_plus_six_AcmsteeringV09_main_2lflm.obj
 0001:001a8f90       mdlProcessParameters_c59_six_plus_six_AcmsteeringV09_main_2lflm 00000001801a9f90 f   c59_six_plus_six_AcmsteeringV09_main_2lflm.obj
 0001:001a9070       initialize_params_c59_six_plus_six_AcmsteeringV09_main_2lflm 00000001801aa070 f   c59_six_plus_six_AcmsteeringV09_main_2lflm.obj
 0001:001a9080       mdlSetWorkWidths_c59_six_plus_six_AcmsteeringV09_main_2lflm 00000001801aa080 f   c59_six_plus_six_AcmsteeringV09_main_2lflm.obj
 0001:001a9550       sf_get_instance_specialization 00000001801aa550 f   c59_six_plus_six_AcmsteeringV09_main_2lflm.obj
 0001:001a9560       mdlStart_c59_six_plus_six_AcmsteeringV09_main_2lflm 00000001801aa560 f   c59_six_plus_six_AcmsteeringV09_main_2lflm.obj
 0001:001a9790       init_dsm_address_info      00000001801aa790 f   c59_six_plus_six_AcmsteeringV09_main_2lflm.obj
 0001:001a97a0       chart_debug_initialization 00000001801aa7a0 f   c59_six_plus_six_AcmsteeringV09_main_2lflm.obj
 0001:001a9f50       init_script_number_translation 00000001801aaf50 f   c59_six_plus_six_AcmsteeringV09_main_2lflm.obj
 0001:001a9f70       c59_sf_marshallOut         00000001801aaf70 f   c59_six_plus_six_AcmsteeringV09_main_2lflm.obj
 0001:001aa030       c59_sf_marshallIn          00000001801ab030 f   c59_six_plus_six_AcmsteeringV09_main_2lflm.obj
 0001:001aa0d0       sf_opaque_initialize_c59_six_plus_six_AcmsteeringV09_main_2lflm 00000001801ab0d0 f   c59_six_plus_six_AcmsteeringV09_main_2lflm.obj
 0001:001aa110       initialize_c59_six_plus_six_AcmsteeringV09_main_2lflm 00000001801ab110 f   c59_six_plus_six_AcmsteeringV09_main_2lflm.obj
 0001:001aa160       sf_opaque_enable_c59_six_plus_six_AcmsteeringV09_main_2lflm 00000001801ab160 f   c59_six_plus_six_AcmsteeringV09_main_2lflm.obj
 0001:001aa180       enable_c59_six_plus_six_AcmsteeringV09_main_2lflm 00000001801ab180 f   c59_six_plus_six_AcmsteeringV09_main_2lflm.obj
 0001:001aa1b0       sf_opaque_disable_c59_six_plus_six_AcmsteeringV09_main_2lflm 00000001801ab1b0 f   c59_six_plus_six_AcmsteeringV09_main_2lflm.obj
 0001:001aa1d0       disable_c59_six_plus_six_AcmsteeringV09_main_2lflm 00000001801ab1d0 f   c59_six_plus_six_AcmsteeringV09_main_2lflm.obj
 0001:001aa200       sf_opaque_gateway_c59_six_plus_six_AcmsteeringV09_main_2lflm 00000001801ab200 f   c59_six_plus_six_AcmsteeringV09_main_2lflm.obj
 0001:001aa220       sf_gateway_c59_six_plus_six_AcmsteeringV09_main_2lflm 00000001801ab220 f   c59_six_plus_six_AcmsteeringV09_main_2lflm.obj
 0001:001aa940       c59_b_sf_marshallOut       00000001801ab940 f   c59_six_plus_six_AcmsteeringV09_main_2lflm.obj
 0001:001aa9f0       c59_b_sf_marshallIn        00000001801ab9f0 f   c59_six_plus_six_AcmsteeringV09_main_2lflm.obj
 0001:001aaa90       c59_c_emlrt_marshallIn     00000001801aba90 f   c59_six_plus_six_AcmsteeringV09_main_2lflm.obj
 0001:001aab20       sf_opaque_get_sim_state_c59_six_plus_six_AcmsteeringV09_main_2lflm 00000001801abb20 f   c59_six_plus_six_AcmsteeringV09_main_2lflm.obj
 0001:001aab40       sf_opaque_set_sim_state_c59_six_plus_six_AcmsteeringV09_main_2lflm 00000001801abb40 f   c59_six_plus_six_AcmsteeringV09_main_2lflm.obj
 0001:001aab70       sf_opaque_terminate_c59_six_plus_six_AcmsteeringV09_main_2lflm 00000001801abb70 f   c59_six_plus_six_AcmsteeringV09_main_2lflm.obj
 0001:001aac10       finalize_c59_six_plus_six_AcmsteeringV09_main_2lflm 00000001801abc10 f   c59_six_plus_six_AcmsteeringV09_main_2lflm.obj
 0001:001aac20       sf_opaque_init_subchart_simstructs 00000001801abc20 f   c59_six_plus_six_AcmsteeringV09_main_2lflm.obj
 0001:001aac40       initSimStructsc59_six_plus_six_AcmsteeringV09_main_2lflm 00000001801abc40 f   c59_six_plus_six_AcmsteeringV09_main_2lflm.obj
 0001:001aac50       mdlRTW_c59_six_plus_six_AcmsteeringV09_main_2lflm 00000001801abc50 f   c59_six_plus_six_AcmsteeringV09_main_2lflm.obj
 0001:001ab310       get_sim_state_c60_six_plus_six_AcmsteeringV09_main_2lflm 00000001801ac310 f   c60_six_plus_six_AcmsteeringV09_main_2lflm.obj
 0001:001ab4c0       sf_get_sim_state_info_c60_six_plus_six_AcmsteeringV09_main_2lflm 00000001801ac4c0 f   c60_six_plus_six_AcmsteeringV09_main_2lflm.obj
 0001:001ab690       set_sim_state_c60_six_plus_six_AcmsteeringV09_main_2lflm 00000001801ac690 f   c60_six_plus_six_AcmsteeringV09_main_2lflm.obj
 0001:001ab770       c60_update_debugger_state_c60_six_plus_six_AcmsteeringV09_main_2 00000001801ac770 f   c60_six_plus_six_AcmsteeringV09_main_2lflm.obj
 0001:001ab780       c60_emlrt_marshallIn       00000001801ac780 f   c60_six_plus_six_AcmsteeringV09_main_2lflm.obj
 0001:001ab7f0       c60_b_emlrt_marshallIn     00000001801ac7f0 f   c60_six_plus_six_AcmsteeringV09_main_2lflm.obj
 0001:001ab880       c60_d_emlrt_marshallIn     00000001801ac880 f   c60_six_plus_six_AcmsteeringV09_main_2lflm.obj
 0001:001ab8e0       c60_e_emlrt_marshallIn     00000001801ac8e0 f   c60_six_plus_six_AcmsteeringV09_main_2lflm.obj
 0001:001ab9e0       mdlProcessParameters_c60_six_plus_six_AcmsteeringV09_main_2lflm 00000001801ac9e0 f   c60_six_plus_six_AcmsteeringV09_main_2lflm.obj
 0001:001abac0       initialize_params_c60_six_plus_six_AcmsteeringV09_main_2lflm 00000001801acac0 f   c60_six_plus_six_AcmsteeringV09_main_2lflm.obj
 0001:001abad0       mdlSetWorkWidths_c60_six_plus_six_AcmsteeringV09_main_2lflm 00000001801acad0 f   c60_six_plus_six_AcmsteeringV09_main_2lflm.obj
 0001:001abfa0       sf_get_instance_specialization 00000001801acfa0 f   c60_six_plus_six_AcmsteeringV09_main_2lflm.obj
 0001:001abfb0       mdlStart_c60_six_plus_six_AcmsteeringV09_main_2lflm 00000001801acfb0 f   c60_six_plus_six_AcmsteeringV09_main_2lflm.obj
 0001:001ac1e0       init_dsm_address_info      00000001801ad1e0 f   c60_six_plus_six_AcmsteeringV09_main_2lflm.obj
 0001:001ac1f0       chart_debug_initialization 00000001801ad1f0 f   c60_six_plus_six_AcmsteeringV09_main_2lflm.obj
 0001:001ac9a0       init_script_number_translation 00000001801ad9a0 f   c60_six_plus_six_AcmsteeringV09_main_2lflm.obj
 0001:001ac9c0       c60_sf_marshallOut         00000001801ad9c0 f   c60_six_plus_six_AcmsteeringV09_main_2lflm.obj
 0001:001aca70       c60_sf_marshallIn          00000001801ada70 f   c60_six_plus_six_AcmsteeringV09_main_2lflm.obj
 0001:001acb10       sf_opaque_initialize_c60_six_plus_six_AcmsteeringV09_main_2lflm 00000001801adb10 f   c60_six_plus_six_AcmsteeringV09_main_2lflm.obj
 0001:001acb50       initialize_c60_six_plus_six_AcmsteeringV09_main_2lflm 00000001801adb50 f   c60_six_plus_six_AcmsteeringV09_main_2lflm.obj
 0001:001acba0       sf_opaque_enable_c60_six_plus_six_AcmsteeringV09_main_2lflm 00000001801adba0 f   c60_six_plus_six_AcmsteeringV09_main_2lflm.obj
 0001:001acbc0       enable_c60_six_plus_six_AcmsteeringV09_main_2lflm 00000001801adbc0 f   c60_six_plus_six_AcmsteeringV09_main_2lflm.obj
 0001:001acbf0       sf_opaque_disable_c60_six_plus_six_AcmsteeringV09_main_2lflm 00000001801adbf0 f   c60_six_plus_six_AcmsteeringV09_main_2lflm.obj
 0001:001acc10       disable_c60_six_plus_six_AcmsteeringV09_main_2lflm 00000001801adc10 f   c60_six_plus_six_AcmsteeringV09_main_2lflm.obj
 0001:001acc40       sf_opaque_gateway_c60_six_plus_six_AcmsteeringV09_main_2lflm 00000001801adc40 f   c60_six_plus_six_AcmsteeringV09_main_2lflm.obj
 0001:001acc60       sf_gateway_c60_six_plus_six_AcmsteeringV09_main_2lflm 00000001801adc60 f   c60_six_plus_six_AcmsteeringV09_main_2lflm.obj
 0001:001ad390       sf_opaque_get_sim_state_c60_six_plus_six_AcmsteeringV09_main_2lflm 00000001801ae390 f   c60_six_plus_six_AcmsteeringV09_main_2lflm.obj
 0001:001ad3b0       sf_opaque_set_sim_state_c60_six_plus_six_AcmsteeringV09_main_2lflm 00000001801ae3b0 f   c60_six_plus_six_AcmsteeringV09_main_2lflm.obj
 0001:001ad3e0       sf_opaque_terminate_c60_six_plus_six_AcmsteeringV09_main_2lflm 00000001801ae3e0 f   c60_six_plus_six_AcmsteeringV09_main_2lflm.obj
 0001:001ad480       finalize_c60_six_plus_six_AcmsteeringV09_main_2lflm 00000001801ae480 f   c60_six_plus_six_AcmsteeringV09_main_2lflm.obj
 0001:001ad490       sf_opaque_init_subchart_simstructs 00000001801ae490 f   c60_six_plus_six_AcmsteeringV09_main_2lflm.obj
 0001:001ad4b0       initSimStructsc60_six_plus_six_AcmsteeringV09_main_2lflm 00000001801ae4b0 f   c60_six_plus_six_AcmsteeringV09_main_2lflm.obj
 0001:001ad4c0       mdlRTW_c60_six_plus_six_AcmsteeringV09_main_2lflm 00000001801ae4c0 f   c60_six_plus_six_AcmsteeringV09_main_2lflm.obj
 0001:001adb80       get_sim_state_c61_six_plus_six_AcmsteeringV09_main_2lflm 00000001801aeb80 f   c61_six_plus_six_AcmsteeringV09_main_2lflm.obj
 0001:001add20       sf_get_sim_state_info_c61_six_plus_six_AcmsteeringV09_main_2lflm 00000001801aed20 f   c61_six_plus_six_AcmsteeringV09_main_2lflm.obj
 0001:001adef0       set_sim_state_c61_six_plus_six_AcmsteeringV09_main_2lflm 00000001801aeef0 f   c61_six_plus_six_AcmsteeringV09_main_2lflm.obj
 0001:001adfd0       c61_update_debugger_state_c61_six_plus_six_AcmsteeringV09_main_2 00000001801aefd0 f   c61_six_plus_six_AcmsteeringV09_main_2lflm.obj
 0001:001adfe0       c61_emlrt_marshallIn       00000001801aefe0 f   c61_six_plus_six_AcmsteeringV09_main_2lflm.obj
 0001:001ae050       c61_b_emlrt_marshallIn     00000001801af050 f   c61_six_plus_six_AcmsteeringV09_main_2lflm.obj
 0001:001ae0e0       c61_e_emlrt_marshallIn     00000001801af0e0 f   c61_six_plus_six_AcmsteeringV09_main_2lflm.obj
 0001:001ae140       c61_f_emlrt_marshallIn     00000001801af140 f   c61_six_plus_six_AcmsteeringV09_main_2lflm.obj
 0001:001ae240       mdlProcessParameters_c61_six_plus_six_AcmsteeringV09_main_2lflm 00000001801af240 f   c61_six_plus_six_AcmsteeringV09_main_2lflm.obj
 0001:001ae320       initialize_params_c61_six_plus_six_AcmsteeringV09_main_2lflm 00000001801af320 f   c61_six_plus_six_AcmsteeringV09_main_2lflm.obj
 0001:001ae330       mdlSetWorkWidths_c61_six_plus_six_AcmsteeringV09_main_2lflm 00000001801af330 f   c61_six_plus_six_AcmsteeringV09_main_2lflm.obj
 0001:001ae800       sf_get_instance_specialization 00000001801af800 f   c61_six_plus_six_AcmsteeringV09_main_2lflm.obj
 0001:001ae810       mdlStart_c61_six_plus_six_AcmsteeringV09_main_2lflm 00000001801af810 f   c61_six_plus_six_AcmsteeringV09_main_2lflm.obj
 0001:001aea40       init_dsm_address_info      00000001801afa40 f   c61_six_plus_six_AcmsteeringV09_main_2lflm.obj
 0001:001aea50       chart_debug_initialization 00000001801afa50 f   c61_six_plus_six_AcmsteeringV09_main_2lflm.obj
 0001:001af200       init_script_number_translation 00000001801b0200 f   c61_six_plus_six_AcmsteeringV09_main_2lflm.obj
 0001:001af220       c61_sf_marshallOut         00000001801b0220 f   c61_six_plus_six_AcmsteeringV09_main_2lflm.obj
 0001:001af2e0       c61_sf_marshallIn          00000001801b02e0 f   c61_six_plus_six_AcmsteeringV09_main_2lflm.obj
 0001:001af380       sf_opaque_initialize_c61_six_plus_six_AcmsteeringV09_main_2lflm 00000001801b0380 f   c61_six_plus_six_AcmsteeringV09_main_2lflm.obj
 0001:001af3c0       initialize_c61_six_plus_six_AcmsteeringV09_main_2lflm 00000001801b03c0 f   c61_six_plus_six_AcmsteeringV09_main_2lflm.obj
 0001:001af410       sf_opaque_enable_c61_six_plus_six_AcmsteeringV09_main_2lflm 00000001801b0410 f   c61_six_plus_six_AcmsteeringV09_main_2lflm.obj
 0001:001af430       enable_c61_six_plus_six_AcmsteeringV09_main_2lflm 00000001801b0430 f   c61_six_plus_six_AcmsteeringV09_main_2lflm.obj
 0001:001af460       sf_opaque_disable_c61_six_plus_six_AcmsteeringV09_main_2lflm 00000001801b0460 f   c61_six_plus_six_AcmsteeringV09_main_2lflm.obj
 0001:001af480       disable_c61_six_plus_six_AcmsteeringV09_main_2lflm 00000001801b0480 f   c61_six_plus_six_AcmsteeringV09_main_2lflm.obj
 0001:001af4b0       sf_opaque_gateway_c61_six_plus_six_AcmsteeringV09_main_2lflm 00000001801b04b0 f   c61_six_plus_six_AcmsteeringV09_main_2lflm.obj
 0001:001af4d0       sf_gateway_c61_six_plus_six_AcmsteeringV09_main_2lflm 00000001801b04d0 f   c61_six_plus_six_AcmsteeringV09_main_2lflm.obj
 0001:001afbe0       c61_b_sf_marshallOut       00000001801b0be0 f   c61_six_plus_six_AcmsteeringV09_main_2lflm.obj
 0001:001afc90       c61_b_sf_marshallIn        00000001801b0c90 f   c61_six_plus_six_AcmsteeringV09_main_2lflm.obj
 0001:001afd30       c61_c_emlrt_marshallIn     00000001801b0d30 f   c61_six_plus_six_AcmsteeringV09_main_2lflm.obj
 0001:001afdc0       sf_opaque_get_sim_state_c61_six_plus_six_AcmsteeringV09_main_2lflm 00000001801b0dc0 f   c61_six_plus_six_AcmsteeringV09_main_2lflm.obj
 0001:001afde0       sf_opaque_set_sim_state_c61_six_plus_six_AcmsteeringV09_main_2lflm 00000001801b0de0 f   c61_six_plus_six_AcmsteeringV09_main_2lflm.obj
 0001:001afe10       sf_opaque_terminate_c61_six_plus_six_AcmsteeringV09_main_2lflm 00000001801b0e10 f   c61_six_plus_six_AcmsteeringV09_main_2lflm.obj
 0001:001afeb0       finalize_c61_six_plus_six_AcmsteeringV09_main_2lflm 00000001801b0eb0 f   c61_six_plus_six_AcmsteeringV09_main_2lflm.obj
 0001:001afec0       sf_opaque_init_subchart_simstructs 00000001801b0ec0 f   c61_six_plus_six_AcmsteeringV09_main_2lflm.obj
 0001:001afee0       initSimStructsc61_six_plus_six_AcmsteeringV09_main_2lflm 00000001801b0ee0 f   c61_six_plus_six_AcmsteeringV09_main_2lflm.obj
 0001:001afef0       mdlRTW_c61_six_plus_six_AcmsteeringV09_main_2lflm 00000001801b0ef0 f   c61_six_plus_six_AcmsteeringV09_main_2lflm.obj
 0001:001b05b0       get_sim_state_c62_six_plus_six_AcmsteeringV09_main_2lflm 00000001801b15b0 f   c62_six_plus_six_AcmsteeringV09_main_2lflm.obj
 0001:001b0760       sf_get_sim_state_info_c62_six_plus_six_AcmsteeringV09_main_2lflm 00000001801b1760 f   c62_six_plus_six_AcmsteeringV09_main_2lflm.obj
 0001:001b0930       set_sim_state_c62_six_plus_six_AcmsteeringV09_main_2lflm 00000001801b1930 f   c62_six_plus_six_AcmsteeringV09_main_2lflm.obj
 0001:001b0a10       c62_update_debugger_state_c62_six_plus_six_AcmsteeringV09_main_2 00000001801b1a10 f   c62_six_plus_six_AcmsteeringV09_main_2lflm.obj
 0001:001b0a20       c62_emlrt_marshallIn       00000001801b1a20 f   c62_six_plus_six_AcmsteeringV09_main_2lflm.obj
 0001:001b0a90       c62_b_emlrt_marshallIn     00000001801b1a90 f   c62_six_plus_six_AcmsteeringV09_main_2lflm.obj
 0001:001b0b20       c62_d_emlrt_marshallIn     00000001801b1b20 f   c62_six_plus_six_AcmsteeringV09_main_2lflm.obj
 0001:001b0b80       c62_e_emlrt_marshallIn     00000001801b1b80 f   c62_six_plus_six_AcmsteeringV09_main_2lflm.obj
 0001:001b0c80       mdlProcessParameters_c62_six_plus_six_AcmsteeringV09_main_2lflm 00000001801b1c80 f   c62_six_plus_six_AcmsteeringV09_main_2lflm.obj
 0001:001b0d60       initialize_params_c62_six_plus_six_AcmsteeringV09_main_2lflm 00000001801b1d60 f   c62_six_plus_six_AcmsteeringV09_main_2lflm.obj
 0001:001b0d70       mdlSetWorkWidths_c62_six_plus_six_AcmsteeringV09_main_2lflm 00000001801b1d70 f   c62_six_plus_six_AcmsteeringV09_main_2lflm.obj
 0001:001b1240       sf_get_instance_specialization 00000001801b2240 f   c62_six_plus_six_AcmsteeringV09_main_2lflm.obj
 0001:001b1250       mdlStart_c62_six_plus_six_AcmsteeringV09_main_2lflm 00000001801b2250 f   c62_six_plus_six_AcmsteeringV09_main_2lflm.obj
 0001:001b1480       init_dsm_address_info      00000001801b2480 f   c62_six_plus_six_AcmsteeringV09_main_2lflm.obj
 0001:001b1490       chart_debug_initialization 00000001801b2490 f   c62_six_plus_six_AcmsteeringV09_main_2lflm.obj
 0001:001b1c40       init_script_number_translation 00000001801b2c40 f   c62_six_plus_six_AcmsteeringV09_main_2lflm.obj
 0001:001b1c60       c62_sf_marshallOut         00000001801b2c60 f   c62_six_plus_six_AcmsteeringV09_main_2lflm.obj
 0001:001b1d10       c62_sf_marshallIn          00000001801b2d10 f   c62_six_plus_six_AcmsteeringV09_main_2lflm.obj
 0001:001b1db0       sf_opaque_initialize_c62_six_plus_six_AcmsteeringV09_main_2lflm 00000001801b2db0 f   c62_six_plus_six_AcmsteeringV09_main_2lflm.obj
 0001:001b1df0       initialize_c62_six_plus_six_AcmsteeringV09_main_2lflm 00000001801b2df0 f   c62_six_plus_six_AcmsteeringV09_main_2lflm.obj
 0001:001b1e40       sf_opaque_enable_c62_six_plus_six_AcmsteeringV09_main_2lflm 00000001801b2e40 f   c62_six_plus_six_AcmsteeringV09_main_2lflm.obj
 0001:001b1e60       enable_c62_six_plus_six_AcmsteeringV09_main_2lflm 00000001801b2e60 f   c62_six_plus_six_AcmsteeringV09_main_2lflm.obj
 0001:001b1e90       sf_opaque_disable_c62_six_plus_six_AcmsteeringV09_main_2lflm 00000001801b2e90 f   c62_six_plus_six_AcmsteeringV09_main_2lflm.obj
 0001:001b1eb0       disable_c62_six_plus_six_AcmsteeringV09_main_2lflm 00000001801b2eb0 f   c62_six_plus_six_AcmsteeringV09_main_2lflm.obj
 0001:001b1ee0       sf_opaque_gateway_c62_six_plus_six_AcmsteeringV09_main_2lflm 00000001801b2ee0 f   c62_six_plus_six_AcmsteeringV09_main_2lflm.obj
 0001:001b1f00       sf_gateway_c62_six_plus_six_AcmsteeringV09_main_2lflm 00000001801b2f00 f   c62_six_plus_six_AcmsteeringV09_main_2lflm.obj
 0001:001b2620       sf_opaque_get_sim_state_c62_six_plus_six_AcmsteeringV09_main_2lflm 00000001801b3620 f   c62_six_plus_six_AcmsteeringV09_main_2lflm.obj
 0001:001b2640       sf_opaque_set_sim_state_c62_six_plus_six_AcmsteeringV09_main_2lflm 00000001801b3640 f   c62_six_plus_six_AcmsteeringV09_main_2lflm.obj
 0001:001b2670       sf_opaque_terminate_c62_six_plus_six_AcmsteeringV09_main_2lflm 00000001801b3670 f   c62_six_plus_six_AcmsteeringV09_main_2lflm.obj
 0001:001b2710       finalize_c62_six_plus_six_AcmsteeringV09_main_2lflm 00000001801b3710 f   c62_six_plus_six_AcmsteeringV09_main_2lflm.obj
 0001:001b2720       sf_opaque_init_subchart_simstructs 00000001801b3720 f   c62_six_plus_six_AcmsteeringV09_main_2lflm.obj
 0001:001b2740       initSimStructsc62_six_plus_six_AcmsteeringV09_main_2lflm 00000001801b3740 f   c62_six_plus_six_AcmsteeringV09_main_2lflm.obj
 0001:001b2750       mdlRTW_c62_six_plus_six_AcmsteeringV09_main_2lflm 00000001801b3750 f   c62_six_plus_six_AcmsteeringV09_main_2lflm.obj
 0001:001b2e10       get_sim_state_c63_six_plus_six_AcmsteeringV09_main_2lflm 00000001801b3e10 f   c63_six_plus_six_AcmsteeringV09_main_2lflm.obj
 0001:001b2fb0       sf_get_sim_state_info_c63_six_plus_six_AcmsteeringV09_main_2lflm 00000001801b3fb0 f   c63_six_plus_six_AcmsteeringV09_main_2lflm.obj
 0001:001b3180       set_sim_state_c63_six_plus_six_AcmsteeringV09_main_2lflm 00000001801b4180 f   c63_six_plus_six_AcmsteeringV09_main_2lflm.obj
 0001:001b3260       c63_update_debugger_state_c63_six_plus_six_AcmsteeringV09_main_2 00000001801b4260 f   c63_six_plus_six_AcmsteeringV09_main_2lflm.obj
 0001:001b3270       c63_emlrt_marshallIn       00000001801b4270 f   c63_six_plus_six_AcmsteeringV09_main_2lflm.obj
 0001:001b32e0       c63_b_emlrt_marshallIn     00000001801b42e0 f   c63_six_plus_six_AcmsteeringV09_main_2lflm.obj
 0001:001b3370       c63_e_emlrt_marshallIn     00000001801b4370 f   c63_six_plus_six_AcmsteeringV09_main_2lflm.obj
 0001:001b33d0       c63_f_emlrt_marshallIn     00000001801b43d0 f   c63_six_plus_six_AcmsteeringV09_main_2lflm.obj
 0001:001b34d0       mdlProcessParameters_c63_six_plus_six_AcmsteeringV09_main_2lflm 00000001801b44d0 f   c63_six_plus_six_AcmsteeringV09_main_2lflm.obj
 0001:001b35b0       initialize_params_c63_six_plus_six_AcmsteeringV09_main_2lflm 00000001801b45b0 f   c63_six_plus_six_AcmsteeringV09_main_2lflm.obj
 0001:001b35c0       mdlSetWorkWidths_c63_six_plus_six_AcmsteeringV09_main_2lflm 00000001801b45c0 f   c63_six_plus_six_AcmsteeringV09_main_2lflm.obj
 0001:001b3a90       sf_get_instance_specialization 00000001801b4a90 f   c63_six_plus_six_AcmsteeringV09_main_2lflm.obj
 0001:001b3aa0       mdlStart_c63_six_plus_six_AcmsteeringV09_main_2lflm 00000001801b4aa0 f   c63_six_plus_six_AcmsteeringV09_main_2lflm.obj
 0001:001b3cd0       init_dsm_address_info      00000001801b4cd0 f   c63_six_plus_six_AcmsteeringV09_main_2lflm.obj
 0001:001b3ce0       chart_debug_initialization 00000001801b4ce0 f   c63_six_plus_six_AcmsteeringV09_main_2lflm.obj
 0001:001b4490       init_script_number_translation 00000001801b5490 f   c63_six_plus_six_AcmsteeringV09_main_2lflm.obj
 0001:001b44b0       c63_sf_marshallOut         00000001801b54b0 f   c63_six_plus_six_AcmsteeringV09_main_2lflm.obj
 0001:001b4570       c63_sf_marshallIn          00000001801b5570 f   c63_six_plus_six_AcmsteeringV09_main_2lflm.obj
 0001:001b4610       sf_opaque_initialize_c63_six_plus_six_AcmsteeringV09_main_2lflm 00000001801b5610 f   c63_six_plus_six_AcmsteeringV09_main_2lflm.obj
 0001:001b4650       initialize_c63_six_plus_six_AcmsteeringV09_main_2lflm 00000001801b5650 f   c63_six_plus_six_AcmsteeringV09_main_2lflm.obj
 0001:001b46a0       sf_opaque_enable_c63_six_plus_six_AcmsteeringV09_main_2lflm 00000001801b56a0 f   c63_six_plus_six_AcmsteeringV09_main_2lflm.obj
 0001:001b46c0       enable_c63_six_plus_six_AcmsteeringV09_main_2lflm 00000001801b56c0 f   c63_six_plus_six_AcmsteeringV09_main_2lflm.obj
 0001:001b46f0       sf_opaque_disable_c63_six_plus_six_AcmsteeringV09_main_2lflm 00000001801b56f0 f   c63_six_plus_six_AcmsteeringV09_main_2lflm.obj
 0001:001b4710       disable_c63_six_plus_six_AcmsteeringV09_main_2lflm 00000001801b5710 f   c63_six_plus_six_AcmsteeringV09_main_2lflm.obj
 0001:001b4740       sf_opaque_gateway_c63_six_plus_six_AcmsteeringV09_main_2lflm 00000001801b5740 f   c63_six_plus_six_AcmsteeringV09_main_2lflm.obj
 0001:001b4760       sf_gateway_c63_six_plus_six_AcmsteeringV09_main_2lflm 00000001801b5760 f   c63_six_plus_six_AcmsteeringV09_main_2lflm.obj
 0001:001b4e80       c63_b_sf_marshallOut       00000001801b5e80 f   c63_six_plus_six_AcmsteeringV09_main_2lflm.obj
 0001:001b4f30       c63_b_sf_marshallIn        00000001801b5f30 f   c63_six_plus_six_AcmsteeringV09_main_2lflm.obj
 0001:001b4fd0       c63_c_emlrt_marshallIn     00000001801b5fd0 f   c63_six_plus_six_AcmsteeringV09_main_2lflm.obj
 0001:001b5060       sf_opaque_get_sim_state_c63_six_plus_six_AcmsteeringV09_main_2lflm 00000001801b6060 f   c63_six_plus_six_AcmsteeringV09_main_2lflm.obj
 0001:001b5080       sf_opaque_set_sim_state_c63_six_plus_six_AcmsteeringV09_main_2lflm 00000001801b6080 f   c63_six_plus_six_AcmsteeringV09_main_2lflm.obj
 0001:001b50b0       sf_opaque_terminate_c63_six_plus_six_AcmsteeringV09_main_2lflm 00000001801b60b0 f   c63_six_plus_six_AcmsteeringV09_main_2lflm.obj
 0001:001b5150       finalize_c63_six_plus_six_AcmsteeringV09_main_2lflm 00000001801b6150 f   c63_six_plus_six_AcmsteeringV09_main_2lflm.obj
 0001:001b5160       sf_opaque_init_subchart_simstructs 00000001801b6160 f   c63_six_plus_six_AcmsteeringV09_main_2lflm.obj
 0001:001b5180       initSimStructsc63_six_plus_six_AcmsteeringV09_main_2lflm 00000001801b6180 f   c63_six_plus_six_AcmsteeringV09_main_2lflm.obj
 0001:001b5190       mdlRTW_c63_six_plus_six_AcmsteeringV09_main_2lflm 00000001801b6190 f   c63_six_plus_six_AcmsteeringV09_main_2lflm.obj
 0001:001b5850       get_sim_state_c64_six_plus_six_AcmsteeringV09_main_2lflm 00000001801b6850 f   c64_six_plus_six_AcmsteeringV09_main_2lflm.obj
 0001:001b59f0       sf_get_sim_state_info_c64_six_plus_six_AcmsteeringV09_main_2lflm 00000001801b69f0 f   c64_six_plus_six_AcmsteeringV09_main_2lflm.obj
 0001:001b5bc0       set_sim_state_c64_six_plus_six_AcmsteeringV09_main_2lflm 00000001801b6bc0 f   c64_six_plus_six_AcmsteeringV09_main_2lflm.obj
 0001:001b5ca0       c64_update_debugger_state_c64_six_plus_six_AcmsteeringV09_main_2 00000001801b6ca0 f   c64_six_plus_six_AcmsteeringV09_main_2lflm.obj
 0001:001b5cb0       c64_emlrt_marshallIn       00000001801b6cb0 f   c64_six_plus_six_AcmsteeringV09_main_2lflm.obj
 0001:001b5d20       c64_b_emlrt_marshallIn     00000001801b6d20 f   c64_six_plus_six_AcmsteeringV09_main_2lflm.obj
 0001:001b5db0       c64_d_emlrt_marshallIn     00000001801b6db0 f   c64_six_plus_six_AcmsteeringV09_main_2lflm.obj
 0001:001b5e10       c64_e_emlrt_marshallIn     00000001801b6e10 f   c64_six_plus_six_AcmsteeringV09_main_2lflm.obj
 0001:001b5f10       mdlProcessParameters_c64_six_plus_six_AcmsteeringV09_main_2lflm 00000001801b6f10 f   c64_six_plus_six_AcmsteeringV09_main_2lflm.obj
 0001:001b5ff0       initialize_params_c64_six_plus_six_AcmsteeringV09_main_2lflm 00000001801b6ff0 f   c64_six_plus_six_AcmsteeringV09_main_2lflm.obj
 0001:001b6000       mdlSetWorkWidths_c64_six_plus_six_AcmsteeringV09_main_2lflm 00000001801b7000 f   c64_six_plus_six_AcmsteeringV09_main_2lflm.obj
 0001:001b64d0       sf_get_instance_specialization 00000001801b74d0 f   c64_six_plus_six_AcmsteeringV09_main_2lflm.obj
 0001:001b64e0       mdlStart_c64_six_plus_six_AcmsteeringV09_main_2lflm 00000001801b74e0 f   c64_six_plus_six_AcmsteeringV09_main_2lflm.obj
 0001:001b6710       init_dsm_address_info      00000001801b7710 f   c64_six_plus_six_AcmsteeringV09_main_2lflm.obj
 0001:001b6720       chart_debug_initialization 00000001801b7720 f   c64_six_plus_six_AcmsteeringV09_main_2lflm.obj
 0001:001b6ed0       init_script_number_translation 00000001801b7ed0 f   c64_six_plus_six_AcmsteeringV09_main_2lflm.obj
 0001:001b6ef0       c64_sf_marshallOut         00000001801b7ef0 f   c64_six_plus_six_AcmsteeringV09_main_2lflm.obj
 0001:001b6fa0       c64_sf_marshallIn          00000001801b7fa0 f   c64_six_plus_six_AcmsteeringV09_main_2lflm.obj
 0001:001b7040       sf_opaque_initialize_c64_six_plus_six_AcmsteeringV09_main_2lflm 00000001801b8040 f   c64_six_plus_six_AcmsteeringV09_main_2lflm.obj
 0001:001b7080       initialize_c64_six_plus_six_AcmsteeringV09_main_2lflm 00000001801b8080 f   c64_six_plus_six_AcmsteeringV09_main_2lflm.obj
 0001:001b70d0       sf_opaque_enable_c64_six_plus_six_AcmsteeringV09_main_2lflm 00000001801b80d0 f   c64_six_plus_six_AcmsteeringV09_main_2lflm.obj
 0001:001b70f0       enable_c64_six_plus_six_AcmsteeringV09_main_2lflm 00000001801b80f0 f   c64_six_plus_six_AcmsteeringV09_main_2lflm.obj
 0001:001b7120       sf_opaque_disable_c64_six_plus_six_AcmsteeringV09_main_2lflm 00000001801b8120 f   c64_six_plus_six_AcmsteeringV09_main_2lflm.obj
 0001:001b7140       disable_c64_six_plus_six_AcmsteeringV09_main_2lflm 00000001801b8140 f   c64_six_plus_six_AcmsteeringV09_main_2lflm.obj
 0001:001b7170       sf_opaque_gateway_c64_six_plus_six_AcmsteeringV09_main_2lflm 00000001801b8170 f   c64_six_plus_six_AcmsteeringV09_main_2lflm.obj
 0001:001b7190       sf_gateway_c64_six_plus_six_AcmsteeringV09_main_2lflm 00000001801b8190 f   c64_six_plus_six_AcmsteeringV09_main_2lflm.obj
 0001:001b78c0       sf_opaque_get_sim_state_c64_six_plus_six_AcmsteeringV09_main_2lflm 00000001801b88c0 f   c64_six_plus_six_AcmsteeringV09_main_2lflm.obj
 0001:001b78e0       sf_opaque_set_sim_state_c64_six_plus_six_AcmsteeringV09_main_2lflm 00000001801b88e0 f   c64_six_plus_six_AcmsteeringV09_main_2lflm.obj
 0001:001b7910       sf_opaque_terminate_c64_six_plus_six_AcmsteeringV09_main_2lflm 00000001801b8910 f   c64_six_plus_six_AcmsteeringV09_main_2lflm.obj
 0001:001b79b0       finalize_c64_six_plus_six_AcmsteeringV09_main_2lflm 00000001801b89b0 f   c64_six_plus_six_AcmsteeringV09_main_2lflm.obj
 0001:001b79c0       sf_opaque_init_subchart_simstructs 00000001801b89c0 f   c64_six_plus_six_AcmsteeringV09_main_2lflm.obj
 0001:001b79e0       initSimStructsc64_six_plus_six_AcmsteeringV09_main_2lflm 00000001801b89e0 f   c64_six_plus_six_AcmsteeringV09_main_2lflm.obj
 0001:001b79f0       mdlRTW_c64_six_plus_six_AcmsteeringV09_main_2lflm 00000001801b89f0 f   c64_six_plus_six_AcmsteeringV09_main_2lflm.obj
 0001:001b80b0       get_sim_state_c65_six_plus_six_AcmsteeringV09_main_2lflm 00000001801b90b0 f   c65_six_plus_six_AcmsteeringV09_main_2lflm.obj
 0001:001b8250       sf_get_sim_state_info_c65_six_plus_six_AcmsteeringV09_main_2lflm 00000001801b9250 f   c65_six_plus_six_AcmsteeringV09_main_2lflm.obj
 0001:001b8420       set_sim_state_c65_six_plus_six_AcmsteeringV09_main_2lflm 00000001801b9420 f   c65_six_plus_six_AcmsteeringV09_main_2lflm.obj
 0001:001b8500       c65_update_debugger_state_c65_six_plus_six_AcmsteeringV09_main_2 00000001801b9500 f   c65_six_plus_six_AcmsteeringV09_main_2lflm.obj
 0001:001b8510       c65_emlrt_marshallIn       00000001801b9510 f   c65_six_plus_six_AcmsteeringV09_main_2lflm.obj
 0001:001b8580       c65_b_emlrt_marshallIn     00000001801b9580 f   c65_six_plus_six_AcmsteeringV09_main_2lflm.obj
 0001:001b8610       c65_d_emlrt_marshallIn     00000001801b9610 f   c65_six_plus_six_AcmsteeringV09_main_2lflm.obj
 0001:001b8670       c65_e_emlrt_marshallIn     00000001801b9670 f   c65_six_plus_six_AcmsteeringV09_main_2lflm.obj
 0001:001b8770       mdlProcessParameters_c65_six_plus_six_AcmsteeringV09_main_2lflm 00000001801b9770 f   c65_six_plus_six_AcmsteeringV09_main_2lflm.obj
 0001:001b8850       initialize_params_c65_six_plus_six_AcmsteeringV09_main_2lflm 00000001801b9850 f   c65_six_plus_six_AcmsteeringV09_main_2lflm.obj
 0001:001b8860       mdlSetWorkWidths_c65_six_plus_six_AcmsteeringV09_main_2lflm 00000001801b9860 f   c65_six_plus_six_AcmsteeringV09_main_2lflm.obj
 0001:001b8d30       sf_get_instance_specialization 00000001801b9d30 f   c65_six_plus_six_AcmsteeringV09_main_2lflm.obj
 0001:001b8d40       mdlStart_c65_six_plus_six_AcmsteeringV09_main_2lflm 00000001801b9d40 f   c65_six_plus_six_AcmsteeringV09_main_2lflm.obj
 0001:001b8f70       init_dsm_address_info      00000001801b9f70 f   c65_six_plus_six_AcmsteeringV09_main_2lflm.obj
 0001:001b8f80       chart_debug_initialization 00000001801b9f80 f   c65_six_plus_six_AcmsteeringV09_main_2lflm.obj
 0001:001b9730       init_script_number_translation 00000001801ba730 f   c65_six_plus_six_AcmsteeringV09_main_2lflm.obj
 0001:001b9750       c65_sf_marshallOut         00000001801ba750 f   c65_six_plus_six_AcmsteeringV09_main_2lflm.obj
 0001:001b9800       c65_sf_marshallIn          00000001801ba800 f   c65_six_plus_six_AcmsteeringV09_main_2lflm.obj
 0001:001b98a0       sf_opaque_initialize_c65_six_plus_six_AcmsteeringV09_main_2lflm 00000001801ba8a0 f   c65_six_plus_six_AcmsteeringV09_main_2lflm.obj
 0001:001b98e0       initialize_c65_six_plus_six_AcmsteeringV09_main_2lflm 00000001801ba8e0 f   c65_six_plus_six_AcmsteeringV09_main_2lflm.obj
 0001:001b9930       sf_opaque_enable_c65_six_plus_six_AcmsteeringV09_main_2lflm 00000001801ba930 f   c65_six_plus_six_AcmsteeringV09_main_2lflm.obj
 0001:001b9950       enable_c65_six_plus_six_AcmsteeringV09_main_2lflm 00000001801ba950 f   c65_six_plus_six_AcmsteeringV09_main_2lflm.obj
 0001:001b9980       sf_opaque_disable_c65_six_plus_six_AcmsteeringV09_main_2lflm 00000001801ba980 f   c65_six_plus_six_AcmsteeringV09_main_2lflm.obj
 0001:001b99a0       disable_c65_six_plus_six_AcmsteeringV09_main_2lflm 00000001801ba9a0 f   c65_six_plus_six_AcmsteeringV09_main_2lflm.obj
 0001:001b99d0       sf_opaque_gateway_c65_six_plus_six_AcmsteeringV09_main_2lflm 00000001801ba9d0 f   c65_six_plus_six_AcmsteeringV09_main_2lflm.obj
 0001:001b99f0       sf_gateway_c65_six_plus_six_AcmsteeringV09_main_2lflm 00000001801ba9f0 f   c65_six_plus_six_AcmsteeringV09_main_2lflm.obj
 0001:001ba120       sf_opaque_get_sim_state_c65_six_plus_six_AcmsteeringV09_main_2lflm 00000001801bb120 f   c65_six_plus_six_AcmsteeringV09_main_2lflm.obj
 0001:001ba140       sf_opaque_set_sim_state_c65_six_plus_six_AcmsteeringV09_main_2lflm 00000001801bb140 f   c65_six_plus_six_AcmsteeringV09_main_2lflm.obj
 0001:001ba170       sf_opaque_terminate_c65_six_plus_six_AcmsteeringV09_main_2lflm 00000001801bb170 f   c65_six_plus_six_AcmsteeringV09_main_2lflm.obj
 0001:001ba210       finalize_c65_six_plus_six_AcmsteeringV09_main_2lflm 00000001801bb210 f   c65_six_plus_six_AcmsteeringV09_main_2lflm.obj
 0001:001ba220       sf_opaque_init_subchart_simstructs 00000001801bb220 f   c65_six_plus_six_AcmsteeringV09_main_2lflm.obj
 0001:001ba240       initSimStructsc65_six_plus_six_AcmsteeringV09_main_2lflm 00000001801bb240 f   c65_six_plus_six_AcmsteeringV09_main_2lflm.obj
 0001:001ba250       mdlRTW_c65_six_plus_six_AcmsteeringV09_main_2lflm 00000001801bb250 f   c65_six_plus_six_AcmsteeringV09_main_2lflm.obj
 0001:001ba910       get_sim_state_c66_six_plus_six_AcmsteeringV09_main_2lflm 00000001801bb910 f   c66_six_plus_six_AcmsteeringV09_main_2lflm.obj
 0001:001baab0       sf_get_sim_state_info_c66_six_plus_six_AcmsteeringV09_main_2lflm 00000001801bbab0 f   c66_six_plus_six_AcmsteeringV09_main_2lflm.obj
 0001:001bac80       set_sim_state_c66_six_plus_six_AcmsteeringV09_main_2lflm 00000001801bbc80 f   c66_six_plus_six_AcmsteeringV09_main_2lflm.obj
 0001:001bad60       c66_update_debugger_state_c66_six_plus_six_AcmsteeringV09_main_2 00000001801bbd60 f   c66_six_plus_six_AcmsteeringV09_main_2lflm.obj
 0001:001bad70       c66_emlrt_marshallIn       00000001801bbd70 f   c66_six_plus_six_AcmsteeringV09_main_2lflm.obj
 0001:001bade0       c66_b_emlrt_marshallIn     00000001801bbde0 f   c66_six_plus_six_AcmsteeringV09_main_2lflm.obj
 0001:001bae70       c66_d_emlrt_marshallIn     00000001801bbe70 f   c66_six_plus_six_AcmsteeringV09_main_2lflm.obj
 0001:001baed0       c66_e_emlrt_marshallIn     00000001801bbed0 f   c66_six_plus_six_AcmsteeringV09_main_2lflm.obj
 0001:001bafd0       mdlProcessParameters_c66_six_plus_six_AcmsteeringV09_main_2lflm 00000001801bbfd0 f   c66_six_plus_six_AcmsteeringV09_main_2lflm.obj
 0001:001bb0b0       initialize_params_c66_six_plus_six_AcmsteeringV09_main_2lflm 00000001801bc0b0 f   c66_six_plus_six_AcmsteeringV09_main_2lflm.obj
 0001:001bb0c0       mdlSetWorkWidths_c66_six_plus_six_AcmsteeringV09_main_2lflm 00000001801bc0c0 f   c66_six_plus_six_AcmsteeringV09_main_2lflm.obj
 0001:001bb590       sf_get_instance_specialization 00000001801bc590 f   c66_six_plus_six_AcmsteeringV09_main_2lflm.obj
 0001:001bb5a0       mdlStart_c66_six_plus_six_AcmsteeringV09_main_2lflm 00000001801bc5a0 f   c66_six_plus_six_AcmsteeringV09_main_2lflm.obj
 0001:001bb7d0       init_dsm_address_info      00000001801bc7d0 f   c66_six_plus_six_AcmsteeringV09_main_2lflm.obj
 0001:001bb7e0       chart_debug_initialization 00000001801bc7e0 f   c66_six_plus_six_AcmsteeringV09_main_2lflm.obj
 0001:001bbf90       init_script_number_translation 00000001801bcf90 f   c66_six_plus_six_AcmsteeringV09_main_2lflm.obj
 0001:001bbfb0       c66_sf_marshallOut         00000001801bcfb0 f   c66_six_plus_six_AcmsteeringV09_main_2lflm.obj
 0001:001bc060       c66_sf_marshallIn          00000001801bd060 f   c66_six_plus_six_AcmsteeringV09_main_2lflm.obj
 0001:001bc100       sf_opaque_initialize_c66_six_plus_six_AcmsteeringV09_main_2lflm 00000001801bd100 f   c66_six_plus_six_AcmsteeringV09_main_2lflm.obj
 0001:001bc140       initialize_c66_six_plus_six_AcmsteeringV09_main_2lflm 00000001801bd140 f   c66_six_plus_six_AcmsteeringV09_main_2lflm.obj
 0001:001bc190       sf_opaque_enable_c66_six_plus_six_AcmsteeringV09_main_2lflm 00000001801bd190 f   c66_six_plus_six_AcmsteeringV09_main_2lflm.obj
 0001:001bc1b0       enable_c66_six_plus_six_AcmsteeringV09_main_2lflm 00000001801bd1b0 f   c66_six_plus_six_AcmsteeringV09_main_2lflm.obj
 0001:001bc1e0       sf_opaque_disable_c66_six_plus_six_AcmsteeringV09_main_2lflm 00000001801bd1e0 f   c66_six_plus_six_AcmsteeringV09_main_2lflm.obj
 0001:001bc200       disable_c66_six_plus_six_AcmsteeringV09_main_2lflm 00000001801bd200 f   c66_six_plus_six_AcmsteeringV09_main_2lflm.obj
 0001:001bc230       sf_opaque_gateway_c66_six_plus_six_AcmsteeringV09_main_2lflm 00000001801bd230 f   c66_six_plus_six_AcmsteeringV09_main_2lflm.obj
 0001:001bc250       sf_gateway_c66_six_plus_six_AcmsteeringV09_main_2lflm 00000001801bd250 f   c66_six_plus_six_AcmsteeringV09_main_2lflm.obj
 0001:001bc970       sf_opaque_get_sim_state_c66_six_plus_six_AcmsteeringV09_main_2lflm 00000001801bd970 f   c66_six_plus_six_AcmsteeringV09_main_2lflm.obj
 0001:001bc990       sf_opaque_set_sim_state_c66_six_plus_six_AcmsteeringV09_main_2lflm 00000001801bd990 f   c66_six_plus_six_AcmsteeringV09_main_2lflm.obj
 0001:001bc9c0       sf_opaque_terminate_c66_six_plus_six_AcmsteeringV09_main_2lflm 00000001801bd9c0 f   c66_six_plus_six_AcmsteeringV09_main_2lflm.obj
 0001:001bca60       finalize_c66_six_plus_six_AcmsteeringV09_main_2lflm 00000001801bda60 f   c66_six_plus_six_AcmsteeringV09_main_2lflm.obj
 0001:001bca70       sf_opaque_init_subchart_simstructs 00000001801bda70 f   c66_six_plus_six_AcmsteeringV09_main_2lflm.obj
 0001:001bca90       initSimStructsc66_six_plus_six_AcmsteeringV09_main_2lflm 00000001801bda90 f   c66_six_plus_six_AcmsteeringV09_main_2lflm.obj
 0001:001bcaa0       mdlRTW_c66_six_plus_six_AcmsteeringV09_main_2lflm 00000001801bdaa0 f   c66_six_plus_six_AcmsteeringV09_main_2lflm.obj
 0001:001bd160       get_sim_state_c67_six_plus_six_AcmsteeringV09_main_2lflm 00000001801be160 f   c67_six_plus_six_AcmsteeringV09_main_2lflm.obj
 0001:001bd300       sf_get_sim_state_info_c67_six_plus_six_AcmsteeringV09_main_2lflm 00000001801be300 f   c67_six_plus_six_AcmsteeringV09_main_2lflm.obj
 0001:001bd4d0       set_sim_state_c67_six_plus_six_AcmsteeringV09_main_2lflm 00000001801be4d0 f   c67_six_plus_six_AcmsteeringV09_main_2lflm.obj
 0001:001bd5b0       c67_update_debugger_state_c67_six_plus_six_AcmsteeringV09_main_2 00000001801be5b0 f   c67_six_plus_six_AcmsteeringV09_main_2lflm.obj
 0001:001bd5c0       c67_emlrt_marshallIn       00000001801be5c0 f   c67_six_plus_six_AcmsteeringV09_main_2lflm.obj
 0001:001bd630       c67_b_emlrt_marshallIn     00000001801be630 f   c67_six_plus_six_AcmsteeringV09_main_2lflm.obj
 0001:001bd6c0       c67_e_emlrt_marshallIn     00000001801be6c0 f   c67_six_plus_six_AcmsteeringV09_main_2lflm.obj
 0001:001bd720       c67_f_emlrt_marshallIn     00000001801be720 f   c67_six_plus_six_AcmsteeringV09_main_2lflm.obj
 0001:001bd820       mdlProcessParameters_c67_six_plus_six_AcmsteeringV09_main_2lflm 00000001801be820 f   c67_six_plus_six_AcmsteeringV09_main_2lflm.obj
 0001:001bd900       initialize_params_c67_six_plus_six_AcmsteeringV09_main_2lflm 00000001801be900 f   c67_six_plus_six_AcmsteeringV09_main_2lflm.obj
 0001:001bd910       mdlSetWorkWidths_c67_six_plus_six_AcmsteeringV09_main_2lflm 00000001801be910 f   c67_six_plus_six_AcmsteeringV09_main_2lflm.obj
 0001:001bdde0       sf_get_instance_specialization 00000001801bede0 f   c67_six_plus_six_AcmsteeringV09_main_2lflm.obj
 0001:001bddf0       mdlStart_c67_six_plus_six_AcmsteeringV09_main_2lflm 00000001801bedf0 f   c67_six_plus_six_AcmsteeringV09_main_2lflm.obj
 0001:001be020       init_dsm_address_info      00000001801bf020 f   c67_six_plus_six_AcmsteeringV09_main_2lflm.obj
 0001:001be030       chart_debug_initialization 00000001801bf030 f   c67_six_plus_six_AcmsteeringV09_main_2lflm.obj
 0001:001be7e0       init_script_number_translation 00000001801bf7e0 f   c67_six_plus_six_AcmsteeringV09_main_2lflm.obj
 0001:001be800       c67_sf_marshallOut         00000001801bf800 f   c67_six_plus_six_AcmsteeringV09_main_2lflm.obj
 0001:001be8c0       c67_sf_marshallIn          00000001801bf8c0 f   c67_six_plus_six_AcmsteeringV09_main_2lflm.obj
 0001:001be960       sf_opaque_initialize_c67_six_plus_six_AcmsteeringV09_main_2lflm 00000001801bf960 f   c67_six_plus_six_AcmsteeringV09_main_2lflm.obj
 0001:001be9a0       initialize_c67_six_plus_six_AcmsteeringV09_main_2lflm 00000001801bf9a0 f   c67_six_plus_six_AcmsteeringV09_main_2lflm.obj
 0001:001be9f0       sf_opaque_enable_c67_six_plus_six_AcmsteeringV09_main_2lflm 00000001801bf9f0 f   c67_six_plus_six_AcmsteeringV09_main_2lflm.obj
 0001:001bea10       enable_c67_six_plus_six_AcmsteeringV09_main_2lflm 00000001801bfa10 f   c67_six_plus_six_AcmsteeringV09_main_2lflm.obj
 0001:001bea40       sf_opaque_disable_c67_six_plus_six_AcmsteeringV09_main_2lflm 00000001801bfa40 f   c67_six_plus_six_AcmsteeringV09_main_2lflm.obj
 0001:001bea60       disable_c67_six_plus_six_AcmsteeringV09_main_2lflm 00000001801bfa60 f   c67_six_plus_six_AcmsteeringV09_main_2lflm.obj
 0001:001bea90       sf_opaque_gateway_c67_six_plus_six_AcmsteeringV09_main_2lflm 00000001801bfa90 f   c67_six_plus_six_AcmsteeringV09_main_2lflm.obj
 0001:001beab0       sf_gateway_c67_six_plus_six_AcmsteeringV09_main_2lflm 00000001801bfab0 f   c67_six_plus_six_AcmsteeringV09_main_2lflm.obj
 0001:001bf1d0       c67_b_sf_marshallOut       00000001801c01d0 f   c67_six_plus_six_AcmsteeringV09_main_2lflm.obj
 0001:001bf280       c67_b_sf_marshallIn        00000001801c0280 f   c67_six_plus_six_AcmsteeringV09_main_2lflm.obj
 0001:001bf320       c67_c_emlrt_marshallIn     00000001801c0320 f   c67_six_plus_six_AcmsteeringV09_main_2lflm.obj
 0001:001bf3b0       sf_opaque_get_sim_state_c67_six_plus_six_AcmsteeringV09_main_2lflm 00000001801c03b0 f   c67_six_plus_six_AcmsteeringV09_main_2lflm.obj
 0001:001bf3d0       sf_opaque_set_sim_state_c67_six_plus_six_AcmsteeringV09_main_2lflm 00000001801c03d0 f   c67_six_plus_six_AcmsteeringV09_main_2lflm.obj
 0001:001bf400       sf_opaque_terminate_c67_six_plus_six_AcmsteeringV09_main_2lflm 00000001801c0400 f   c67_six_plus_six_AcmsteeringV09_main_2lflm.obj
 0001:001bf4a0       finalize_c67_six_plus_six_AcmsteeringV09_main_2lflm 00000001801c04a0 f   c67_six_plus_six_AcmsteeringV09_main_2lflm.obj
 0001:001bf4b0       sf_opaque_init_subchart_simstructs 00000001801c04b0 f   c67_six_plus_six_AcmsteeringV09_main_2lflm.obj
 0001:001bf4d0       initSimStructsc67_six_plus_six_AcmsteeringV09_main_2lflm 00000001801c04d0 f   c67_six_plus_six_AcmsteeringV09_main_2lflm.obj
 0001:001bf4e0       mdlRTW_c67_six_plus_six_AcmsteeringV09_main_2lflm 00000001801c04e0 f   c67_six_plus_six_AcmsteeringV09_main_2lflm.obj
 0001:001c0c20       get_sim_state_c68_six_plus_six_AcmsteeringV09_main_2lflm 00000001801c1c20 f   c68_six_plus_six_AcmsteeringV09_main_2lflm.obj
 0001:001c0dc0       sf_get_sim_state_info_c68_six_plus_six_AcmsteeringV09_main_2lflm 00000001801c1dc0 f   c68_six_plus_six_AcmsteeringV09_main_2lflm.obj
 0001:001c0f90       set_sim_state_c68_six_plus_six_AcmsteeringV09_main_2lflm 00000001801c1f90 f   c68_six_plus_six_AcmsteeringV09_main_2lflm.obj
 0001:001c1060       c68_update_debugger_state_c68_six_plus_six_AcmsteeringV09_main_2 00000001801c2060 f   c68_six_plus_six_AcmsteeringV09_main_2lflm.obj
 0001:001c1070       c68_emlrt_marshallIn       00000001801c2070 f   c68_six_plus_six_AcmsteeringV09_main_2lflm.obj
 0001:001c10d0       c68_b_emlrt_marshallIn     00000001801c20d0 f   c68_six_plus_six_AcmsteeringV09_main_2lflm.obj
 0001:001c1160       c68_e_emlrt_marshallIn     00000001801c2160 f   c68_six_plus_six_AcmsteeringV09_main_2lflm.obj
 0001:001c11c0       c68_f_emlrt_marshallIn     00000001801c21c0 f   c68_six_plus_six_AcmsteeringV09_main_2lflm.obj
 0001:001c12c0       mdlProcessParameters_c68_six_plus_six_AcmsteeringV09_main_2lflm 00000001801c22c0 f   c68_six_plus_six_AcmsteeringV09_main_2lflm.obj
 0001:001c13a0       initialize_params_c68_six_plus_six_AcmsteeringV09_main_2lflm 00000001801c23a0 f   c68_six_plus_six_AcmsteeringV09_main_2lflm.obj
 0001:001c13b0       mdlSetWorkWidths_c68_six_plus_six_AcmsteeringV09_main_2lflm 00000001801c23b0 f   c68_six_plus_six_AcmsteeringV09_main_2lflm.obj
 0001:001c1af0       sf_get_instance_specialization 00000001801c2af0 f   c68_six_plus_six_AcmsteeringV09_main_2lflm.obj
 0001:001c1b00       mdlStart_c68_six_plus_six_AcmsteeringV09_main_2lflm 00000001801c2b00 f   c68_six_plus_six_AcmsteeringV09_main_2lflm.obj
 0001:001c1d30       init_dsm_address_info      00000001801c2d30 f   c68_six_plus_six_AcmsteeringV09_main_2lflm.obj
 0001:001c1d40       chart_debug_initialization 00000001801c2d40 f   c68_six_plus_six_AcmsteeringV09_main_2lflm.obj
 0001:001c3bb0       init_script_number_translation 00000001801c4bb0 f   c68_six_plus_six_AcmsteeringV09_main_2lflm.obj
 0001:001c3bd0       c68_sf_marshallOut         00000001801c4bd0 f   c68_six_plus_six_AcmsteeringV09_main_2lflm.obj
 0001:001c3c80       c68_sf_marshallIn          00000001801c4c80 f   c68_six_plus_six_AcmsteeringV09_main_2lflm.obj
 0001:001c3d20       c68_b_sf_marshallOut       00000001801c4d20 f   c68_six_plus_six_AcmsteeringV09_main_2lflm.obj
 0001:001c3de0       c68_c_sf_marshallOut       00000001801c4de0 f   c68_six_plus_six_AcmsteeringV09_main_2lflm.obj
 0001:001c3e90       sf_opaque_initialize_c68_six_plus_six_AcmsteeringV09_main_2lflm 00000001801c4e90 f   c68_six_plus_six_AcmsteeringV09_main_2lflm.obj
 0001:001c3ed0       initialize_c68_six_plus_six_AcmsteeringV09_main_2lflm 00000001801c4ed0 f   c68_six_plus_six_AcmsteeringV09_main_2lflm.obj
 0001:001c3f20       sf_opaque_enable_c68_six_plus_six_AcmsteeringV09_main_2lflm 00000001801c4f20 f   c68_six_plus_six_AcmsteeringV09_main_2lflm.obj
 0001:001c3f40       enable_c68_six_plus_six_AcmsteeringV09_main_2lflm 00000001801c4f40 f   c68_six_plus_six_AcmsteeringV09_main_2lflm.obj
 0001:001c3f70       sf_opaque_disable_c68_six_plus_six_AcmsteeringV09_main_2lflm 00000001801c4f70 f   c68_six_plus_six_AcmsteeringV09_main_2lflm.obj
 0001:001c3f90       disable_c68_six_plus_six_AcmsteeringV09_main_2lflm 00000001801c4f90 f   c68_six_plus_six_AcmsteeringV09_main_2lflm.obj
 0001:001c3fc0       sf_opaque_gateway_c68_six_plus_six_AcmsteeringV09_main_2lflm 00000001801c4fc0 f   c68_six_plus_six_AcmsteeringV09_main_2lflm.obj
 0001:001c3fe0       sf_gateway_c68_six_plus_six_AcmsteeringV09_main_2lflm 00000001801c4fe0 f   c68_six_plus_six_AcmsteeringV09_main_2lflm.obj
 0001:001c7940       c68_d_sf_marshallOut       00000001801c8940 f   c68_six_plus_six_AcmsteeringV09_main_2lflm.obj
 0001:001c79f0       c68_b_sf_marshallIn        00000001801c89f0 f   c68_six_plus_six_AcmsteeringV09_main_2lflm.obj
 0001:001c7a90       c68_c_emlrt_marshallIn     00000001801c8a90 f   c68_six_plus_six_AcmsteeringV09_main_2lflm.obj
 0001:001c7b20       sf_opaque_get_sim_state_c68_six_plus_six_AcmsteeringV09_main_2lflm 00000001801c8b20 f   c68_six_plus_six_AcmsteeringV09_main_2lflm.obj
 0001:001c7b40       sf_opaque_set_sim_state_c68_six_plus_six_AcmsteeringV09_main_2lflm 00000001801c8b40 f   c68_six_plus_six_AcmsteeringV09_main_2lflm.obj
 0001:001c7b70       sf_opaque_terminate_c68_six_plus_six_AcmsteeringV09_main_2lflm 00000001801c8b70 f   c68_six_plus_six_AcmsteeringV09_main_2lflm.obj
 0001:001c7c10       finalize_c68_six_plus_six_AcmsteeringV09_main_2lflm 00000001801c8c10 f   c68_six_plus_six_AcmsteeringV09_main_2lflm.obj
 0001:001c7c20       sf_opaque_init_subchart_simstructs 00000001801c8c20 f   c68_six_plus_six_AcmsteeringV09_main_2lflm.obj
 0001:001c7c40       initSimStructsc68_six_plus_six_AcmsteeringV09_main_2lflm 00000001801c8c40 f   c68_six_plus_six_AcmsteeringV09_main_2lflm.obj
 0001:001c7c50       mdlRTW_c68_six_plus_six_AcmsteeringV09_main_2lflm 00000001801c8c50 f   c68_six_plus_six_AcmsteeringV09_main_2lflm.obj
 0001:001c86e0       get_sim_state_c69_six_plus_six_AcmsteeringV09_main_2lflm 00000001801c96e0 f   c69_six_plus_six_AcmsteeringV09_main_2lflm.obj
 0001:001c8880       sf_get_sim_state_info_c69_six_plus_six_AcmsteeringV09_main_2lflm 00000001801c9880 f   c69_six_plus_six_AcmsteeringV09_main_2lflm.obj
 0001:001c8a50       set_sim_state_c69_six_plus_six_AcmsteeringV09_main_2lflm 00000001801c9a50 f   c69_six_plus_six_AcmsteeringV09_main_2lflm.obj
 0001:001c8b30       c69_update_debugger_state_c69_six_plus_six_AcmsteeringV09_main_2 00000001801c9b30 f   c69_six_plus_six_AcmsteeringV09_main_2lflm.obj
 0001:001c8b40       c69_emlrt_marshallIn       00000001801c9b40 f   c69_six_plus_six_AcmsteeringV09_main_2lflm.obj
 0001:001c8bb0       c69_b_emlrt_marshallIn     00000001801c9bb0 f   c69_six_plus_six_AcmsteeringV09_main_2lflm.obj
 0001:001c8c40       c69_d_emlrt_marshallIn     00000001801c9c40 f   c69_six_plus_six_AcmsteeringV09_main_2lflm.obj
 0001:001c8ca0       c69_e_emlrt_marshallIn     00000001801c9ca0 f   c69_six_plus_six_AcmsteeringV09_main_2lflm.obj
 0001:001c8da0       mdlProcessParameters_c69_six_plus_six_AcmsteeringV09_main_2lflm 00000001801c9da0 f   c69_six_plus_six_AcmsteeringV09_main_2lflm.obj
 0001:001c8e80       initialize_params_c69_six_plus_six_AcmsteeringV09_main_2lflm 00000001801c9e80 f   c69_six_plus_six_AcmsteeringV09_main_2lflm.obj
 0001:001c8e90       mdlSetWorkWidths_c69_six_plus_six_AcmsteeringV09_main_2lflm 00000001801c9e90 f   c69_six_plus_six_AcmsteeringV09_main_2lflm.obj
 0001:001c93f0       sf_get_instance_specialization 00000001801ca3f0 f   c69_six_plus_six_AcmsteeringV09_main_2lflm.obj
 0001:001c9400       mdlStart_c69_six_plus_six_AcmsteeringV09_main_2lflm 00000001801ca400 f   c69_six_plus_six_AcmsteeringV09_main_2lflm.obj
 0001:001c9630       init_dsm_address_info      00000001801ca630 f   c69_six_plus_six_AcmsteeringV09_main_2lflm.obj
 0001:001c9640       chart_debug_initialization 00000001801ca640 f   c69_six_plus_six_AcmsteeringV09_main_2lflm.obj
 0001:001ca2a0       init_script_number_translation 00000001801cb2a0 f   c69_six_plus_six_AcmsteeringV09_main_2lflm.obj
 0001:001ca2c0       c69_sf_marshallOut         00000001801cb2c0 f   c69_six_plus_six_AcmsteeringV09_main_2lflm.obj
 0001:001ca370       c69_sf_marshallIn          00000001801cb370 f   c69_six_plus_six_AcmsteeringV09_main_2lflm.obj
 0001:001ca410       sf_opaque_initialize_c69_six_plus_six_AcmsteeringV09_main_2lflm 00000001801cb410 f   c69_six_plus_six_AcmsteeringV09_main_2lflm.obj
 0001:001ca450       initialize_c69_six_plus_six_AcmsteeringV09_main_2lflm 00000001801cb450 f   c69_six_plus_six_AcmsteeringV09_main_2lflm.obj
 0001:001ca4a0       sf_opaque_enable_c69_six_plus_six_AcmsteeringV09_main_2lflm 00000001801cb4a0 f   c69_six_plus_six_AcmsteeringV09_main_2lflm.obj
 0001:001ca4c0       enable_c69_six_plus_six_AcmsteeringV09_main_2lflm 00000001801cb4c0 f   c69_six_plus_six_AcmsteeringV09_main_2lflm.obj
 0001:001ca4f0       sf_opaque_disable_c69_six_plus_six_AcmsteeringV09_main_2lflm 00000001801cb4f0 f   c69_six_plus_six_AcmsteeringV09_main_2lflm.obj
 0001:001ca510       disable_c69_six_plus_six_AcmsteeringV09_main_2lflm 00000001801cb510 f   c69_six_plus_six_AcmsteeringV09_main_2lflm.obj
 0001:001ca540       sf_opaque_gateway_c69_six_plus_six_AcmsteeringV09_main_2lflm 00000001801cb540 f   c69_six_plus_six_AcmsteeringV09_main_2lflm.obj
 0001:001ca560       sf_gateway_c69_six_plus_six_AcmsteeringV09_main_2lflm 00000001801cb560 f   c69_six_plus_six_AcmsteeringV09_main_2lflm.obj
 0001:001cb290       sf_opaque_get_sim_state_c69_six_plus_six_AcmsteeringV09_main_2lflm 00000001801cc290 f   c69_six_plus_six_AcmsteeringV09_main_2lflm.obj
 0001:001cb2b0       sf_opaque_set_sim_state_c69_six_plus_six_AcmsteeringV09_main_2lflm 00000001801cc2b0 f   c69_six_plus_six_AcmsteeringV09_main_2lflm.obj
 0001:001cb2e0       sf_opaque_terminate_c69_six_plus_six_AcmsteeringV09_main_2lflm 00000001801cc2e0 f   c69_six_plus_six_AcmsteeringV09_main_2lflm.obj
 0001:001cb380       finalize_c69_six_plus_six_AcmsteeringV09_main_2lflm 00000001801cc380 f   c69_six_plus_six_AcmsteeringV09_main_2lflm.obj
 0001:001cb390       sf_opaque_init_subchart_simstructs 00000001801cc390 f   c69_six_plus_six_AcmsteeringV09_main_2lflm.obj
 0001:001cb3b0       initSimStructsc69_six_plus_six_AcmsteeringV09_main_2lflm 00000001801cc3b0 f   c69_six_plus_six_AcmsteeringV09_main_2lflm.obj
 0001:001cb3c0       mdlRTW_c69_six_plus_six_AcmsteeringV09_main_2lflm 00000001801cc3c0 f   c69_six_plus_six_AcmsteeringV09_main_2lflm.obj
 0001:001cbe50       get_sim_state_c70_six_plus_six_AcmsteeringV09_main_2lflm 00000001801cce50 f   c70_six_plus_six_AcmsteeringV09_main_2lflm.obj
 0001:001cbff0       sf_get_sim_state_info_c70_six_plus_six_AcmsteeringV09_main_2lflm 00000001801ccff0 f   c70_six_plus_six_AcmsteeringV09_main_2lflm.obj
 0001:001cc1c0       set_sim_state_c70_six_plus_six_AcmsteeringV09_main_2lflm 00000001801cd1c0 f   c70_six_plus_six_AcmsteeringV09_main_2lflm.obj
 0001:001cc290       c70_update_debugger_state_c70_six_plus_six_AcmsteeringV09_main_2 00000001801cd290 f   c70_six_plus_six_AcmsteeringV09_main_2lflm.obj
 0001:001cc2a0       c70_emlrt_marshallIn       00000001801cd2a0 f   c70_six_plus_six_AcmsteeringV09_main_2lflm.obj
 0001:001cc300       c70_b_emlrt_marshallIn     00000001801cd300 f   c70_six_plus_six_AcmsteeringV09_main_2lflm.obj
 0001:001cc390       c70_e_emlrt_marshallIn     00000001801cd390 f   c70_six_plus_six_AcmsteeringV09_main_2lflm.obj
 0001:001cc3f0       c70_f_emlrt_marshallIn     00000001801cd3f0 f   c70_six_plus_six_AcmsteeringV09_main_2lflm.obj
 0001:001cc4f0       mdlProcessParameters_c70_six_plus_six_AcmsteeringV09_main_2lflm 00000001801cd4f0 f   c70_six_plus_six_AcmsteeringV09_main_2lflm.obj
 0001:001cc5d0       initialize_params_c70_six_plus_six_AcmsteeringV09_main_2lflm 00000001801cd5d0 f   c70_six_plus_six_AcmsteeringV09_main_2lflm.obj
 0001:001cc5e0       mdlSetWorkWidths_c70_six_plus_six_AcmsteeringV09_main_2lflm 00000001801cd5e0 f   c70_six_plus_six_AcmsteeringV09_main_2lflm.obj
 0001:001ccb40       sf_get_instance_specialization 00000001801cdb40 f   c70_six_plus_six_AcmsteeringV09_main_2lflm.obj
 0001:001ccb50       mdlStart_c70_six_plus_six_AcmsteeringV09_main_2lflm 00000001801cdb50 f   c70_six_plus_six_AcmsteeringV09_main_2lflm.obj
 0001:001ccd80       init_dsm_address_info      00000001801cdd80 f   c70_six_plus_six_AcmsteeringV09_main_2lflm.obj
 0001:001ccd90       chart_debug_initialization 00000001801cdd90 f   c70_six_plus_six_AcmsteeringV09_main_2lflm.obj
 0001:001cd9c0       init_script_number_translation 00000001801ce9c0 f   c70_six_plus_six_AcmsteeringV09_main_2lflm.obj
 0001:001cd9e0       c70_sf_marshallOut         00000001801ce9e0 f   c70_six_plus_six_AcmsteeringV09_main_2lflm.obj
 0001:001cda90       c70_sf_marshallIn          00000001801cea90 f   c70_six_plus_six_AcmsteeringV09_main_2lflm.obj
 0001:001cdb30       c70_b_sf_marshallOut       00000001801ceb30 f   c70_six_plus_six_AcmsteeringV09_main_2lflm.obj
 0001:001cdbf0       sf_opaque_initialize_c70_six_plus_six_AcmsteeringV09_main_2lflm 00000001801cebf0 f   c70_six_plus_six_AcmsteeringV09_main_2lflm.obj
 0001:001cdc30       initialize_c70_six_plus_six_AcmsteeringV09_main_2lflm 00000001801cec30 f   c70_six_plus_six_AcmsteeringV09_main_2lflm.obj
 0001:001cdc80       sf_opaque_enable_c70_six_plus_six_AcmsteeringV09_main_2lflm 00000001801cec80 f   c70_six_plus_six_AcmsteeringV09_main_2lflm.obj
 0001:001cdca0       enable_c70_six_plus_six_AcmsteeringV09_main_2lflm 00000001801ceca0 f   c70_six_plus_six_AcmsteeringV09_main_2lflm.obj
 0001:001cdcd0       sf_opaque_disable_c70_six_plus_six_AcmsteeringV09_main_2lflm 00000001801cecd0 f   c70_six_plus_six_AcmsteeringV09_main_2lflm.obj
 0001:001cdcf0       disable_c70_six_plus_six_AcmsteeringV09_main_2lflm 00000001801cecf0 f   c70_six_plus_six_AcmsteeringV09_main_2lflm.obj
 0001:001cdd20       sf_opaque_gateway_c70_six_plus_six_AcmsteeringV09_main_2lflm 00000001801ced20 f   c70_six_plus_six_AcmsteeringV09_main_2lflm.obj
 0001:001cdd40       sf_gateway_c70_six_plus_six_AcmsteeringV09_main_2lflm 00000001801ced40 f   c70_six_plus_six_AcmsteeringV09_main_2lflm.obj
 0001:001ce810       c70_c_sf_marshallOut       00000001801cf810 f   c70_six_plus_six_AcmsteeringV09_main_2lflm.obj
 0001:001ce8c0       c70_b_sf_marshallIn        00000001801cf8c0 f   c70_six_plus_six_AcmsteeringV09_main_2lflm.obj
 0001:001ce960       c70_c_emlrt_marshallIn     00000001801cf960 f   c70_six_plus_six_AcmsteeringV09_main_2lflm.obj
 0001:001ce9f0       sf_opaque_get_sim_state_c70_six_plus_six_AcmsteeringV09_main_2lflm 00000001801cf9f0 f   c70_six_plus_six_AcmsteeringV09_main_2lflm.obj
 0001:001cea10       sf_opaque_set_sim_state_c70_six_plus_six_AcmsteeringV09_main_2lflm 00000001801cfa10 f   c70_six_plus_six_AcmsteeringV09_main_2lflm.obj
 0001:001cea40       sf_opaque_terminate_c70_six_plus_six_AcmsteeringV09_main_2lflm 00000001801cfa40 f   c70_six_plus_six_AcmsteeringV09_main_2lflm.obj
 0001:001ceae0       finalize_c70_six_plus_six_AcmsteeringV09_main_2lflm 00000001801cfae0 f   c70_six_plus_six_AcmsteeringV09_main_2lflm.obj
 0001:001ceaf0       sf_opaque_init_subchart_simstructs 00000001801cfaf0 f   c70_six_plus_six_AcmsteeringV09_main_2lflm.obj
 0001:001ceb10       initSimStructsc70_six_plus_six_AcmsteeringV09_main_2lflm 00000001801cfb10 f   c70_six_plus_six_AcmsteeringV09_main_2lflm.obj
 0001:001ceb20       mdlRTW_c70_six_plus_six_AcmsteeringV09_main_2lflm 00000001801cfb20 f   c70_six_plus_six_AcmsteeringV09_main_2lflm.obj
 0001:001cf5b0       get_sim_state_c71_six_plus_six_AcmsteeringV09_main_2lflm 00000001801d05b0 f   c71_six_plus_six_AcmsteeringV09_main_2lflm.obj
 0001:001cf750       sf_get_sim_state_info_c71_six_plus_six_AcmsteeringV09_main_2lflm 00000001801d0750 f   c71_six_plus_six_AcmsteeringV09_main_2lflm.obj
 0001:001cf920       set_sim_state_c71_six_plus_six_AcmsteeringV09_main_2lflm 00000001801d0920 f   c71_six_plus_six_AcmsteeringV09_main_2lflm.obj
 0001:001cf9f0       c71_update_debugger_state_c71_six_plus_six_AcmsteeringV09_main_2 00000001801d09f0 f   c71_six_plus_six_AcmsteeringV09_main_2lflm.obj
 0001:001cfa00       c71_emlrt_marshallIn       00000001801d0a00 f   c71_six_plus_six_AcmsteeringV09_main_2lflm.obj
 0001:001cfa60       c71_b_emlrt_marshallIn     00000001801d0a60 f   c71_six_plus_six_AcmsteeringV09_main_2lflm.obj
 0001:001cfaf0       c71_e_emlrt_marshallIn     00000001801d0af0 f   c71_six_plus_six_AcmsteeringV09_main_2lflm.obj
 0001:001cfb50       c71_f_emlrt_marshallIn     00000001801d0b50 f   c71_six_plus_six_AcmsteeringV09_main_2lflm.obj
 0001:001cfc50       mdlProcessParameters_c71_six_plus_six_AcmsteeringV09_main_2lflm 00000001801d0c50 f   c71_six_plus_six_AcmsteeringV09_main_2lflm.obj
 0001:001cfd30       initialize_params_c71_six_plus_six_AcmsteeringV09_main_2lflm 00000001801d0d30 f   c71_six_plus_six_AcmsteeringV09_main_2lflm.obj
 0001:001cfd40       mdlSetWorkWidths_c71_six_plus_six_AcmsteeringV09_main_2lflm 00000001801d0d40 f   c71_six_plus_six_AcmsteeringV09_main_2lflm.obj
 0001:001d02a0       sf_get_instance_specialization 00000001801d12a0 f   c71_six_plus_six_AcmsteeringV09_main_2lflm.obj
 0001:001d02b0       mdlStart_c71_six_plus_six_AcmsteeringV09_main_2lflm 00000001801d12b0 f   c71_six_plus_six_AcmsteeringV09_main_2lflm.obj
 0001:001d04e0       init_dsm_address_info      00000001801d14e0 f   c71_six_plus_six_AcmsteeringV09_main_2lflm.obj
 0001:001d04f0       chart_debug_initialization 00000001801d14f0 f   c71_six_plus_six_AcmsteeringV09_main_2lflm.obj
 0001:001d1120       init_script_number_translation 00000001801d2120 f   c71_six_plus_six_AcmsteeringV09_main_2lflm.obj
 0001:001d1140       c71_sf_marshallOut         00000001801d2140 f   c71_six_plus_six_AcmsteeringV09_main_2lflm.obj
 0001:001d11f0       c71_sf_marshallIn          00000001801d21f0 f   c71_six_plus_six_AcmsteeringV09_main_2lflm.obj
 0001:001d1290       c71_b_sf_marshallOut       00000001801d2290 f   c71_six_plus_six_AcmsteeringV09_main_2lflm.obj
 0001:001d1350       sf_opaque_initialize_c71_six_plus_six_AcmsteeringV09_main_2lflm 00000001801d2350 f   c71_six_plus_six_AcmsteeringV09_main_2lflm.obj
 0001:001d1390       initialize_c71_six_plus_six_AcmsteeringV09_main_2lflm 00000001801d2390 f   c71_six_plus_six_AcmsteeringV09_main_2lflm.obj
 0001:001d13e0       sf_opaque_enable_c71_six_plus_six_AcmsteeringV09_main_2lflm 00000001801d23e0 f   c71_six_plus_six_AcmsteeringV09_main_2lflm.obj
 0001:001d1400       enable_c71_six_plus_six_AcmsteeringV09_main_2lflm 00000001801d2400 f   c71_six_plus_six_AcmsteeringV09_main_2lflm.obj
 0001:001d1430       sf_opaque_disable_c71_six_plus_six_AcmsteeringV09_main_2lflm 00000001801d2430 f   c71_six_plus_six_AcmsteeringV09_main_2lflm.obj
 0001:001d1450       disable_c71_six_plus_six_AcmsteeringV09_main_2lflm 00000001801d2450 f   c71_six_plus_six_AcmsteeringV09_main_2lflm.obj
 0001:001d1480       sf_opaque_gateway_c71_six_plus_six_AcmsteeringV09_main_2lflm 00000001801d2480 f   c71_six_plus_six_AcmsteeringV09_main_2lflm.obj
 0001:001d14a0       sf_gateway_c71_six_plus_six_AcmsteeringV09_main_2lflm 00000001801d24a0 f   c71_six_plus_six_AcmsteeringV09_main_2lflm.obj
 0001:001d1f60       c71_c_sf_marshallOut       00000001801d2f60 f   c71_six_plus_six_AcmsteeringV09_main_2lflm.obj
 0001:001d2010       c71_b_sf_marshallIn        00000001801d3010 f   c71_six_plus_six_AcmsteeringV09_main_2lflm.obj
 0001:001d20b0       c71_c_emlrt_marshallIn     00000001801d30b0 f   c71_six_plus_six_AcmsteeringV09_main_2lflm.obj
 0001:001d2140       sf_opaque_get_sim_state_c71_six_plus_six_AcmsteeringV09_main_2lflm 00000001801d3140 f   c71_six_plus_six_AcmsteeringV09_main_2lflm.obj
 0001:001d2160       sf_opaque_set_sim_state_c71_six_plus_six_AcmsteeringV09_main_2lflm 00000001801d3160 f   c71_six_plus_six_AcmsteeringV09_main_2lflm.obj
 0001:001d2190       sf_opaque_terminate_c71_six_plus_six_AcmsteeringV09_main_2lflm 00000001801d3190 f   c71_six_plus_six_AcmsteeringV09_main_2lflm.obj
 0001:001d2230       finalize_c71_six_plus_six_AcmsteeringV09_main_2lflm 00000001801d3230 f   c71_six_plus_six_AcmsteeringV09_main_2lflm.obj
 0001:001d2240       sf_opaque_init_subchart_simstructs 00000001801d3240 f   c71_six_plus_six_AcmsteeringV09_main_2lflm.obj
 0001:001d2260       initSimStructsc71_six_plus_six_AcmsteeringV09_main_2lflm 00000001801d3260 f   c71_six_plus_six_AcmsteeringV09_main_2lflm.obj
 0001:001d2270       mdlRTW_c71_six_plus_six_AcmsteeringV09_main_2lflm 00000001801d3270 f   c71_six_plus_six_AcmsteeringV09_main_2lflm.obj
 0001:001d2d00       get_sim_state_c72_six_plus_six_AcmsteeringV09_main_2lflm 00000001801d3d00 f   c72_six_plus_six_AcmsteeringV09_main_2lflm.obj
 0001:001d2eb0       sf_get_sim_state_info_c72_six_plus_six_AcmsteeringV09_main_2lflm 00000001801d3eb0 f   c72_six_plus_six_AcmsteeringV09_main_2lflm.obj
 0001:001d3080       set_sim_state_c72_six_plus_six_AcmsteeringV09_main_2lflm 00000001801d4080 f   c72_six_plus_six_AcmsteeringV09_main_2lflm.obj
 0001:001d3150       c72_update_debugger_state_c72_six_plus_six_AcmsteeringV09_main_2 00000001801d4150 f   c72_six_plus_six_AcmsteeringV09_main_2lflm.obj
 0001:001d3160       c72_emlrt_marshallIn       00000001801d4160 f   c72_six_plus_six_AcmsteeringV09_main_2lflm.obj
 0001:001d31c0       c72_b_emlrt_marshallIn     00000001801d41c0 f   c72_six_plus_six_AcmsteeringV09_main_2lflm.obj
 0001:001d3250       c72_e_emlrt_marshallIn     00000001801d4250 f   c72_six_plus_six_AcmsteeringV09_main_2lflm.obj
 0001:001d32b0       c72_f_emlrt_marshallIn     00000001801d42b0 f   c72_six_plus_six_AcmsteeringV09_main_2lflm.obj
 0001:001d33b0       mdlProcessParameters_c72_six_plus_six_AcmsteeringV09_main_2lflm 00000001801d43b0 f   c72_six_plus_six_AcmsteeringV09_main_2lflm.obj
 0001:001d3490       initialize_params_c72_six_plus_six_AcmsteeringV09_main_2lflm 00000001801d4490 f   c72_six_plus_six_AcmsteeringV09_main_2lflm.obj
 0001:001d34a0       mdlSetWorkWidths_c72_six_plus_six_AcmsteeringV09_main_2lflm 00000001801d44a0 f   c72_six_plus_six_AcmsteeringV09_main_2lflm.obj
 0001:001d3a00       sf_get_instance_specialization 00000001801d4a00 f   c72_six_plus_six_AcmsteeringV09_main_2lflm.obj
 0001:001d3a10       mdlStart_c72_six_plus_six_AcmsteeringV09_main_2lflm 00000001801d4a10 f   c72_six_plus_six_AcmsteeringV09_main_2lflm.obj
 0001:001d3c40       init_dsm_address_info      00000001801d4c40 f   c72_six_plus_six_AcmsteeringV09_main_2lflm.obj
 0001:001d3c50       chart_debug_initialization 00000001801d4c50 f   c72_six_plus_six_AcmsteeringV09_main_2lflm.obj
 0001:001d4880       init_script_number_translation 00000001801d5880 f   c72_six_plus_six_AcmsteeringV09_main_2lflm.obj
 0001:001d48a0       c72_sf_marshallOut         00000001801d58a0 f   c72_six_plus_six_AcmsteeringV09_main_2lflm.obj
 0001:001d4950       c72_sf_marshallIn          00000001801d5950 f   c72_six_plus_six_AcmsteeringV09_main_2lflm.obj
 0001:001d49f0       c72_b_sf_marshallOut       00000001801d59f0 f   c72_six_plus_six_AcmsteeringV09_main_2lflm.obj
 0001:001d4ab0       sf_opaque_initialize_c72_six_plus_six_AcmsteeringV09_main_2lflm 00000001801d5ab0 f   c72_six_plus_six_AcmsteeringV09_main_2lflm.obj
 0001:001d4af0       initialize_c72_six_plus_six_AcmsteeringV09_main_2lflm 00000001801d5af0 f   c72_six_plus_six_AcmsteeringV09_main_2lflm.obj
 0001:001d4b40       sf_opaque_enable_c72_six_plus_six_AcmsteeringV09_main_2lflm 00000001801d5b40 f   c72_six_plus_six_AcmsteeringV09_main_2lflm.obj
 0001:001d4b60       enable_c72_six_plus_six_AcmsteeringV09_main_2lflm 00000001801d5b60 f   c72_six_plus_six_AcmsteeringV09_main_2lflm.obj
 0001:001d4b90       sf_opaque_disable_c72_six_plus_six_AcmsteeringV09_main_2lflm 00000001801d5b90 f   c72_six_plus_six_AcmsteeringV09_main_2lflm.obj
 0001:001d4bb0       disable_c72_six_plus_six_AcmsteeringV09_main_2lflm 00000001801d5bb0 f   c72_six_plus_six_AcmsteeringV09_main_2lflm.obj
 0001:001d4be0       sf_opaque_gateway_c72_six_plus_six_AcmsteeringV09_main_2lflm 00000001801d5be0 f   c72_six_plus_six_AcmsteeringV09_main_2lflm.obj
 0001:001d4c00       sf_gateway_c72_six_plus_six_AcmsteeringV09_main_2lflm 00000001801d5c00 f   c72_six_plus_six_AcmsteeringV09_main_2lflm.obj
 0001:001d56c0       c72_c_sf_marshallOut       00000001801d66c0 f   c72_six_plus_six_AcmsteeringV09_main_2lflm.obj
 0001:001d5770       c72_b_sf_marshallIn        00000001801d6770 f   c72_six_plus_six_AcmsteeringV09_main_2lflm.obj
 0001:001d5810       c72_c_emlrt_marshallIn     00000001801d6810 f   c72_six_plus_six_AcmsteeringV09_main_2lflm.obj
 0001:001d58a0       sf_opaque_get_sim_state_c72_six_plus_six_AcmsteeringV09_main_2lflm 00000001801d68a0 f   c72_six_plus_six_AcmsteeringV09_main_2lflm.obj
 0001:001d58c0       sf_opaque_set_sim_state_c72_six_plus_six_AcmsteeringV09_main_2lflm 00000001801d68c0 f   c72_six_plus_six_AcmsteeringV09_main_2lflm.obj
 0001:001d58f0       sf_opaque_terminate_c72_six_plus_six_AcmsteeringV09_main_2lflm 00000001801d68f0 f   c72_six_plus_six_AcmsteeringV09_main_2lflm.obj
 0001:001d5990       finalize_c72_six_plus_six_AcmsteeringV09_main_2lflm 00000001801d6990 f   c72_six_plus_six_AcmsteeringV09_main_2lflm.obj
 0001:001d59a0       sf_opaque_init_subchart_simstructs 00000001801d69a0 f   c72_six_plus_six_AcmsteeringV09_main_2lflm.obj
 0001:001d59c0       initSimStructsc72_six_plus_six_AcmsteeringV09_main_2lflm 00000001801d69c0 f   c72_six_plus_six_AcmsteeringV09_main_2lflm.obj
 0001:001d59d0       mdlRTW_c72_six_plus_six_AcmsteeringV09_main_2lflm 00000001801d69d0 f   c72_six_plus_six_AcmsteeringV09_main_2lflm.obj
 0001:001d6460       get_sim_state_c73_six_plus_six_AcmsteeringV09_main_2lflm 00000001801d7460 f   c73_six_plus_six_AcmsteeringV09_main_2lflm.obj
 0001:001d6600       sf_get_sim_state_info_c73_six_plus_six_AcmsteeringV09_main_2lflm 00000001801d7600 f   c73_six_plus_six_AcmsteeringV09_main_2lflm.obj
 0001:001d67d0       set_sim_state_c73_six_plus_six_AcmsteeringV09_main_2lflm 00000001801d77d0 f   c73_six_plus_six_AcmsteeringV09_main_2lflm.obj
 0001:001d68a0       c73_update_debugger_state_c73_six_plus_six_AcmsteeringV09_main_2 00000001801d78a0 f   c73_six_plus_six_AcmsteeringV09_main_2lflm.obj
 0001:001d68b0       c73_emlrt_marshallIn       00000001801d78b0 f   c73_six_plus_six_AcmsteeringV09_main_2lflm.obj
 0001:001d6910       c73_b_emlrt_marshallIn     00000001801d7910 f   c73_six_plus_six_AcmsteeringV09_main_2lflm.obj
 0001:001d69a0       c73_e_emlrt_marshallIn     00000001801d79a0 f   c73_six_plus_six_AcmsteeringV09_main_2lflm.obj
 0001:001d6a00       c73_f_emlrt_marshallIn     00000001801d7a00 f   c73_six_plus_six_AcmsteeringV09_main_2lflm.obj
 0001:001d6b00       mdlProcessParameters_c73_six_plus_six_AcmsteeringV09_main_2lflm 00000001801d7b00 f   c73_six_plus_six_AcmsteeringV09_main_2lflm.obj
 0001:001d6be0       initialize_params_c73_six_plus_six_AcmsteeringV09_main_2lflm 00000001801d7be0 f   c73_six_plus_six_AcmsteeringV09_main_2lflm.obj
 0001:001d6bf0       mdlSetWorkWidths_c73_six_plus_six_AcmsteeringV09_main_2lflm 00000001801d7bf0 f   c73_six_plus_six_AcmsteeringV09_main_2lflm.obj
 0001:001d7150       sf_get_instance_specialization 00000001801d8150 f   c73_six_plus_six_AcmsteeringV09_main_2lflm.obj
 0001:001d7160       mdlStart_c73_six_plus_six_AcmsteeringV09_main_2lflm 00000001801d8160 f   c73_six_plus_six_AcmsteeringV09_main_2lflm.obj
 0001:001d7390       init_dsm_address_info      00000001801d8390 f   c73_six_plus_six_AcmsteeringV09_main_2lflm.obj
 0001:001d73a0       chart_debug_initialization 00000001801d83a0 f   c73_six_plus_six_AcmsteeringV09_main_2lflm.obj
 0001:001d7fd0       init_script_number_translation 00000001801d8fd0 f   c73_six_plus_six_AcmsteeringV09_main_2lflm.obj
 0001:001d7ff0       c73_sf_marshallOut         00000001801d8ff0 f   c73_six_plus_six_AcmsteeringV09_main_2lflm.obj
 0001:001d80a0       c73_sf_marshallIn          00000001801d90a0 f   c73_six_plus_six_AcmsteeringV09_main_2lflm.obj
 0001:001d8140       c73_b_sf_marshallOut       00000001801d9140 f   c73_six_plus_six_AcmsteeringV09_main_2lflm.obj
 0001:001d8200       sf_opaque_initialize_c73_six_plus_six_AcmsteeringV09_main_2lflm 00000001801d9200 f   c73_six_plus_six_AcmsteeringV09_main_2lflm.obj
 0001:001d8240       initialize_c73_six_plus_six_AcmsteeringV09_main_2lflm 00000001801d9240 f   c73_six_plus_six_AcmsteeringV09_main_2lflm.obj
 0001:001d8290       sf_opaque_enable_c73_six_plus_six_AcmsteeringV09_main_2lflm 00000001801d9290 f   c73_six_plus_six_AcmsteeringV09_main_2lflm.obj
 0001:001d82b0       enable_c73_six_plus_six_AcmsteeringV09_main_2lflm 00000001801d92b0 f   c73_six_plus_six_AcmsteeringV09_main_2lflm.obj
 0001:001d82e0       sf_opaque_disable_c73_six_plus_six_AcmsteeringV09_main_2lflm 00000001801d92e0 f   c73_six_plus_six_AcmsteeringV09_main_2lflm.obj
 0001:001d8300       disable_c73_six_plus_six_AcmsteeringV09_main_2lflm 00000001801d9300 f   c73_six_plus_six_AcmsteeringV09_main_2lflm.obj
 0001:001d8330       sf_opaque_gateway_c73_six_plus_six_AcmsteeringV09_main_2lflm 00000001801d9330 f   c73_six_plus_six_AcmsteeringV09_main_2lflm.obj
 0001:001d8350       sf_gateway_c73_six_plus_six_AcmsteeringV09_main_2lflm 00000001801d9350 f   c73_six_plus_six_AcmsteeringV09_main_2lflm.obj
 0001:001d8e10       c73_c_sf_marshallOut       00000001801d9e10 f   c73_six_plus_six_AcmsteeringV09_main_2lflm.obj
 0001:001d8ec0       c73_b_sf_marshallIn        00000001801d9ec0 f   c73_six_plus_six_AcmsteeringV09_main_2lflm.obj
 0001:001d8f60       c73_c_emlrt_marshallIn     00000001801d9f60 f   c73_six_plus_six_AcmsteeringV09_main_2lflm.obj
 0001:001d8ff0       sf_opaque_get_sim_state_c73_six_plus_six_AcmsteeringV09_main_2lflm 00000001801d9ff0 f   c73_six_plus_six_AcmsteeringV09_main_2lflm.obj
 0001:001d9010       sf_opaque_set_sim_state_c73_six_plus_six_AcmsteeringV09_main_2lflm 00000001801da010 f   c73_six_plus_six_AcmsteeringV09_main_2lflm.obj
 0001:001d9040       sf_opaque_terminate_c73_six_plus_six_AcmsteeringV09_main_2lflm 00000001801da040 f   c73_six_plus_six_AcmsteeringV09_main_2lflm.obj
 0001:001d90e0       finalize_c73_six_plus_six_AcmsteeringV09_main_2lflm 00000001801da0e0 f   c73_six_plus_six_AcmsteeringV09_main_2lflm.obj
 0001:001d90f0       sf_opaque_init_subchart_simstructs 00000001801da0f0 f   c73_six_plus_six_AcmsteeringV09_main_2lflm.obj
 0001:001d9110       initSimStructsc73_six_plus_six_AcmsteeringV09_main_2lflm 00000001801da110 f   c73_six_plus_six_AcmsteeringV09_main_2lflm.obj
 0001:001d9120       mdlRTW_c73_six_plus_six_AcmsteeringV09_main_2lflm 00000001801da120 f   c73_six_plus_six_AcmsteeringV09_main_2lflm.obj
 0001:001d9bb0       get_sim_state_c74_six_plus_six_AcmsteeringV09_main_2lflm 00000001801dabb0 f   c74_six_plus_six_AcmsteeringV09_main_2lflm.obj
 0001:001d9d50       sf_get_sim_state_info_c74_six_plus_six_AcmsteeringV09_main_2lflm 00000001801dad50 f   c74_six_plus_six_AcmsteeringV09_main_2lflm.obj
 0001:001d9f20       set_sim_state_c74_six_plus_six_AcmsteeringV09_main_2lflm 00000001801daf20 f   c74_six_plus_six_AcmsteeringV09_main_2lflm.obj
 0001:001d9ff0       c74_update_debugger_state_c74_six_plus_six_AcmsteeringV09_main_2 00000001801daff0 f   c74_six_plus_six_AcmsteeringV09_main_2lflm.obj
 0001:001da000       c74_emlrt_marshallIn       00000001801db000 f   c74_six_plus_six_AcmsteeringV09_main_2lflm.obj
 0001:001da060       c74_b_emlrt_marshallIn     00000001801db060 f   c74_six_plus_six_AcmsteeringV09_main_2lflm.obj
 0001:001da0f0       c74_e_emlrt_marshallIn     00000001801db0f0 f   c74_six_plus_six_AcmsteeringV09_main_2lflm.obj
 0001:001da150       c74_f_emlrt_marshallIn     00000001801db150 f   c74_six_plus_six_AcmsteeringV09_main_2lflm.obj
 0001:001da250       mdlProcessParameters_c74_six_plus_six_AcmsteeringV09_main_2lflm 00000001801db250 f   c74_six_plus_six_AcmsteeringV09_main_2lflm.obj
 0001:001da330       initialize_params_c74_six_plus_six_AcmsteeringV09_main_2lflm 00000001801db330 f   c74_six_plus_six_AcmsteeringV09_main_2lflm.obj
 0001:001da340       mdlSetWorkWidths_c74_six_plus_six_AcmsteeringV09_main_2lflm 00000001801db340 f   c74_six_plus_six_AcmsteeringV09_main_2lflm.obj
 0001:001da8a0       sf_get_instance_specialization 00000001801db8a0 f   c74_six_plus_six_AcmsteeringV09_main_2lflm.obj
 0001:001da8b0       mdlStart_c74_six_plus_six_AcmsteeringV09_main_2lflm 00000001801db8b0 f   c74_six_plus_six_AcmsteeringV09_main_2lflm.obj
 0001:001daae0       init_dsm_address_info      00000001801dbae0 f   c74_six_plus_six_AcmsteeringV09_main_2lflm.obj
 0001:001daaf0       chart_debug_initialization 00000001801dbaf0 f   c74_six_plus_six_AcmsteeringV09_main_2lflm.obj
 0001:001db720       init_script_number_translation 00000001801dc720 f   c74_six_plus_six_AcmsteeringV09_main_2lflm.obj
 0001:001db740       c74_sf_marshallOut         00000001801dc740 f   c74_six_plus_six_AcmsteeringV09_main_2lflm.obj
 0001:001db7f0       c74_sf_marshallIn          00000001801dc7f0 f   c74_six_plus_six_AcmsteeringV09_main_2lflm.obj
 0001:001db890       c74_b_sf_marshallOut       00000001801dc890 f   c74_six_plus_six_AcmsteeringV09_main_2lflm.obj
 0001:001db950       sf_opaque_initialize_c74_six_plus_six_AcmsteeringV09_main_2lflm 00000001801dc950 f   c74_six_plus_six_AcmsteeringV09_main_2lflm.obj
 0001:001db990       initialize_c74_six_plus_six_AcmsteeringV09_main_2lflm 00000001801dc990 f   c74_six_plus_six_AcmsteeringV09_main_2lflm.obj
 0001:001db9e0       sf_opaque_enable_c74_six_plus_six_AcmsteeringV09_main_2lflm 00000001801dc9e0 f   c74_six_plus_six_AcmsteeringV09_main_2lflm.obj
 0001:001dba00       enable_c74_six_plus_six_AcmsteeringV09_main_2lflm 00000001801dca00 f   c74_six_plus_six_AcmsteeringV09_main_2lflm.obj
 0001:001dba30       sf_opaque_disable_c74_six_plus_six_AcmsteeringV09_main_2lflm 00000001801dca30 f   c74_six_plus_six_AcmsteeringV09_main_2lflm.obj
 0001:001dba50       disable_c74_six_plus_six_AcmsteeringV09_main_2lflm 00000001801dca50 f   c74_six_plus_six_AcmsteeringV09_main_2lflm.obj
 0001:001dba80       sf_opaque_gateway_c74_six_plus_six_AcmsteeringV09_main_2lflm 00000001801dca80 f   c74_six_plus_six_AcmsteeringV09_main_2lflm.obj
 0001:001dbaa0       sf_gateway_c74_six_plus_six_AcmsteeringV09_main_2lflm 00000001801dcaa0 f   c74_six_plus_six_AcmsteeringV09_main_2lflm.obj
 0001:001dc560       c74_c_sf_marshallOut       00000001801dd560 f   c74_six_plus_six_AcmsteeringV09_main_2lflm.obj
 0001:001dc610       c74_b_sf_marshallIn        00000001801dd610 f   c74_six_plus_six_AcmsteeringV09_main_2lflm.obj
 0001:001dc6b0       c74_c_emlrt_marshallIn     00000001801dd6b0 f   c74_six_plus_six_AcmsteeringV09_main_2lflm.obj
 0001:001dc740       sf_opaque_get_sim_state_c74_six_plus_six_AcmsteeringV09_main_2lflm 00000001801dd740 f   c74_six_plus_six_AcmsteeringV09_main_2lflm.obj
 0001:001dc760       sf_opaque_set_sim_state_c74_six_plus_six_AcmsteeringV09_main_2lflm 00000001801dd760 f   c74_six_plus_six_AcmsteeringV09_main_2lflm.obj
 0001:001dc790       sf_opaque_terminate_c74_six_plus_six_AcmsteeringV09_main_2lflm 00000001801dd790 f   c74_six_plus_six_AcmsteeringV09_main_2lflm.obj
 0001:001dc830       finalize_c74_six_plus_six_AcmsteeringV09_main_2lflm 00000001801dd830 f   c74_six_plus_six_AcmsteeringV09_main_2lflm.obj
 0001:001dc840       sf_opaque_init_subchart_simstructs 00000001801dd840 f   c74_six_plus_six_AcmsteeringV09_main_2lflm.obj
 0001:001dc860       initSimStructsc74_six_plus_six_AcmsteeringV09_main_2lflm 00000001801dd860 f   c74_six_plus_six_AcmsteeringV09_main_2lflm.obj
 0001:001dc870       mdlRTW_c74_six_plus_six_AcmsteeringV09_main_2lflm 00000001801dd870 f   c74_six_plus_six_AcmsteeringV09_main_2lflm.obj
 0001:001dd300       get_sim_state_c75_six_plus_six_AcmsteeringV09_main_2lflm 00000001801de300 f   c75_six_plus_six_AcmsteeringV09_main_2lflm.obj
 0001:001dd4a0       sf_get_sim_state_info_c75_six_plus_six_AcmsteeringV09_main_2lflm 00000001801de4a0 f   c75_six_plus_six_AcmsteeringV09_main_2lflm.obj
 0001:001dd670       set_sim_state_c75_six_plus_six_AcmsteeringV09_main_2lflm 00000001801de670 f   c75_six_plus_six_AcmsteeringV09_main_2lflm.obj
 0001:001dd740       c75_update_debugger_state_c75_six_plus_six_AcmsteeringV09_main_2 00000001801de740 f   c75_six_plus_six_AcmsteeringV09_main_2lflm.obj
 0001:001dd750       c75_emlrt_marshallIn       00000001801de750 f   c75_six_plus_six_AcmsteeringV09_main_2lflm.obj
 0001:001dd7b0       c75_b_emlrt_marshallIn     00000001801de7b0 f   c75_six_plus_six_AcmsteeringV09_main_2lflm.obj
 0001:001dd840       c75_e_emlrt_marshallIn     00000001801de840 f   c75_six_plus_six_AcmsteeringV09_main_2lflm.obj
 0001:001dd8a0       c75_f_emlrt_marshallIn     00000001801de8a0 f   c75_six_plus_six_AcmsteeringV09_main_2lflm.obj
 0001:001dd9a0       mdlProcessParameters_c75_six_plus_six_AcmsteeringV09_main_2lflm 00000001801de9a0 f   c75_six_plus_six_AcmsteeringV09_main_2lflm.obj
 0001:001dda80       initialize_params_c75_six_plus_six_AcmsteeringV09_main_2lflm 00000001801dea80 f   c75_six_plus_six_AcmsteeringV09_main_2lflm.obj
 0001:001dda90       mdlSetWorkWidths_c75_six_plus_six_AcmsteeringV09_main_2lflm 00000001801dea90 f   c75_six_plus_six_AcmsteeringV09_main_2lflm.obj
 0001:001ddff0       sf_get_instance_specialization 00000001801deff0 f   c75_six_plus_six_AcmsteeringV09_main_2lflm.obj
 0001:001de000       mdlStart_c75_six_plus_six_AcmsteeringV09_main_2lflm 00000001801df000 f   c75_six_plus_six_AcmsteeringV09_main_2lflm.obj
 0001:001de230       init_dsm_address_info      00000001801df230 f   c75_six_plus_six_AcmsteeringV09_main_2lflm.obj
 0001:001de240       chart_debug_initialization 00000001801df240 f   c75_six_plus_six_AcmsteeringV09_main_2lflm.obj
 0001:001dee70       init_script_number_translation 00000001801dfe70 f   c75_six_plus_six_AcmsteeringV09_main_2lflm.obj
 0001:001dee90       c75_sf_marshallOut         00000001801dfe90 f   c75_six_plus_six_AcmsteeringV09_main_2lflm.obj
 0001:001def40       c75_sf_marshallIn          00000001801dff40 f   c75_six_plus_six_AcmsteeringV09_main_2lflm.obj
 0001:001defe0       c75_b_sf_marshallOut       00000001801dffe0 f   c75_six_plus_six_AcmsteeringV09_main_2lflm.obj
 0001:001df0a0       sf_opaque_initialize_c75_six_plus_six_AcmsteeringV09_main_2lflm 00000001801e00a0 f   c75_six_plus_six_AcmsteeringV09_main_2lflm.obj
 0001:001df0e0       initialize_c75_six_plus_six_AcmsteeringV09_main_2lflm 00000001801e00e0 f   c75_six_plus_six_AcmsteeringV09_main_2lflm.obj
 0001:001df130       sf_opaque_enable_c75_six_plus_six_AcmsteeringV09_main_2lflm 00000001801e0130 f   c75_six_plus_six_AcmsteeringV09_main_2lflm.obj
 0001:001df150       enable_c75_six_plus_six_AcmsteeringV09_main_2lflm 00000001801e0150 f   c75_six_plus_six_AcmsteeringV09_main_2lflm.obj
 0001:001df180       sf_opaque_disable_c75_six_plus_six_AcmsteeringV09_main_2lflm 00000001801e0180 f   c75_six_plus_six_AcmsteeringV09_main_2lflm.obj
 0001:001df1a0       disable_c75_six_plus_six_AcmsteeringV09_main_2lflm 00000001801e01a0 f   c75_six_plus_six_AcmsteeringV09_main_2lflm.obj
 0001:001df1d0       sf_opaque_gateway_c75_six_plus_six_AcmsteeringV09_main_2lflm 00000001801e01d0 f   c75_six_plus_six_AcmsteeringV09_main_2lflm.obj
 0001:001df1f0       sf_gateway_c75_six_plus_six_AcmsteeringV09_main_2lflm 00000001801e01f0 f   c75_six_plus_six_AcmsteeringV09_main_2lflm.obj
 0001:001dfcb0       c75_c_sf_marshallOut       00000001801e0cb0 f   c75_six_plus_six_AcmsteeringV09_main_2lflm.obj
 0001:001dfd60       c75_b_sf_marshallIn        00000001801e0d60 f   c75_six_plus_six_AcmsteeringV09_main_2lflm.obj
 0001:001dfe00       c75_c_emlrt_marshallIn     00000001801e0e00 f   c75_six_plus_six_AcmsteeringV09_main_2lflm.obj
 0001:001dfe90       sf_opaque_get_sim_state_c75_six_plus_six_AcmsteeringV09_main_2lflm 00000001801e0e90 f   c75_six_plus_six_AcmsteeringV09_main_2lflm.obj
 0001:001dfeb0       sf_opaque_set_sim_state_c75_six_plus_six_AcmsteeringV09_main_2lflm 00000001801e0eb0 f   c75_six_plus_six_AcmsteeringV09_main_2lflm.obj
 0001:001dfee0       sf_opaque_terminate_c75_six_plus_six_AcmsteeringV09_main_2lflm 00000001801e0ee0 f   c75_six_plus_six_AcmsteeringV09_main_2lflm.obj
 0001:001dff80       finalize_c75_six_plus_six_AcmsteeringV09_main_2lflm 00000001801e0f80 f   c75_six_plus_six_AcmsteeringV09_main_2lflm.obj
 0001:001dff90       sf_opaque_init_subchart_simstructs 00000001801e0f90 f   c75_six_plus_six_AcmsteeringV09_main_2lflm.obj
 0001:001dffb0       initSimStructsc75_six_plus_six_AcmsteeringV09_main_2lflm 00000001801e0fb0 f   c75_six_plus_six_AcmsteeringV09_main_2lflm.obj
 0001:001dffc0       mdlRTW_c75_six_plus_six_AcmsteeringV09_main_2lflm 00000001801e0fc0 f   c75_six_plus_six_AcmsteeringV09_main_2lflm.obj
 0001:001e0070       c76_info_helper            00000001801e1070 f   c76_six_plus_six_AcmsteeringV09_main_2lflm.obj
 0001:001e13b0       c76_emlrt_marshallOut      00000001801e23b0 f   c76_six_plus_six_AcmsteeringV09_main_2lflm.obj
 0001:001e1440       c76_b_emlrt_marshallOut    00000001801e2440 f   c76_six_plus_six_AcmsteeringV09_main_2lflm.obj
 0001:001e3e70       get_sim_state_c76_six_plus_six_AcmsteeringV09_main_2lflm 00000001801e4e70 f   c76_six_plus_six_AcmsteeringV09_main_2lflm.obj
 0001:001e4640       sf_get_sim_state_info_c76_six_plus_six_AcmsteeringV09_main_2lflm 00000001801e5640 f   c76_six_plus_six_AcmsteeringV09_main_2lflm.obj
 0001:001e4810       set_sim_state_c76_six_plus_six_AcmsteeringV09_main_2lflm 00000001801e5810 f   c76_six_plus_six_AcmsteeringV09_main_2lflm.obj
 0001:001e4ba0       c76_update_debugger_state_c76_six_plus_six_AcmsteeringV09_main_2 00000001801e5ba0 f   c76_six_plus_six_AcmsteeringV09_main_2lflm.obj
 0001:001e4bb0       c76_emlrt_marshallIn       00000001801e5bb0 f   c76_six_plus_six_AcmsteeringV09_main_2lflm.obj
 0001:001e4c10       c76_b_emlrt_marshallIn     00000001801e5c10 f   c76_six_plus_six_AcmsteeringV09_main_2lflm.obj
 0001:001e4ca0       c76_c_emlrt_marshallIn     00000001801e5ca0 f   c76_six_plus_six_AcmsteeringV09_main_2lflm.obj
 0001:001e4d10       c76_d_emlrt_marshallIn     00000001801e5d10 f   c76_six_plus_six_AcmsteeringV09_main_2lflm.obj
 0001:001e4da0       c76_g_emlrt_marshallIn     00000001801e5da0 f   c76_six_plus_six_AcmsteeringV09_main_2lflm.obj
 0001:001e4e00       c76_h_emlrt_marshallIn     00000001801e5e00 f   c76_six_plus_six_AcmsteeringV09_main_2lflm.obj
 0001:001e4f00       mdlProcessParameters_c76_six_plus_six_AcmsteeringV09_main_2lflm 00000001801e5f00 f   c76_six_plus_six_AcmsteeringV09_main_2lflm.obj
 0001:001e4fe0       initialize_params_c76_six_plus_six_AcmsteeringV09_main_2lflm 00000001801e5fe0 f   c76_six_plus_six_AcmsteeringV09_main_2lflm.obj
 0001:001e4ff0       mdlSetWorkWidths_c76_six_plus_six_AcmsteeringV09_main_2lflm 00000001801e5ff0 f   c76_six_plus_six_AcmsteeringV09_main_2lflm.obj
 0001:001e5880       sf_get_instance_specialization 00000001801e6880 f   c76_six_plus_six_AcmsteeringV09_main_2lflm.obj
 0001:001e5890       mdlStart_c76_six_plus_six_AcmsteeringV09_main_2lflm 00000001801e6890 f   c76_six_plus_six_AcmsteeringV09_main_2lflm.obj
 0001:001e5ac0       init_dsm_address_info      00000001801e6ac0 f   c76_six_plus_six_AcmsteeringV09_main_2lflm.obj
 0001:001e5ad0       chart_debug_initialization 00000001801e6ad0 f   c76_six_plus_six_AcmsteeringV09_main_2lflm.obj
 0001:001ec720       init_script_number_translation 00000001801ed720 f   c76_six_plus_six_AcmsteeringV09_main_2lflm.obj
 0001:001ec740       c76_sf_marshallOut         00000001801ed740 f   c76_six_plus_six_AcmsteeringV09_main_2lflm.obj
 0001:001ec7f0       c76_sf_marshallIn          00000001801ed7f0 f   c76_six_plus_six_AcmsteeringV09_main_2lflm.obj
 0001:001ec890       c76_b_sf_marshallOut       00000001801ed890 f   c76_six_plus_six_AcmsteeringV09_main_2lflm.obj
 0001:001ec950       c76_b_sf_marshallIn        00000001801ed950 f   c76_six_plus_six_AcmsteeringV09_main_2lflm.obj
 0001:001ec9f0       sf_opaque_initialize_c76_six_plus_six_AcmsteeringV09_main_2lflm 00000001801ed9f0 f   c76_six_plus_six_AcmsteeringV09_main_2lflm.obj
 0001:001eca30       initialize_c76_six_plus_six_AcmsteeringV09_main_2lflm 00000001801eda30 f   c76_six_plus_six_AcmsteeringV09_main_2lflm.obj
 0001:001eca80       sf_opaque_enable_c76_six_plus_six_AcmsteeringV09_main_2lflm 00000001801eda80 f   c76_six_plus_six_AcmsteeringV09_main_2lflm.obj
 0001:001ecaa0       enable_c76_six_plus_six_AcmsteeringV09_main_2lflm 00000001801edaa0 f   c76_six_plus_six_AcmsteeringV09_main_2lflm.obj
 0001:001ecad0       sf_opaque_disable_c76_six_plus_six_AcmsteeringV09_main_2lflm 00000001801edad0 f   c76_six_plus_six_AcmsteeringV09_main_2lflm.obj
 0001:001ecaf0       disable_c76_six_plus_six_AcmsteeringV09_main_2lflm 00000001801edaf0 f   c76_six_plus_six_AcmsteeringV09_main_2lflm.obj
 0001:001ecb20       sf_opaque_gateway_c76_six_plus_six_AcmsteeringV09_main_2lflm 00000001801edb20 f   c76_six_plus_six_AcmsteeringV09_main_2lflm.obj
 0001:001ecb40       sf_gateway_c76_six_plus_six_AcmsteeringV09_main_2lflm 00000001801edb40 f   c76_six_plus_six_AcmsteeringV09_main_2lflm.obj
 0001:001ed8f0       c76_chartstep_c76_six_plus_six_AcmsteeringV09_main_2lflm 00000001801ee8f0 f   c76_six_plus_six_AcmsteeringV09_main_2lflm.obj
 0001:0021f3a0       c76_c_sf_marshallOut       00000001802203a0 f   c76_six_plus_six_AcmsteeringV09_main_2lflm.obj
 0001:0021f450       c76_c_sf_marshallIn        0000000180220450 f   c76_six_plus_six_AcmsteeringV09_main_2lflm.obj
 0001:0021f4f0       c76_e_emlrt_marshallIn     00000001802204f0 f   c76_six_plus_six_AcmsteeringV09_main_2lflm.obj
 0001:0021f580       sf_opaque_get_sim_state_c76_six_plus_six_AcmsteeringV09_main_2lflm 0000000180220580 f   c76_six_plus_six_AcmsteeringV09_main_2lflm.obj
 0001:0021f5a0       sf_opaque_set_sim_state_c76_six_plus_six_AcmsteeringV09_main_2lflm 00000001802205a0 f   c76_six_plus_six_AcmsteeringV09_main_2lflm.obj
 0001:0021f5d0       sf_opaque_terminate_c76_six_plus_six_AcmsteeringV09_main_2lflm 00000001802205d0 f   c76_six_plus_six_AcmsteeringV09_main_2lflm.obj
 0001:0021f670       finalize_c76_six_plus_six_AcmsteeringV09_main_2lflm 0000000180220670 f   c76_six_plus_six_AcmsteeringV09_main_2lflm.obj
 0001:0021f680       sf_opaque_init_subchart_simstructs 0000000180220680 f   c76_six_plus_six_AcmsteeringV09_main_2lflm.obj
 0001:0021f6a0       initSimStructsc76_six_plus_six_AcmsteeringV09_main_2lflm 00000001802206a0 f   c76_six_plus_six_AcmsteeringV09_main_2lflm.obj
 0001:0021f6b0       mdlRTW_c76_six_plus_six_AcmsteeringV09_main_2lflm 00000001802206b0 f   c76_six_plus_six_AcmsteeringV09_main_2lflm.obj
 0001:00220140       get_sim_state_c77_six_plus_six_AcmsteeringV09_main_2lflm 0000000180221140 f   c77_six_plus_six_AcmsteeringV09_main_2lflm.obj
 0001:002202e0       sf_get_sim_state_info_c77_six_plus_six_AcmsteeringV09_main_2lflm 00000001802212e0 f   c77_six_plus_six_AcmsteeringV09_main_2lflm.obj
 0001:002204b0       set_sim_state_c77_six_plus_six_AcmsteeringV09_main_2lflm 00000001802214b0 f   c77_six_plus_six_AcmsteeringV09_main_2lflm.obj
 0001:00220580       c77_update_debugger_state_c77_six_plus_six_AcmsteeringV09_main_2 0000000180221580 f   c77_six_plus_six_AcmsteeringV09_main_2lflm.obj
 0001:00220590       c77_emlrt_marshallIn       0000000180221590 f   c77_six_plus_six_AcmsteeringV09_main_2lflm.obj
 0001:002205f0       c77_b_emlrt_marshallIn     00000001802215f0 f   c77_six_plus_six_AcmsteeringV09_main_2lflm.obj
 0001:00220680       c77_e_emlrt_marshallIn     0000000180221680 f   c77_six_plus_six_AcmsteeringV09_main_2lflm.obj
 0001:002206e0       c77_f_emlrt_marshallIn     00000001802216e0 f   c77_six_plus_six_AcmsteeringV09_main_2lflm.obj
 0001:002207e0       mdlProcessParameters_c77_six_plus_six_AcmsteeringV09_main_2lflm 00000001802217e0 f   c77_six_plus_six_AcmsteeringV09_main_2lflm.obj
 0001:002208c0       initialize_params_c77_six_plus_six_AcmsteeringV09_main_2lflm 00000001802218c0 f   c77_six_plus_six_AcmsteeringV09_main_2lflm.obj
 0001:002208d0       mdlSetWorkWidths_c77_six_plus_six_AcmsteeringV09_main_2lflm 00000001802218d0 f   c77_six_plus_six_AcmsteeringV09_main_2lflm.obj
 0001:00220e30       sf_get_instance_specialization 0000000180221e30 f   c77_six_plus_six_AcmsteeringV09_main_2lflm.obj
 0001:00220e40       mdlStart_c77_six_plus_six_AcmsteeringV09_main_2lflm 0000000180221e40 f   c77_six_plus_six_AcmsteeringV09_main_2lflm.obj
 0001:00221070       init_dsm_address_info      0000000180222070 f   c77_six_plus_six_AcmsteeringV09_main_2lflm.obj
 0001:00221080       chart_debug_initialization 0000000180222080 f   c77_six_plus_six_AcmsteeringV09_main_2lflm.obj
 0001:00221cb0       init_script_number_translation 0000000180222cb0 f   c77_six_plus_six_AcmsteeringV09_main_2lflm.obj
 0001:00221cd0       c77_sf_marshallOut         0000000180222cd0 f   c77_six_plus_six_AcmsteeringV09_main_2lflm.obj
 0001:00221d80       c77_sf_marshallIn          0000000180222d80 f   c77_six_plus_six_AcmsteeringV09_main_2lflm.obj
 0001:00221e20       c77_b_sf_marshallOut       0000000180222e20 f   c77_six_plus_six_AcmsteeringV09_main_2lflm.obj
 0001:00221ee0       sf_opaque_initialize_c77_six_plus_six_AcmsteeringV09_main_2lflm 0000000180222ee0 f   c77_six_plus_six_AcmsteeringV09_main_2lflm.obj
 0001:00221f20       initialize_c77_six_plus_six_AcmsteeringV09_main_2lflm 0000000180222f20 f   c77_six_plus_six_AcmsteeringV09_main_2lflm.obj
 0001:00221f70       sf_opaque_enable_c77_six_plus_six_AcmsteeringV09_main_2lflm 0000000180222f70 f   c77_six_plus_six_AcmsteeringV09_main_2lflm.obj
 0001:00221f90       enable_c77_six_plus_six_AcmsteeringV09_main_2lflm 0000000180222f90 f   c77_six_plus_six_AcmsteeringV09_main_2lflm.obj
 0001:00221fc0       sf_opaque_disable_c77_six_plus_six_AcmsteeringV09_main_2lflm 0000000180222fc0 f   c77_six_plus_six_AcmsteeringV09_main_2lflm.obj
 0001:00221fe0       disable_c77_six_plus_six_AcmsteeringV09_main_2lflm 0000000180222fe0 f   c77_six_plus_six_AcmsteeringV09_main_2lflm.obj
 0001:00222010       sf_opaque_gateway_c77_six_plus_six_AcmsteeringV09_main_2lflm 0000000180223010 f   c77_six_plus_six_AcmsteeringV09_main_2lflm.obj
 0001:00222030       sf_gateway_c77_six_plus_six_AcmsteeringV09_main_2lflm 0000000180223030 f   c77_six_plus_six_AcmsteeringV09_main_2lflm.obj
 0001:00222af0       c77_c_sf_marshallOut       0000000180223af0 f   c77_six_plus_six_AcmsteeringV09_main_2lflm.obj
 0001:00222ba0       c77_b_sf_marshallIn        0000000180223ba0 f   c77_six_plus_six_AcmsteeringV09_main_2lflm.obj
 0001:00222c40       c77_c_emlrt_marshallIn     0000000180223c40 f   c77_six_plus_six_AcmsteeringV09_main_2lflm.obj
 0001:00222cd0       sf_opaque_get_sim_state_c77_six_plus_six_AcmsteeringV09_main_2lflm 0000000180223cd0 f   c77_six_plus_six_AcmsteeringV09_main_2lflm.obj
 0001:00222cf0       sf_opaque_set_sim_state_c77_six_plus_six_AcmsteeringV09_main_2lflm 0000000180223cf0 f   c77_six_plus_six_AcmsteeringV09_main_2lflm.obj
 0001:00222d20       sf_opaque_terminate_c77_six_plus_six_AcmsteeringV09_main_2lflm 0000000180223d20 f   c77_six_plus_six_AcmsteeringV09_main_2lflm.obj
 0001:00222dc0       finalize_c77_six_plus_six_AcmsteeringV09_main_2lflm 0000000180223dc0 f   c77_six_plus_six_AcmsteeringV09_main_2lflm.obj
 0001:00222dd0       sf_opaque_init_subchart_simstructs 0000000180223dd0 f   c77_six_plus_six_AcmsteeringV09_main_2lflm.obj
 0001:00222df0       initSimStructsc77_six_plus_six_AcmsteeringV09_main_2lflm 0000000180223df0 f   c77_six_plus_six_AcmsteeringV09_main_2lflm.obj
 0001:00222e00       mdlRTW_c77_six_plus_six_AcmsteeringV09_main_2lflm 0000000180223e00 f   c77_six_plus_six_AcmsteeringV09_main_2lflm.obj
 0001:00223890       get_sim_state_c78_six_plus_six_AcmsteeringV09_main_2lflm 0000000180224890 f   c78_six_plus_six_AcmsteeringV09_main_2lflm.obj
 0001:00223a30       sf_get_sim_state_info_c78_six_plus_six_AcmsteeringV09_main_2lflm 0000000180224a30 f   c78_six_plus_six_AcmsteeringV09_main_2lflm.obj
 0001:00223c00       set_sim_state_c78_six_plus_six_AcmsteeringV09_main_2lflm 0000000180224c00 f   c78_six_plus_six_AcmsteeringV09_main_2lflm.obj
 0001:00223cd0       c78_update_debugger_state_c78_six_plus_six_AcmsteeringV09_main_2 0000000180224cd0 f   c78_six_plus_six_AcmsteeringV09_main_2lflm.obj
 0001:00223ce0       c78_emlrt_marshallIn       0000000180224ce0 f   c78_six_plus_six_AcmsteeringV09_main_2lflm.obj
 0001:00223d40       c78_b_emlrt_marshallIn     0000000180224d40 f   c78_six_plus_six_AcmsteeringV09_main_2lflm.obj
 0001:00223dd0       c78_e_emlrt_marshallIn     0000000180224dd0 f   c78_six_plus_six_AcmsteeringV09_main_2lflm.obj
 0001:00223e30       c78_f_emlrt_marshallIn     0000000180224e30 f   c78_six_plus_six_AcmsteeringV09_main_2lflm.obj
 0001:00223f30       mdlProcessParameters_c78_six_plus_six_AcmsteeringV09_main_2lflm 0000000180224f30 f   c78_six_plus_six_AcmsteeringV09_main_2lflm.obj
 0001:00224010       initialize_params_c78_six_plus_six_AcmsteeringV09_main_2lflm 0000000180225010 f   c78_six_plus_six_AcmsteeringV09_main_2lflm.obj
 0001:00224020       mdlSetWorkWidths_c78_six_plus_six_AcmsteeringV09_main_2lflm 0000000180225020 f   c78_six_plus_six_AcmsteeringV09_main_2lflm.obj
 0001:00224580       sf_get_instance_specialization 0000000180225580 f   c78_six_plus_six_AcmsteeringV09_main_2lflm.obj
 0001:00224590       mdlStart_c78_six_plus_six_AcmsteeringV09_main_2lflm 0000000180225590 f   c78_six_plus_six_AcmsteeringV09_main_2lflm.obj
 0001:002247c0       init_dsm_address_info      00000001802257c0 f   c78_six_plus_six_AcmsteeringV09_main_2lflm.obj
 0001:002247d0       chart_debug_initialization 00000001802257d0 f   c78_six_plus_six_AcmsteeringV09_main_2lflm.obj
 0001:00225400       init_script_number_translation 0000000180226400 f   c78_six_plus_six_AcmsteeringV09_main_2lflm.obj
 0001:00225420       c78_sf_marshallOut         0000000180226420 f   c78_six_plus_six_AcmsteeringV09_main_2lflm.obj
 0001:002254d0       c78_sf_marshallIn          00000001802264d0 f   c78_six_plus_six_AcmsteeringV09_main_2lflm.obj
 0001:00225570       c78_b_sf_marshallOut       0000000180226570 f   c78_six_plus_six_AcmsteeringV09_main_2lflm.obj
 0001:00225630       sf_opaque_initialize_c78_six_plus_six_AcmsteeringV09_main_2lflm 0000000180226630 f   c78_six_plus_six_AcmsteeringV09_main_2lflm.obj
 0001:00225670       initialize_c78_six_plus_six_AcmsteeringV09_main_2lflm 0000000180226670 f   c78_six_plus_six_AcmsteeringV09_main_2lflm.obj
 0001:002256c0       sf_opaque_enable_c78_six_plus_six_AcmsteeringV09_main_2lflm 00000001802266c0 f   c78_six_plus_six_AcmsteeringV09_main_2lflm.obj
 0001:002256e0       enable_c78_six_plus_six_AcmsteeringV09_main_2lflm 00000001802266e0 f   c78_six_plus_six_AcmsteeringV09_main_2lflm.obj
 0001:00225710       sf_opaque_disable_c78_six_plus_six_AcmsteeringV09_main_2lflm 0000000180226710 f   c78_six_plus_six_AcmsteeringV09_main_2lflm.obj
 0001:00225730       disable_c78_six_plus_six_AcmsteeringV09_main_2lflm 0000000180226730 f   c78_six_plus_six_AcmsteeringV09_main_2lflm.obj
 0001:00225760       sf_opaque_gateway_c78_six_plus_six_AcmsteeringV09_main_2lflm 0000000180226760 f   c78_six_plus_six_AcmsteeringV09_main_2lflm.obj
 0001:00225780       sf_gateway_c78_six_plus_six_AcmsteeringV09_main_2lflm 0000000180226780 f   c78_six_plus_six_AcmsteeringV09_main_2lflm.obj
 0001:00226240       c78_c_sf_marshallOut       0000000180227240 f   c78_six_plus_six_AcmsteeringV09_main_2lflm.obj
 0001:002262f0       c78_b_sf_marshallIn        00000001802272f0 f   c78_six_plus_six_AcmsteeringV09_main_2lflm.obj
 0001:00226390       c78_c_emlrt_marshallIn     0000000180227390 f   c78_six_plus_six_AcmsteeringV09_main_2lflm.obj
 0001:00226420       sf_opaque_get_sim_state_c78_six_plus_six_AcmsteeringV09_main_2lflm 0000000180227420 f   c78_six_plus_six_AcmsteeringV09_main_2lflm.obj
 0001:00226440       sf_opaque_set_sim_state_c78_six_plus_six_AcmsteeringV09_main_2lflm 0000000180227440 f   c78_six_plus_six_AcmsteeringV09_main_2lflm.obj
 0001:00226470       sf_opaque_terminate_c78_six_plus_six_AcmsteeringV09_main_2lflm 0000000180227470 f   c78_six_plus_six_AcmsteeringV09_main_2lflm.obj
 0001:00226510       finalize_c78_six_plus_six_AcmsteeringV09_main_2lflm 0000000180227510 f   c78_six_plus_six_AcmsteeringV09_main_2lflm.obj
 0001:00226520       sf_opaque_init_subchart_simstructs 0000000180227520 f   c78_six_plus_six_AcmsteeringV09_main_2lflm.obj
 0001:00226540       initSimStructsc78_six_plus_six_AcmsteeringV09_main_2lflm 0000000180227540 f   c78_six_plus_six_AcmsteeringV09_main_2lflm.obj
 0001:00226550       mdlRTW_c78_six_plus_six_AcmsteeringV09_main_2lflm 0000000180227550 f   c78_six_plus_six_AcmsteeringV09_main_2lflm.obj
 0001:00226fe0       get_sim_state_c79_six_plus_six_AcmsteeringV09_main_2lflm 0000000180227fe0 f   c79_six_plus_six_AcmsteeringV09_main_2lflm.obj
 0001:00227180       sf_get_sim_state_info_c79_six_plus_six_AcmsteeringV09_main_2lflm 0000000180228180 f   c79_six_plus_six_AcmsteeringV09_main_2lflm.obj
 0001:00227350       set_sim_state_c79_six_plus_six_AcmsteeringV09_main_2lflm 0000000180228350 f   c79_six_plus_six_AcmsteeringV09_main_2lflm.obj
 0001:00227420       c79_update_debugger_state_c79_six_plus_six_AcmsteeringV09_main_2 0000000180228420 f   c79_six_plus_six_AcmsteeringV09_main_2lflm.obj
 0001:00227430       c79_emlrt_marshallIn       0000000180228430 f   c79_six_plus_six_AcmsteeringV09_main_2lflm.obj
 0001:00227490       c79_b_emlrt_marshallIn     0000000180228490 f   c79_six_plus_six_AcmsteeringV09_main_2lflm.obj
 0001:00227520       c79_e_emlrt_marshallIn     0000000180228520 f   c79_six_plus_six_AcmsteeringV09_main_2lflm.obj
 0001:00227580       c79_f_emlrt_marshallIn     0000000180228580 f   c79_six_plus_six_AcmsteeringV09_main_2lflm.obj
 0001:00227680       mdlProcessParameters_c79_six_plus_six_AcmsteeringV09_main_2lflm 0000000180228680 f   c79_six_plus_six_AcmsteeringV09_main_2lflm.obj
 0001:00227760       initialize_params_c79_six_plus_six_AcmsteeringV09_main_2lflm 0000000180228760 f   c79_six_plus_six_AcmsteeringV09_main_2lflm.obj
 0001:00227770       mdlSetWorkWidths_c79_six_plus_six_AcmsteeringV09_main_2lflm 0000000180228770 f   c79_six_plus_six_AcmsteeringV09_main_2lflm.obj
 0001:00227cd0       sf_get_instance_specialization 0000000180228cd0 f   c79_six_plus_six_AcmsteeringV09_main_2lflm.obj
 0001:00227ce0       mdlStart_c79_six_plus_six_AcmsteeringV09_main_2lflm 0000000180228ce0 f   c79_six_plus_six_AcmsteeringV09_main_2lflm.obj
 0001:00227f10       init_dsm_address_info      0000000180228f10 f   c79_six_plus_six_AcmsteeringV09_main_2lflm.obj
 0001:00227f20       chart_debug_initialization 0000000180228f20 f   c79_six_plus_six_AcmsteeringV09_main_2lflm.obj
 0001:00228b50       init_script_number_translation 0000000180229b50 f   c79_six_plus_six_AcmsteeringV09_main_2lflm.obj
 0001:00228b70       c79_sf_marshallOut         0000000180229b70 f   c79_six_plus_six_AcmsteeringV09_main_2lflm.obj
 0001:00228c20       c79_sf_marshallIn          0000000180229c20 f   c79_six_plus_six_AcmsteeringV09_main_2lflm.obj
 0001:00228cc0       c79_b_sf_marshallOut       0000000180229cc0 f   c79_six_plus_six_AcmsteeringV09_main_2lflm.obj
 0001:00228d80       sf_opaque_initialize_c79_six_plus_six_AcmsteeringV09_main_2lflm 0000000180229d80 f   c79_six_plus_six_AcmsteeringV09_main_2lflm.obj
 0001:00228dc0       initialize_c79_six_plus_six_AcmsteeringV09_main_2lflm 0000000180229dc0 f   c79_six_plus_six_AcmsteeringV09_main_2lflm.obj
 0001:00228e10       sf_opaque_enable_c79_six_plus_six_AcmsteeringV09_main_2lflm 0000000180229e10 f   c79_six_plus_six_AcmsteeringV09_main_2lflm.obj
 0001:00228e30       enable_c79_six_plus_six_AcmsteeringV09_main_2lflm 0000000180229e30 f   c79_six_plus_six_AcmsteeringV09_main_2lflm.obj
 0001:00228e60       sf_opaque_disable_c79_six_plus_six_AcmsteeringV09_main_2lflm 0000000180229e60 f   c79_six_plus_six_AcmsteeringV09_main_2lflm.obj
 0001:00228e80       disable_c79_six_plus_six_AcmsteeringV09_main_2lflm 0000000180229e80 f   c79_six_plus_six_AcmsteeringV09_main_2lflm.obj
 0001:00228eb0       sf_opaque_gateway_c79_six_plus_six_AcmsteeringV09_main_2lflm 0000000180229eb0 f   c79_six_plus_six_AcmsteeringV09_main_2lflm.obj
 0001:00228ed0       sf_gateway_c79_six_plus_six_AcmsteeringV09_main_2lflm 0000000180229ed0 f   c79_six_plus_six_AcmsteeringV09_main_2lflm.obj
 0001:00229990       c79_c_sf_marshallOut       000000018022a990 f   c79_six_plus_six_AcmsteeringV09_main_2lflm.obj
 0001:00229a40       c79_b_sf_marshallIn        000000018022aa40 f   c79_six_plus_six_AcmsteeringV09_main_2lflm.obj
 0001:00229ae0       c79_c_emlrt_marshallIn     000000018022aae0 f   c79_six_plus_six_AcmsteeringV09_main_2lflm.obj
 0001:00229b70       sf_opaque_get_sim_state_c79_six_plus_six_AcmsteeringV09_main_2lflm 000000018022ab70 f   c79_six_plus_six_AcmsteeringV09_main_2lflm.obj
 0001:00229b90       sf_opaque_set_sim_state_c79_six_plus_six_AcmsteeringV09_main_2lflm 000000018022ab90 f   c79_six_plus_six_AcmsteeringV09_main_2lflm.obj
 0001:00229bc0       sf_opaque_terminate_c79_six_plus_six_AcmsteeringV09_main_2lflm 000000018022abc0 f   c79_six_plus_six_AcmsteeringV09_main_2lflm.obj
 0001:00229c60       finalize_c79_six_plus_six_AcmsteeringV09_main_2lflm 000000018022ac60 f   c79_six_plus_six_AcmsteeringV09_main_2lflm.obj
 0001:00229c70       sf_opaque_init_subchart_simstructs 000000018022ac70 f   c79_six_plus_six_AcmsteeringV09_main_2lflm.obj
 0001:00229c90       initSimStructsc79_six_plus_six_AcmsteeringV09_main_2lflm 000000018022ac90 f   c79_six_plus_six_AcmsteeringV09_main_2lflm.obj
 0001:00229ca0       mdlRTW_c79_six_plus_six_AcmsteeringV09_main_2lflm 000000018022aca0 f   c79_six_plus_six_AcmsteeringV09_main_2lflm.obj
 0001:0022a730       get_sim_state_c80_six_plus_six_AcmsteeringV09_main_2lflm 000000018022b730 f   c80_six_plus_six_AcmsteeringV09_main_2lflm.obj
 0001:0022a8d0       sf_get_sim_state_info_c80_six_plus_six_AcmsteeringV09_main_2lflm 000000018022b8d0 f   c80_six_plus_six_AcmsteeringV09_main_2lflm.obj
 0001:0022aaa0       set_sim_state_c80_six_plus_six_AcmsteeringV09_main_2lflm 000000018022baa0 f   c80_six_plus_six_AcmsteeringV09_main_2lflm.obj
 0001:0022ab70       c80_update_debugger_state_c80_six_plus_six_AcmsteeringV09_main_2 000000018022bb70 f   c80_six_plus_six_AcmsteeringV09_main_2lflm.obj
 0001:0022ab80       c80_emlrt_marshallIn       000000018022bb80 f   c80_six_plus_six_AcmsteeringV09_main_2lflm.obj
 0001:0022abe0       c80_b_emlrt_marshallIn     000000018022bbe0 f   c80_six_plus_six_AcmsteeringV09_main_2lflm.obj
 0001:0022ac70       c80_e_emlrt_marshallIn     000000018022bc70 f   c80_six_plus_six_AcmsteeringV09_main_2lflm.obj
 0001:0022acd0       c80_f_emlrt_marshallIn     000000018022bcd0 f   c80_six_plus_six_AcmsteeringV09_main_2lflm.obj
 0001:0022add0       mdlProcessParameters_c80_six_plus_six_AcmsteeringV09_main_2lflm 000000018022bdd0 f   c80_six_plus_six_AcmsteeringV09_main_2lflm.obj
 0001:0022aeb0       initialize_params_c80_six_plus_six_AcmsteeringV09_main_2lflm 000000018022beb0 f   c80_six_plus_six_AcmsteeringV09_main_2lflm.obj
 0001:0022aec0       mdlSetWorkWidths_c80_six_plus_six_AcmsteeringV09_main_2lflm 000000018022bec0 f   c80_six_plus_six_AcmsteeringV09_main_2lflm.obj
 0001:0022b420       sf_get_instance_specialization 000000018022c420 f   c80_six_plus_six_AcmsteeringV09_main_2lflm.obj
 0001:0022b430       mdlStart_c80_six_plus_six_AcmsteeringV09_main_2lflm 000000018022c430 f   c80_six_plus_six_AcmsteeringV09_main_2lflm.obj
 0001:0022b660       init_dsm_address_info      000000018022c660 f   c80_six_plus_six_AcmsteeringV09_main_2lflm.obj
 0001:0022b670       chart_debug_initialization 000000018022c670 f   c80_six_plus_six_AcmsteeringV09_main_2lflm.obj
 0001:0022c2a0       init_script_number_translation 000000018022d2a0 f   c80_six_plus_six_AcmsteeringV09_main_2lflm.obj
 0001:0022c2c0       c80_sf_marshallOut         000000018022d2c0 f   c80_six_plus_six_AcmsteeringV09_main_2lflm.obj
 0001:0022c370       c80_sf_marshallIn          000000018022d370 f   c80_six_plus_six_AcmsteeringV09_main_2lflm.obj
 0001:0022c410       c80_b_sf_marshallOut       000000018022d410 f   c80_six_plus_six_AcmsteeringV09_main_2lflm.obj
 0001:0022c4d0       sf_opaque_initialize_c80_six_plus_six_AcmsteeringV09_main_2lflm 000000018022d4d0 f   c80_six_plus_six_AcmsteeringV09_main_2lflm.obj
 0001:0022c510       initialize_c80_six_plus_six_AcmsteeringV09_main_2lflm 000000018022d510 f   c80_six_plus_six_AcmsteeringV09_main_2lflm.obj
 0001:0022c560       sf_opaque_enable_c80_six_plus_six_AcmsteeringV09_main_2lflm 000000018022d560 f   c80_six_plus_six_AcmsteeringV09_main_2lflm.obj
 0001:0022c580       enable_c80_six_plus_six_AcmsteeringV09_main_2lflm 000000018022d580 f   c80_six_plus_six_AcmsteeringV09_main_2lflm.obj
 0001:0022c5b0       sf_opaque_disable_c80_six_plus_six_AcmsteeringV09_main_2lflm 000000018022d5b0 f   c80_six_plus_six_AcmsteeringV09_main_2lflm.obj
 0001:0022c5d0       disable_c80_six_plus_six_AcmsteeringV09_main_2lflm 000000018022d5d0 f   c80_six_plus_six_AcmsteeringV09_main_2lflm.obj
 0001:0022c600       sf_opaque_gateway_c80_six_plus_six_AcmsteeringV09_main_2lflm 000000018022d600 f   c80_six_plus_six_AcmsteeringV09_main_2lflm.obj
 0001:0022c620       sf_gateway_c80_six_plus_six_AcmsteeringV09_main_2lflm 000000018022d620 f   c80_six_plus_six_AcmsteeringV09_main_2lflm.obj
 0001:0022d0e0       c80_c_sf_marshallOut       000000018022e0e0 f   c80_six_plus_six_AcmsteeringV09_main_2lflm.obj
 0001:0022d190       c80_b_sf_marshallIn        000000018022e190 f   c80_six_plus_six_AcmsteeringV09_main_2lflm.obj
 0001:0022d230       c80_c_emlrt_marshallIn     000000018022e230 f   c80_six_plus_six_AcmsteeringV09_main_2lflm.obj
 0001:0022d2c0       sf_opaque_get_sim_state_c80_six_plus_six_AcmsteeringV09_main_2lflm 000000018022e2c0 f   c80_six_plus_six_AcmsteeringV09_main_2lflm.obj
 0001:0022d2e0       sf_opaque_set_sim_state_c80_six_plus_six_AcmsteeringV09_main_2lflm 000000018022e2e0 f   c80_six_plus_six_AcmsteeringV09_main_2lflm.obj
 0001:0022d310       sf_opaque_terminate_c80_six_plus_six_AcmsteeringV09_main_2lflm 000000018022e310 f   c80_six_plus_six_AcmsteeringV09_main_2lflm.obj
 0001:0022d3b0       finalize_c80_six_plus_six_AcmsteeringV09_main_2lflm 000000018022e3b0 f   c80_six_plus_six_AcmsteeringV09_main_2lflm.obj
 0001:0022d3c0       sf_opaque_init_subchart_simstructs 000000018022e3c0 f   c80_six_plus_six_AcmsteeringV09_main_2lflm.obj
 0001:0022d3e0       initSimStructsc80_six_plus_six_AcmsteeringV09_main_2lflm 000000018022e3e0 f   c80_six_plus_six_AcmsteeringV09_main_2lflm.obj
 0001:0022d3f0       mdlRTW_c80_six_plus_six_AcmsteeringV09_main_2lflm 000000018022e3f0 f   c80_six_plus_six_AcmsteeringV09_main_2lflm.obj
 0001:0022de80       get_sim_state_c81_six_plus_six_AcmsteeringV09_main_2lflm 000000018022ee80 f   c81_six_plus_six_AcmsteeringV09_main_2lflm.obj
 0001:0022e010       sf_get_sim_state_info_c81_six_plus_six_AcmsteeringV09_main_2lflm 000000018022f010 f   c81_six_plus_six_AcmsteeringV09_main_2lflm.obj
 0001:0022e1e0       set_sim_state_c81_six_plus_six_AcmsteeringV09_main_2lflm 000000018022f1e0 f   c81_six_plus_six_AcmsteeringV09_main_2lflm.obj
 0001:0022e2b0       c81_update_debugger_state_c81_six_plus_six_AcmsteeringV09_main_2 000000018022f2b0 f   c81_six_plus_six_AcmsteeringV09_main_2lflm.obj
 0001:0022e2c0       c81_emlrt_marshallIn       000000018022f2c0 f   c81_six_plus_six_AcmsteeringV09_main_2lflm.obj
 0001:0022e320       c81_b_emlrt_marshallIn     000000018022f320 f   c81_six_plus_six_AcmsteeringV09_main_2lflm.obj
 0001:0022e3b0       c81_e_emlrt_marshallIn     000000018022f3b0 f   c81_six_plus_six_AcmsteeringV09_main_2lflm.obj
 0001:0022e410       c81_f_emlrt_marshallIn     000000018022f410 f   c81_six_plus_six_AcmsteeringV09_main_2lflm.obj
 0001:0022e510       mdlProcessParameters_c81_six_plus_six_AcmsteeringV09_main_2lflm 000000018022f510 f   c81_six_plus_six_AcmsteeringV09_main_2lflm.obj
 0001:0022e5f0       initialize_params_c81_six_plus_six_AcmsteeringV09_main_2lflm 000000018022f5f0 f   c81_six_plus_six_AcmsteeringV09_main_2lflm.obj
 0001:0022e600       mdlSetWorkWidths_c81_six_plus_six_AcmsteeringV09_main_2lflm 000000018022f600 f   c81_six_plus_six_AcmsteeringV09_main_2lflm.obj
 0001:0022eb60       sf_get_instance_specialization 000000018022fb60 f   c81_six_plus_six_AcmsteeringV09_main_2lflm.obj
 0001:0022eb70       mdlStart_c81_six_plus_six_AcmsteeringV09_main_2lflm 000000018022fb70 f   c81_six_plus_six_AcmsteeringV09_main_2lflm.obj
 0001:0022eda0       init_dsm_address_info      000000018022fda0 f   c81_six_plus_six_AcmsteeringV09_main_2lflm.obj
 0001:0022edb0       chart_debug_initialization 000000018022fdb0 f   c81_six_plus_six_AcmsteeringV09_main_2lflm.obj
 0001:0022f9e0       init_script_number_translation 00000001802309e0 f   c81_six_plus_six_AcmsteeringV09_main_2lflm.obj
 0001:0022fa00       c81_sf_marshallOut         0000000180230a00 f   c81_six_plus_six_AcmsteeringV09_main_2lflm.obj
 0001:0022fab0       c81_sf_marshallIn          0000000180230ab0 f   c81_six_plus_six_AcmsteeringV09_main_2lflm.obj
 0001:0022fb50       c81_b_sf_marshallOut       0000000180230b50 f   c81_six_plus_six_AcmsteeringV09_main_2lflm.obj
 0001:0022fc10       sf_opaque_initialize_c81_six_plus_six_AcmsteeringV09_main_2lflm 0000000180230c10 f   c81_six_plus_six_AcmsteeringV09_main_2lflm.obj
 0001:0022fc50       initialize_c81_six_plus_six_AcmsteeringV09_main_2lflm 0000000180230c50 f   c81_six_plus_six_AcmsteeringV09_main_2lflm.obj
 0001:0022fca0       sf_opaque_enable_c81_six_plus_six_AcmsteeringV09_main_2lflm 0000000180230ca0 f   c81_six_plus_six_AcmsteeringV09_main_2lflm.obj
 0001:0022fcc0       enable_c81_six_plus_six_AcmsteeringV09_main_2lflm 0000000180230cc0 f   c81_six_plus_six_AcmsteeringV09_main_2lflm.obj
 0001:0022fcf0       sf_opaque_disable_c81_six_plus_six_AcmsteeringV09_main_2lflm 0000000180230cf0 f   c81_six_plus_six_AcmsteeringV09_main_2lflm.obj
 0001:0022fd10       disable_c81_six_plus_six_AcmsteeringV09_main_2lflm 0000000180230d10 f   c81_six_plus_six_AcmsteeringV09_main_2lflm.obj
 0001:0022fd40       sf_opaque_gateway_c81_six_plus_six_AcmsteeringV09_main_2lflm 0000000180230d40 f   c81_six_plus_six_AcmsteeringV09_main_2lflm.obj
 0001:0022fd60       sf_gateway_c81_six_plus_six_AcmsteeringV09_main_2lflm 0000000180230d60 f   c81_six_plus_six_AcmsteeringV09_main_2lflm.obj
 0001:00230820       c81_c_sf_marshallOut       0000000180231820 f   c81_six_plus_six_AcmsteeringV09_main_2lflm.obj
 0001:002308d0       c81_b_sf_marshallIn        00000001802318d0 f   c81_six_plus_six_AcmsteeringV09_main_2lflm.obj
 0001:00230970       c81_c_emlrt_marshallIn     0000000180231970 f   c81_six_plus_six_AcmsteeringV09_main_2lflm.obj
 0001:00230a00       sf_opaque_get_sim_state_c81_six_plus_six_AcmsteeringV09_main_2lflm 0000000180231a00 f   c81_six_plus_six_AcmsteeringV09_main_2lflm.obj
 0001:00230a20       sf_opaque_set_sim_state_c81_six_plus_six_AcmsteeringV09_main_2lflm 0000000180231a20 f   c81_six_plus_six_AcmsteeringV09_main_2lflm.obj
 0001:00230a50       sf_opaque_terminate_c81_six_plus_six_AcmsteeringV09_main_2lflm 0000000180231a50 f   c81_six_plus_six_AcmsteeringV09_main_2lflm.obj
 0001:00230af0       finalize_c81_six_plus_six_AcmsteeringV09_main_2lflm 0000000180231af0 f   c81_six_plus_six_AcmsteeringV09_main_2lflm.obj
 0001:00230b00       sf_opaque_init_subchart_simstructs 0000000180231b00 f   c81_six_plus_six_AcmsteeringV09_main_2lflm.obj
 0001:00230b20       initSimStructsc81_six_plus_six_AcmsteeringV09_main_2lflm 0000000180231b20 f   c81_six_plus_six_AcmsteeringV09_main_2lflm.obj
 0001:00230b30       mdlRTW_c81_six_plus_six_AcmsteeringV09_main_2lflm 0000000180231b30 f   c81_six_plus_six_AcmsteeringV09_main_2lflm.obj
 0001:00232010       get_sim_state_c82_six_plus_six_AcmsteeringV09_main_2lflm 0000000180233010 f   c82_six_plus_six_AcmsteeringV09_main_2lflm.obj
 0001:00232590       sf_get_sim_state_info_c82_six_plus_six_AcmsteeringV09_main_2lflm 0000000180233590 f   c82_six_plus_six_AcmsteeringV09_main_2lflm.obj
 0001:00232760       set_sim_state_c82_six_plus_six_AcmsteeringV09_main_2lflm 0000000180233760 f   c82_six_plus_six_AcmsteeringV09_main_2lflm.obj
 0001:002329c0       c82_update_debugger_state_c82_six_plus_six_AcmsteeringV09_main_2 00000001802339c0 f   c82_six_plus_six_AcmsteeringV09_main_2lflm.obj
 0001:002329d0       c82_emlrt_marshallIn       00000001802339d0 f   c82_six_plus_six_AcmsteeringV09_main_2lflm.obj
 0001:00232a40       c82_b_emlrt_marshallIn     0000000180233a40 f   c82_six_plus_six_AcmsteeringV09_main_2lflm.obj
 0001:00232ad0       c82_e_emlrt_marshallIn     0000000180233ad0 f   c82_six_plus_six_AcmsteeringV09_main_2lflm.obj
 0001:00232b30       c82_f_emlrt_marshallIn     0000000180233b30 f   c82_six_plus_six_AcmsteeringV09_main_2lflm.obj
 0001:00232c30       mdlProcessParameters_c82_six_plus_six_AcmsteeringV09_main_2lflm 0000000180233c30 f   c82_six_plus_six_AcmsteeringV09_main_2lflm.obj
 0001:00232d10       initialize_params_c82_six_plus_six_AcmsteeringV09_main_2lflm 0000000180233d10 f   c82_six_plus_six_AcmsteeringV09_main_2lflm.obj
 0001:00232d20       mdlSetWorkWidths_c82_six_plus_six_AcmsteeringV09_main_2lflm 0000000180233d20 f   c82_six_plus_six_AcmsteeringV09_main_2lflm.obj
 0001:00233310       sf_get_instance_specialization 0000000180234310 f   c82_six_plus_six_AcmsteeringV09_main_2lflm.obj
 0001:00233320       mdlStart_c82_six_plus_six_AcmsteeringV09_main_2lflm 0000000180234320 f   c82_six_plus_six_AcmsteeringV09_main_2lflm.obj
 0001:00233550       init_dsm_address_info      0000000180234550 f   c82_six_plus_six_AcmsteeringV09_main_2lflm.obj
 0001:00233560       chart_debug_initialization 0000000180234560 f   c82_six_plus_six_AcmsteeringV09_main_2lflm.obj
 0001:00234c40       init_script_number_translation 0000000180235c40 f   c82_six_plus_six_AcmsteeringV09_main_2lflm.obj
 0001:00234c60       c82_sf_marshallOut         0000000180235c60 f   c82_six_plus_six_AcmsteeringV09_main_2lflm.obj
 0001:00234d20       c82_sf_marshallIn          0000000180235d20 f   c82_six_plus_six_AcmsteeringV09_main_2lflm.obj
 0001:00234dc0       c82_b_sf_marshallOut       0000000180235dc0 f   c82_six_plus_six_AcmsteeringV09_main_2lflm.obj
 0001:00234e70       sf_opaque_initialize_c82_six_plus_six_AcmsteeringV09_main_2lflm 0000000180235e70 f   c82_six_plus_six_AcmsteeringV09_main_2lflm.obj
 0001:00234eb0       initialize_c82_six_plus_six_AcmsteeringV09_main_2lflm 0000000180235eb0 f   c82_six_plus_six_AcmsteeringV09_main_2lflm.obj
 0001:00234f00       sf_opaque_enable_c82_six_plus_six_AcmsteeringV09_main_2lflm 0000000180235f00 f   c82_six_plus_six_AcmsteeringV09_main_2lflm.obj
 0001:00234f20       enable_c82_six_plus_six_AcmsteeringV09_main_2lflm 0000000180235f20 f   c82_six_plus_six_AcmsteeringV09_main_2lflm.obj
 0001:00234f50       sf_opaque_disable_c82_six_plus_six_AcmsteeringV09_main_2lflm 0000000180235f50 f   c82_six_plus_six_AcmsteeringV09_main_2lflm.obj
 0001:00234f70       disable_c82_six_plus_six_AcmsteeringV09_main_2lflm 0000000180235f70 f   c82_six_plus_six_AcmsteeringV09_main_2lflm.obj
 0001:00234fa0       sf_opaque_gateway_c82_six_plus_six_AcmsteeringV09_main_2lflm 0000000180235fa0 f   c82_six_plus_six_AcmsteeringV09_main_2lflm.obj
 0001:00234fc0       sf_gateway_c82_six_plus_six_AcmsteeringV09_main_2lflm 0000000180235fc0 f   c82_six_plus_six_AcmsteeringV09_main_2lflm.obj
 0001:00236330       c82_c_sf_marshallOut       0000000180237330 f   c82_six_plus_six_AcmsteeringV09_main_2lflm.obj
 0001:002363e0       c82_b_sf_marshallIn        00000001802373e0 f   c82_six_plus_six_AcmsteeringV09_main_2lflm.obj
 0001:00236480       c82_c_emlrt_marshallIn     0000000180237480 f   c82_six_plus_six_AcmsteeringV09_main_2lflm.obj
 0001:00236510       sf_opaque_get_sim_state_c82_six_plus_six_AcmsteeringV09_main_2lflm 0000000180237510 f   c82_six_plus_six_AcmsteeringV09_main_2lflm.obj
 0001:00236530       sf_opaque_set_sim_state_c82_six_plus_six_AcmsteeringV09_main_2lflm 0000000180237530 f   c82_six_plus_six_AcmsteeringV09_main_2lflm.obj
 0001:00236560       sf_opaque_terminate_c82_six_plus_six_AcmsteeringV09_main_2lflm 0000000180237560 f   c82_six_plus_six_AcmsteeringV09_main_2lflm.obj
 0001:00236600       finalize_c82_six_plus_six_AcmsteeringV09_main_2lflm 0000000180237600 f   c82_six_plus_six_AcmsteeringV09_main_2lflm.obj
 0001:00236610       sf_opaque_init_subchart_simstructs 0000000180237610 f   c82_six_plus_six_AcmsteeringV09_main_2lflm.obj
 0001:00236630       initSimStructsc82_six_plus_six_AcmsteeringV09_main_2lflm 0000000180237630 f   c82_six_plus_six_AcmsteeringV09_main_2lflm.obj
 0001:00236640       mdlRTW_c82_six_plus_six_AcmsteeringV09_main_2lflm 0000000180237640 f   c82_six_plus_six_AcmsteeringV09_main_2lflm.obj
 0001:002370d0       get_sim_state_c83_six_plus_six_AcmsteeringV09_main_2lflm 00000001802380d0 f   c83_six_plus_six_AcmsteeringV09_main_2lflm.obj
 0001:00237270       sf_get_sim_state_info_c83_six_plus_six_AcmsteeringV09_main_2lflm 0000000180238270 f   c83_six_plus_six_AcmsteeringV09_main_2lflm.obj
 0001:00237440       set_sim_state_c83_six_plus_six_AcmsteeringV09_main_2lflm 0000000180238440 f   c83_six_plus_six_AcmsteeringV09_main_2lflm.obj
 0001:00237510       c83_update_debugger_state_c83_six_plus_six_AcmsteeringV09_main_2 0000000180238510 f   c83_six_plus_six_AcmsteeringV09_main_2lflm.obj
 0001:00237520       c83_emlrt_marshallIn       0000000180238520 f   c83_six_plus_six_AcmsteeringV09_main_2lflm.obj
 0001:00237580       c83_b_emlrt_marshallIn     0000000180238580 f   c83_six_plus_six_AcmsteeringV09_main_2lflm.obj
 0001:00237610       c83_e_emlrt_marshallIn     0000000180238610 f   c83_six_plus_six_AcmsteeringV09_main_2lflm.obj
 0001:00237670       c83_f_emlrt_marshallIn     0000000180238670 f   c83_six_plus_six_AcmsteeringV09_main_2lflm.obj
 0001:00237770       mdlProcessParameters_c83_six_plus_six_AcmsteeringV09_main_2lflm 0000000180238770 f   c83_six_plus_six_AcmsteeringV09_main_2lflm.obj
 0001:00237850       initialize_params_c83_six_plus_six_AcmsteeringV09_main_2lflm 0000000180238850 f   c83_six_plus_six_AcmsteeringV09_main_2lflm.obj
 0001:00237860       mdlSetWorkWidths_c83_six_plus_six_AcmsteeringV09_main_2lflm 0000000180238860 f   c83_six_plus_six_AcmsteeringV09_main_2lflm.obj
 0001:00237dc0       sf_get_instance_specialization 0000000180238dc0 f   c83_six_plus_six_AcmsteeringV09_main_2lflm.obj
 0001:00237dd0       mdlStart_c83_six_plus_six_AcmsteeringV09_main_2lflm 0000000180238dd0 f   c83_six_plus_six_AcmsteeringV09_main_2lflm.obj
 0001:00238000       init_dsm_address_info      0000000180239000 f   c83_six_plus_six_AcmsteeringV09_main_2lflm.obj
 0001:00238010       chart_debug_initialization 0000000180239010 f   c83_six_plus_six_AcmsteeringV09_main_2lflm.obj
 0001:00238c40       init_script_number_translation 0000000180239c40 f   c83_six_plus_six_AcmsteeringV09_main_2lflm.obj
 0001:00238c60       c83_sf_marshallOut         0000000180239c60 f   c83_six_plus_six_AcmsteeringV09_main_2lflm.obj
 0001:00238d10       c83_sf_marshallIn          0000000180239d10 f   c83_six_plus_six_AcmsteeringV09_main_2lflm.obj
 0001:00238db0       c83_b_sf_marshallOut       0000000180239db0 f   c83_six_plus_six_AcmsteeringV09_main_2lflm.obj
 0001:00238e70       sf_opaque_initialize_c83_six_plus_six_AcmsteeringV09_main_2lflm 0000000180239e70 f   c83_six_plus_six_AcmsteeringV09_main_2lflm.obj
 0001:00238eb0       initialize_c83_six_plus_six_AcmsteeringV09_main_2lflm 0000000180239eb0 f   c83_six_plus_six_AcmsteeringV09_main_2lflm.obj
 0001:00238f00       sf_opaque_enable_c83_six_plus_six_AcmsteeringV09_main_2lflm 0000000180239f00 f   c83_six_plus_six_AcmsteeringV09_main_2lflm.obj
 0001:00238f20       enable_c83_six_plus_six_AcmsteeringV09_main_2lflm 0000000180239f20 f   c83_six_plus_six_AcmsteeringV09_main_2lflm.obj
 0001:00238f50       sf_opaque_disable_c83_six_plus_six_AcmsteeringV09_main_2lflm 0000000180239f50 f   c83_six_plus_six_AcmsteeringV09_main_2lflm.obj
 0001:00238f70       disable_c83_six_plus_six_AcmsteeringV09_main_2lflm 0000000180239f70 f   c83_six_plus_six_AcmsteeringV09_main_2lflm.obj
 0001:00238fa0       sf_opaque_gateway_c83_six_plus_six_AcmsteeringV09_main_2lflm 0000000180239fa0 f   c83_six_plus_six_AcmsteeringV09_main_2lflm.obj
 0001:00238fc0       sf_gateway_c83_six_plus_six_AcmsteeringV09_main_2lflm 0000000180239fc0 f   c83_six_plus_six_AcmsteeringV09_main_2lflm.obj
 0001:00239a80       c83_c_sf_marshallOut       000000018023aa80 f   c83_six_plus_six_AcmsteeringV09_main_2lflm.obj
 0001:00239b30       c83_b_sf_marshallIn        000000018023ab30 f   c83_six_plus_six_AcmsteeringV09_main_2lflm.obj
 0001:00239bd0       c83_c_emlrt_marshallIn     000000018023abd0 f   c83_six_plus_six_AcmsteeringV09_main_2lflm.obj
 0001:00239c60       sf_opaque_get_sim_state_c83_six_plus_six_AcmsteeringV09_main_2lflm 000000018023ac60 f   c83_six_plus_six_AcmsteeringV09_main_2lflm.obj
 0001:00239c80       sf_opaque_set_sim_state_c83_six_plus_six_AcmsteeringV09_main_2lflm 000000018023ac80 f   c83_six_plus_six_AcmsteeringV09_main_2lflm.obj
 0001:00239cb0       sf_opaque_terminate_c83_six_plus_six_AcmsteeringV09_main_2lflm 000000018023acb0 f   c83_six_plus_six_AcmsteeringV09_main_2lflm.obj
 0001:00239d50       finalize_c83_six_plus_six_AcmsteeringV09_main_2lflm 000000018023ad50 f   c83_six_plus_six_AcmsteeringV09_main_2lflm.obj
 0001:00239d60       sf_opaque_init_subchart_simstructs 000000018023ad60 f   c83_six_plus_six_AcmsteeringV09_main_2lflm.obj
 0001:00239d80       initSimStructsc83_six_plus_six_AcmsteeringV09_main_2lflm 000000018023ad80 f   c83_six_plus_six_AcmsteeringV09_main_2lflm.obj
 0001:00239d90       mdlRTW_c83_six_plus_six_AcmsteeringV09_main_2lflm 000000018023ad90 f   c83_six_plus_six_AcmsteeringV09_main_2lflm.obj
 0001:00239e40       c84_info_helper            000000018023ae40 f   c84_six_plus_six_AcmsteeringV09_main_2lflm.obj
 0001:0023b180       c84_emlrt_marshallOut      000000018023c180 f   c84_six_plus_six_AcmsteeringV09_main_2lflm.obj
 0001:0023b210       c84_b_emlrt_marshallOut    000000018023c210 f   c84_six_plus_six_AcmsteeringV09_main_2lflm.obj
 0001:0023dc40       get_sim_state_c84_six_plus_six_AcmsteeringV09_main_2lflm 000000018023ec40 f   c84_six_plus_six_AcmsteeringV09_main_2lflm.obj
 0001:0023e410       sf_get_sim_state_info_c84_six_plus_six_AcmsteeringV09_main_2lflm 000000018023f410 f   c84_six_plus_six_AcmsteeringV09_main_2lflm.obj
 0001:0023e5e0       set_sim_state_c84_six_plus_six_AcmsteeringV09_main_2lflm 000000018023f5e0 f   c84_six_plus_six_AcmsteeringV09_main_2lflm.obj
 0001:0023e970       c84_update_debugger_state_c84_six_plus_six_AcmsteeringV09_main_2 000000018023f970 f   c84_six_plus_six_AcmsteeringV09_main_2lflm.obj
 0001:0023e980       c84_emlrt_marshallIn       000000018023f980 f   c84_six_plus_six_AcmsteeringV09_main_2lflm.obj
 0001:0023e9e0       c84_b_emlrt_marshallIn     000000018023f9e0 f   c84_six_plus_six_AcmsteeringV09_main_2lflm.obj
 0001:0023ea70       c84_c_emlrt_marshallIn     000000018023fa70 f   c84_six_plus_six_AcmsteeringV09_main_2lflm.obj
 0001:0023eae0       c84_d_emlrt_marshallIn     000000018023fae0 f   c84_six_plus_six_AcmsteeringV09_main_2lflm.obj
 0001:0023eb70       c84_g_emlrt_marshallIn     000000018023fb70 f   c84_six_plus_six_AcmsteeringV09_main_2lflm.obj
 0001:0023ebd0       c84_h_emlrt_marshallIn     000000018023fbd0 f   c84_six_plus_six_AcmsteeringV09_main_2lflm.obj
 0001:0023ecd0       mdlProcessParameters_c84_six_plus_six_AcmsteeringV09_main_2lflm 000000018023fcd0 f   c84_six_plus_six_AcmsteeringV09_main_2lflm.obj
 0001:0023edb0       initialize_params_c84_six_plus_six_AcmsteeringV09_main_2lflm 000000018023fdb0 f   c84_six_plus_six_AcmsteeringV09_main_2lflm.obj
 0001:0023edc0       mdlSetWorkWidths_c84_six_plus_six_AcmsteeringV09_main_2lflm 000000018023fdc0 f   c84_six_plus_six_AcmsteeringV09_main_2lflm.obj
 0001:0023f650       sf_get_instance_specialization 0000000180240650 f   c84_six_plus_six_AcmsteeringV09_main_2lflm.obj
 0001:0023f660       mdlStart_c84_six_plus_six_AcmsteeringV09_main_2lflm 0000000180240660 f   c84_six_plus_six_AcmsteeringV09_main_2lflm.obj
 0001:0023f890       init_dsm_address_info      0000000180240890 f   c84_six_plus_six_AcmsteeringV09_main_2lflm.obj
 0001:0023f8a0       chart_debug_initialization 00000001802408a0 f   c84_six_plus_six_AcmsteeringV09_main_2lflm.obj
 0001:002464f0       init_script_number_translation 00000001802474f0 f   c84_six_plus_six_AcmsteeringV09_main_2lflm.obj
 0001:00246510       c84_sf_marshallOut         0000000180247510 f   c84_six_plus_six_AcmsteeringV09_main_2lflm.obj
 0001:002465c0       c84_sf_marshallIn          00000001802475c0 f   c84_six_plus_six_AcmsteeringV09_main_2lflm.obj
 0001:00246660       c84_b_sf_marshallOut       0000000180247660 f   c84_six_plus_six_AcmsteeringV09_main_2lflm.obj
 0001:00246720       c84_b_sf_marshallIn        0000000180247720 f   c84_six_plus_six_AcmsteeringV09_main_2lflm.obj
 0001:002467c0       sf_opaque_initialize_c84_six_plus_six_AcmsteeringV09_main_2lflm 00000001802477c0 f   c84_six_plus_six_AcmsteeringV09_main_2lflm.obj
 0001:00246800       initialize_c84_six_plus_six_AcmsteeringV09_main_2lflm 0000000180247800 f   c84_six_plus_six_AcmsteeringV09_main_2lflm.obj
 0001:00246850       sf_opaque_enable_c84_six_plus_six_AcmsteeringV09_main_2lflm 0000000180247850 f   c84_six_plus_six_AcmsteeringV09_main_2lflm.obj
 0001:00246870       enable_c84_six_plus_six_AcmsteeringV09_main_2lflm 0000000180247870 f   c84_six_plus_six_AcmsteeringV09_main_2lflm.obj
 0001:002468a0       sf_opaque_disable_c84_six_plus_six_AcmsteeringV09_main_2lflm 00000001802478a0 f   c84_six_plus_six_AcmsteeringV09_main_2lflm.obj
 0001:002468c0       disable_c84_six_plus_six_AcmsteeringV09_main_2lflm 00000001802478c0 f   c84_six_plus_six_AcmsteeringV09_main_2lflm.obj
 0001:002468f0       sf_opaque_gateway_c84_six_plus_six_AcmsteeringV09_main_2lflm 00000001802478f0 f   c84_six_plus_six_AcmsteeringV09_main_2lflm.obj
 0001:00246910       sf_gateway_c84_six_plus_six_AcmsteeringV09_main_2lflm 0000000180247910 f   c84_six_plus_six_AcmsteeringV09_main_2lflm.obj
 0001:002476c0       c84_chartstep_c84_six_plus_six_AcmsteeringV09_main_2lflm 00000001802486c0 f   c84_six_plus_six_AcmsteeringV09_main_2lflm.obj
 0001:00279170       c84_c_sf_marshallOut       000000018027a170 f   c84_six_plus_six_AcmsteeringV09_main_2lflm.obj
 0001:00279220       c84_c_sf_marshallIn        000000018027a220 f   c84_six_plus_six_AcmsteeringV09_main_2lflm.obj
 0001:002792c0       c84_e_emlrt_marshallIn     000000018027a2c0 f   c84_six_plus_six_AcmsteeringV09_main_2lflm.obj
 0001:00279350       sf_opaque_get_sim_state_c84_six_plus_six_AcmsteeringV09_main_2lflm 000000018027a350 f   c84_six_plus_six_AcmsteeringV09_main_2lflm.obj
 0001:00279370       sf_opaque_set_sim_state_c84_six_plus_six_AcmsteeringV09_main_2lflm 000000018027a370 f   c84_six_plus_six_AcmsteeringV09_main_2lflm.obj
 0001:002793a0       sf_opaque_terminate_c84_six_plus_six_AcmsteeringV09_main_2lflm 000000018027a3a0 f   c84_six_plus_six_AcmsteeringV09_main_2lflm.obj
 0001:00279440       finalize_c84_six_plus_six_AcmsteeringV09_main_2lflm 000000018027a440 f   c84_six_plus_six_AcmsteeringV09_main_2lflm.obj
 0001:00279450       sf_opaque_init_subchart_simstructs 000000018027a450 f   c84_six_plus_six_AcmsteeringV09_main_2lflm.obj
 0001:00279470       initSimStructsc84_six_plus_six_AcmsteeringV09_main_2lflm 000000018027a470 f   c84_six_plus_six_AcmsteeringV09_main_2lflm.obj
 0001:00279480       mdlRTW_c84_six_plus_six_AcmsteeringV09_main_2lflm 000000018027a480 f   c84_six_plus_six_AcmsteeringV09_main_2lflm.obj
 0001:00279530       c85_info_helper            000000018027a530 f   c85_six_plus_six_AcmsteeringV09_main_2lflm.obj
 0001:0027e820       c85_emlrt_marshallOut      000000018027f820 f   c85_six_plus_six_AcmsteeringV09_main_2lflm.obj
 0001:0027e8b0       c85_b_emlrt_marshallOut    000000018027f8b0 f   c85_six_plus_six_AcmsteeringV09_main_2lflm.obj
 0001:0027f6f0       get_sim_state_c85_six_plus_six_AcmsteeringV09_main_2lflm 00000001802806f0 f   c85_six_plus_six_AcmsteeringV09_main_2lflm.obj
 0001:0027fc70       sf_get_sim_state_info_c85_six_plus_six_AcmsteeringV09_main_2lflm 0000000180280c70 f   c85_six_plus_six_AcmsteeringV09_main_2lflm.obj
 0001:0027fe40       set_sim_state_c85_six_plus_six_AcmsteeringV09_main_2lflm 0000000180280e40 f   c85_six_plus_six_AcmsteeringV09_main_2lflm.obj
 0001:002800a0       c85_update_debugger_state_c85_six_plus_six_AcmsteeringV09_main_2 00000001802810a0 f   c85_six_plus_six_AcmsteeringV09_main_2lflm.obj
 0001:002800b0       c85_emlrt_marshallIn       00000001802810b0 f   c85_six_plus_six_AcmsteeringV09_main_2lflm.obj
 0001:00280120       c85_b_emlrt_marshallIn     0000000180281120 f   c85_six_plus_six_AcmsteeringV09_main_2lflm.obj
 0001:002801b0       c85_d_emlrt_marshallIn     00000001802811b0 f   c85_six_plus_six_AcmsteeringV09_main_2lflm.obj
 0001:00280210       c85_e_emlrt_marshallIn     0000000180281210 f   c85_six_plus_six_AcmsteeringV09_main_2lflm.obj
 0001:00280310       mdlProcessParameters_c85_six_plus_six_AcmsteeringV09_main_2lflm 0000000180281310 f   c85_six_plus_six_AcmsteeringV09_main_2lflm.obj
 0001:002803f0       initialize_params_c85_six_plus_six_AcmsteeringV09_main_2lflm 00000001802813f0 f   c85_six_plus_six_AcmsteeringV09_main_2lflm.obj
 0001:00280400       mdlSetWorkWidths_c85_six_plus_six_AcmsteeringV09_main_2lflm 0000000180281400 f   c85_six_plus_six_AcmsteeringV09_main_2lflm.obj
 0001:00280900       sf_get_instance_specialization 0000000180281900 f   c85_six_plus_six_AcmsteeringV09_main_2lflm.obj
 0001:00280910       mdlStart_c85_six_plus_six_AcmsteeringV09_main_2lflm 0000000180281910 f   c85_six_plus_six_AcmsteeringV09_main_2lflm.obj
 0001:00280b40       init_dsm_address_info      0000000180281b40 f   c85_six_plus_six_AcmsteeringV09_main_2lflm.obj
 0001:00280b50       chart_debug_initialization 0000000180281b50 f   c85_six_plus_six_AcmsteeringV09_main_2lflm.obj
 0001:00281c90       init_script_number_translation 0000000180282c90 f   c85_six_plus_six_AcmsteeringV09_main_2lflm.obj
 0001:00281cb0       c85_sf_marshallOut         0000000180282cb0 f   c85_six_plus_six_AcmsteeringV09_main_2lflm.obj
 0001:00281d60       c85_sf_marshallIn          0000000180282d60 f   c85_six_plus_six_AcmsteeringV09_main_2lflm.obj
 0001:00281e00       sf_opaque_initialize_c85_six_plus_six_AcmsteeringV09_main_2lflm 0000000180282e00 f   c85_six_plus_six_AcmsteeringV09_main_2lflm.obj
 0001:00281e40       initialize_c85_six_plus_six_AcmsteeringV09_main_2lflm 0000000180282e40 f   c85_six_plus_six_AcmsteeringV09_main_2lflm.obj
 0001:00281e90       sf_opaque_enable_c85_six_plus_six_AcmsteeringV09_main_2lflm 0000000180282e90 f   c85_six_plus_six_AcmsteeringV09_main_2lflm.obj
 0001:00281eb0       enable_c85_six_plus_six_AcmsteeringV09_main_2lflm 0000000180282eb0 f   c85_six_plus_six_AcmsteeringV09_main_2lflm.obj
 0001:00281ee0       sf_opaque_disable_c85_six_plus_six_AcmsteeringV09_main_2lflm 0000000180282ee0 f   c85_six_plus_six_AcmsteeringV09_main_2lflm.obj
 0001:00281f00       disable_c85_six_plus_six_AcmsteeringV09_main_2lflm 0000000180282f00 f   c85_six_plus_six_AcmsteeringV09_main_2lflm.obj
 0001:00281f30       sf_opaque_gateway_c85_six_plus_six_AcmsteeringV09_main_2lflm 0000000180282f30 f   c85_six_plus_six_AcmsteeringV09_main_2lflm.obj
 0001:00281f50       sf_gateway_c85_six_plus_six_AcmsteeringV09_main_2lflm 0000000180282f50 f   c85_six_plus_six_AcmsteeringV09_main_2lflm.obj
 0001:002823c0       c85_chartstep_c85_six_plus_six_AcmsteeringV09_main_2lflm 00000001802833c0 f   c85_six_plus_six_AcmsteeringV09_main_2lflm.obj
 0001:00283ab0       c85_mod                    0000000180284ab0 f   c85_six_plus_six_AcmsteeringV09_main_2lflm.obj
 0001:00283d10       c85_eml_scalar_eg          0000000180284d10 f   c85_six_plus_six_AcmsteeringV09_main_2lflm.obj
 0001:00283d20       sf_opaque_get_sim_state_c85_six_plus_six_AcmsteeringV09_main_2lflm 0000000180284d20 f   c85_six_plus_six_AcmsteeringV09_main_2lflm.obj
 0001:00283d40       sf_opaque_set_sim_state_c85_six_plus_six_AcmsteeringV09_main_2lflm 0000000180284d40 f   c85_six_plus_six_AcmsteeringV09_main_2lflm.obj
 0001:00283d70       sf_opaque_terminate_c85_six_plus_six_AcmsteeringV09_main_2lflm 0000000180284d70 f   c85_six_plus_six_AcmsteeringV09_main_2lflm.obj
 0001:00283e10       finalize_c85_six_plus_six_AcmsteeringV09_main_2lflm 0000000180284e10 f   c85_six_plus_six_AcmsteeringV09_main_2lflm.obj
 0001:00283e20       sf_opaque_init_subchart_simstructs 0000000180284e20 f   c85_six_plus_six_AcmsteeringV09_main_2lflm.obj
 0001:00283e40       initSimStructsc85_six_plus_six_AcmsteeringV09_main_2lflm 0000000180284e40 f   c85_six_plus_six_AcmsteeringV09_main_2lflm.obj
 0001:00283e50       mdlRTW_c85_six_plus_six_AcmsteeringV09_main_2lflm 0000000180284e50 f   c85_six_plus_six_AcmsteeringV09_main_2lflm.obj
 0001:00283f00       c86_info_helper            0000000180284f00 f   c86_six_plus_six_AcmsteeringV09_main_2lflm.obj
 0001:002891f0       c86_emlrt_marshallOut      000000018028a1f0 f   c86_six_plus_six_AcmsteeringV09_main_2lflm.obj
 0001:00289280       c86_b_emlrt_marshallOut    000000018028a280 f   c86_six_plus_six_AcmsteeringV09_main_2lflm.obj
 0001:0028a0c0       get_sim_state_c86_six_plus_six_AcmsteeringV09_main_2lflm 000000018028b0c0 f   c86_six_plus_six_AcmsteeringV09_main_2lflm.obj
 0001:0028a640       sf_get_sim_state_info_c86_six_plus_six_AcmsteeringV09_main_2lflm 000000018028b640 f   c86_six_plus_six_AcmsteeringV09_main_2lflm.obj
 0001:0028a810       set_sim_state_c86_six_plus_six_AcmsteeringV09_main_2lflm 000000018028b810 f   c86_six_plus_six_AcmsteeringV09_main_2lflm.obj
 0001:0028aa70       c86_update_debugger_state_c86_six_plus_six_AcmsteeringV09_main_2 000000018028ba70 f   c86_six_plus_six_AcmsteeringV09_main_2lflm.obj
 0001:0028aa80       c86_emlrt_marshallIn       000000018028ba80 f   c86_six_plus_six_AcmsteeringV09_main_2lflm.obj
 0001:0028aaf0       c86_b_emlrt_marshallIn     000000018028baf0 f   c86_six_plus_six_AcmsteeringV09_main_2lflm.obj
 0001:0028ab80       c86_d_emlrt_marshallIn     000000018028bb80 f   c86_six_plus_six_AcmsteeringV09_main_2lflm.obj
 0001:0028abe0       c86_e_emlrt_marshallIn     000000018028bbe0 f   c86_six_plus_six_AcmsteeringV09_main_2lflm.obj
 0001:0028ace0       mdlProcessParameters_c86_six_plus_six_AcmsteeringV09_main_2lflm 000000018028bce0 f   c86_six_plus_six_AcmsteeringV09_main_2lflm.obj
 0001:0028adc0       initialize_params_c86_six_plus_six_AcmsteeringV09_main_2lflm 000000018028bdc0 f   c86_six_plus_six_AcmsteeringV09_main_2lflm.obj
 0001:0028add0       mdlSetWorkWidths_c86_six_plus_six_AcmsteeringV09_main_2lflm 000000018028bdd0 f   c86_six_plus_six_AcmsteeringV09_main_2lflm.obj
 0001:0028b2d0       sf_get_instance_specialization 000000018028c2d0 f   c86_six_plus_six_AcmsteeringV09_main_2lflm.obj
 0001:0028b2e0       mdlStart_c86_six_plus_six_AcmsteeringV09_main_2lflm 000000018028c2e0 f   c86_six_plus_six_AcmsteeringV09_main_2lflm.obj
 0001:0028b510       init_dsm_address_info      000000018028c510 f   c86_six_plus_six_AcmsteeringV09_main_2lflm.obj
 0001:0028b520       chart_debug_initialization 000000018028c520 f   c86_six_plus_six_AcmsteeringV09_main_2lflm.obj
 0001:0028c660       init_script_number_translation 000000018028d660 f   c86_six_plus_six_AcmsteeringV09_main_2lflm.obj
 0001:0028c680       c86_sf_marshallOut         000000018028d680 f   c86_six_plus_six_AcmsteeringV09_main_2lflm.obj
 0001:0028c730       c86_sf_marshallIn          000000018028d730 f   c86_six_plus_six_AcmsteeringV09_main_2lflm.obj
 0001:0028c7d0       sf_opaque_initialize_c86_six_plus_six_AcmsteeringV09_main_2lflm 000000018028d7d0 f   c86_six_plus_six_AcmsteeringV09_main_2lflm.obj
 0001:0028c810       initialize_c86_six_plus_six_AcmsteeringV09_main_2lflm 000000018028d810 f   c86_six_plus_six_AcmsteeringV09_main_2lflm.obj
 0001:0028c860       sf_opaque_enable_c86_six_plus_six_AcmsteeringV09_main_2lflm 000000018028d860 f   c86_six_plus_six_AcmsteeringV09_main_2lflm.obj
 0001:0028c880       enable_c86_six_plus_six_AcmsteeringV09_main_2lflm 000000018028d880 f   c86_six_plus_six_AcmsteeringV09_main_2lflm.obj
 0001:0028c8b0       sf_opaque_disable_c86_six_plus_six_AcmsteeringV09_main_2lflm 000000018028d8b0 f   c86_six_plus_six_AcmsteeringV09_main_2lflm.obj
 0001:0028c8d0       disable_c86_six_plus_six_AcmsteeringV09_main_2lflm 000000018028d8d0 f   c86_six_plus_six_AcmsteeringV09_main_2lflm.obj
 0001:0028c900       sf_opaque_gateway_c86_six_plus_six_AcmsteeringV09_main_2lflm 000000018028d900 f   c86_six_plus_six_AcmsteeringV09_main_2lflm.obj
 0001:0028c920       sf_gateway_c86_six_plus_six_AcmsteeringV09_main_2lflm 000000018028d920 f   c86_six_plus_six_AcmsteeringV09_main_2lflm.obj
 0001:0028cd90       c86_chartstep_c86_six_plus_six_AcmsteeringV09_main_2lflm 000000018028dd90 f   c86_six_plus_six_AcmsteeringV09_main_2lflm.obj
 0001:0028e480       c86_mod                    000000018028f480 f   c86_six_plus_six_AcmsteeringV09_main_2lflm.obj
 0001:0028e6c0       c86_eml_scalar_eg          000000018028f6c0 f   c86_six_plus_six_AcmsteeringV09_main_2lflm.obj
 0001:0028e6d0       sf_opaque_get_sim_state_c86_six_plus_six_AcmsteeringV09_main_2lflm 000000018028f6d0 f   c86_six_plus_six_AcmsteeringV09_main_2lflm.obj
 0001:0028e6f0       sf_opaque_set_sim_state_c86_six_plus_six_AcmsteeringV09_main_2lflm 000000018028f6f0 f   c86_six_plus_six_AcmsteeringV09_main_2lflm.obj
 0001:0028e720       sf_opaque_terminate_c86_six_plus_six_AcmsteeringV09_main_2lflm 000000018028f720 f   c86_six_plus_six_AcmsteeringV09_main_2lflm.obj
 0001:0028e7c0       finalize_c86_six_plus_six_AcmsteeringV09_main_2lflm 000000018028f7c0 f   c86_six_plus_six_AcmsteeringV09_main_2lflm.obj
 0001:0028e7d0       sf_opaque_init_subchart_simstructs 000000018028f7d0 f   c86_six_plus_six_AcmsteeringV09_main_2lflm.obj
 0001:0028e7f0       initSimStructsc86_six_plus_six_AcmsteeringV09_main_2lflm 000000018028f7f0 f   c86_six_plus_six_AcmsteeringV09_main_2lflm.obj
 0001:0028e800       mdlRTW_c86_six_plus_six_AcmsteeringV09_main_2lflm 000000018028f800 f   c86_six_plus_six_AcmsteeringV09_main_2lflm.obj
 0001:0028e8b0       c87_info_helper            000000018028f8b0 f   c87_six_plus_six_AcmsteeringV09_main_2lflm.obj
 0001:00293ba0       c87_emlrt_marshallOut      0000000180294ba0 f   c87_six_plus_six_AcmsteeringV09_main_2lflm.obj
 0001:00293c30       c87_b_emlrt_marshallOut    0000000180294c30 f   c87_six_plus_six_AcmsteeringV09_main_2lflm.obj
 0001:00294a70       get_sim_state_c87_six_plus_six_AcmsteeringV09_main_2lflm 0000000180295a70 f   c87_six_plus_six_AcmsteeringV09_main_2lflm.obj
 0001:00294fe0       sf_get_sim_state_info_c87_six_plus_six_AcmsteeringV09_main_2lflm 0000000180295fe0 f   c87_six_plus_six_AcmsteeringV09_main_2lflm.obj
 0001:002951b0       set_sim_state_c87_six_plus_six_AcmsteeringV09_main_2lflm 00000001802961b0 f   c87_six_plus_six_AcmsteeringV09_main_2lflm.obj
 0001:00295410       c87_update_debugger_state_c87_six_plus_six_AcmsteeringV09_main_2 0000000180296410 f   c87_six_plus_six_AcmsteeringV09_main_2lflm.obj
 0001:00295420       c87_emlrt_marshallIn       0000000180296420 f   c87_six_plus_six_AcmsteeringV09_main_2lflm.obj
 0001:00295490       c87_b_emlrt_marshallIn     0000000180296490 f   c87_six_plus_six_AcmsteeringV09_main_2lflm.obj
 0001:00295520       c87_d_emlrt_marshallIn     0000000180296520 f   c87_six_plus_six_AcmsteeringV09_main_2lflm.obj
 0001:00295580       c87_e_emlrt_marshallIn     0000000180296580 f   c87_six_plus_six_AcmsteeringV09_main_2lflm.obj
 0001:00295680       mdlProcessParameters_c87_six_plus_six_AcmsteeringV09_main_2lflm 0000000180296680 f   c87_six_plus_six_AcmsteeringV09_main_2lflm.obj
 0001:00295760       initialize_params_c87_six_plus_six_AcmsteeringV09_main_2lflm 0000000180296760 f   c87_six_plus_six_AcmsteeringV09_main_2lflm.obj
 0001:00295770       mdlSetWorkWidths_c87_six_plus_six_AcmsteeringV09_main_2lflm 0000000180296770 f   c87_six_plus_six_AcmsteeringV09_main_2lflm.obj
 0001:00295c70       sf_get_instance_specialization 0000000180296c70 f   c87_six_plus_six_AcmsteeringV09_main_2lflm.obj
 0001:00295c80       mdlStart_c87_six_plus_six_AcmsteeringV09_main_2lflm 0000000180296c80 f   c87_six_plus_six_AcmsteeringV09_main_2lflm.obj
 0001:00295eb0       init_dsm_address_info      0000000180296eb0 f   c87_six_plus_six_AcmsteeringV09_main_2lflm.obj
 0001:00295ec0       chart_debug_initialization 0000000180296ec0 f   c87_six_plus_six_AcmsteeringV09_main_2lflm.obj
 0001:00297000       init_script_number_translation 0000000180298000 f   c87_six_plus_six_AcmsteeringV09_main_2lflm.obj
 0001:00297020       c87_sf_marshallOut         0000000180298020 f   c87_six_plus_six_AcmsteeringV09_main_2lflm.obj
 0001:002970d0       c87_sf_marshallIn          00000001802980d0 f   c87_six_plus_six_AcmsteeringV09_main_2lflm.obj
 0001:00297170       sf_opaque_initialize_c87_six_plus_six_AcmsteeringV09_main_2lflm 0000000180298170 f   c87_six_plus_six_AcmsteeringV09_main_2lflm.obj
 0001:002971b0       initialize_c87_six_plus_six_AcmsteeringV09_main_2lflm 00000001802981b0 f   c87_six_plus_six_AcmsteeringV09_main_2lflm.obj
 0001:00297200       sf_opaque_enable_c87_six_plus_six_AcmsteeringV09_main_2lflm 0000000180298200 f   c87_six_plus_six_AcmsteeringV09_main_2lflm.obj
 0001:00297220       enable_c87_six_plus_six_AcmsteeringV09_main_2lflm 0000000180298220 f   c87_six_plus_six_AcmsteeringV09_main_2lflm.obj
 0001:00297250       sf_opaque_disable_c87_six_plus_six_AcmsteeringV09_main_2lflm 0000000180298250 f   c87_six_plus_six_AcmsteeringV09_main_2lflm.obj
 0001:00297270       disable_c87_six_plus_six_AcmsteeringV09_main_2lflm 0000000180298270 f   c87_six_plus_six_AcmsteeringV09_main_2lflm.obj
 0001:002972a0       sf_opaque_gateway_c87_six_plus_six_AcmsteeringV09_main_2lflm 00000001802982a0 f   c87_six_plus_six_AcmsteeringV09_main_2lflm.obj
 0001:002972c0       sf_gateway_c87_six_plus_six_AcmsteeringV09_main_2lflm 00000001802982c0 f   c87_six_plus_six_AcmsteeringV09_main_2lflm.obj
 0001:00297730       c87_chartstep_c87_six_plus_six_AcmsteeringV09_main_2lflm 0000000180298730 f   c87_six_plus_six_AcmsteeringV09_main_2lflm.obj
 0001:00298e10       c87_mod                    0000000180299e10 f   c87_six_plus_six_AcmsteeringV09_main_2lflm.obj
 0001:00299060       c87_eml_scalar_eg          000000018029a060 f   c87_six_plus_six_AcmsteeringV09_main_2lflm.obj
 0001:00299070       sf_opaque_get_sim_state_c87_six_plus_six_AcmsteeringV09_main_2lflm 000000018029a070 f   c87_six_plus_six_AcmsteeringV09_main_2lflm.obj
 0001:00299090       sf_opaque_set_sim_state_c87_six_plus_six_AcmsteeringV09_main_2lflm 000000018029a090 f   c87_six_plus_six_AcmsteeringV09_main_2lflm.obj
 0001:002990c0       sf_opaque_terminate_c87_six_plus_six_AcmsteeringV09_main_2lflm 000000018029a0c0 f   c87_six_plus_six_AcmsteeringV09_main_2lflm.obj
 0001:00299160       finalize_c87_six_plus_six_AcmsteeringV09_main_2lflm 000000018029a160 f   c87_six_plus_six_AcmsteeringV09_main_2lflm.obj
 0001:00299170       sf_opaque_init_subchart_simstructs 000000018029a170 f   c87_six_plus_six_AcmsteeringV09_main_2lflm.obj
 0001:00299190       initSimStructsc87_six_plus_six_AcmsteeringV09_main_2lflm 000000018029a190 f   c87_six_plus_six_AcmsteeringV09_main_2lflm.obj
 0001:002991a0       mdlRTW_c87_six_plus_six_AcmsteeringV09_main_2lflm 000000018029a1a0 f   c87_six_plus_six_AcmsteeringV09_main_2lflm.obj
 0001:00299250       c88_info_helper            000000018029a250 f   c88_six_plus_six_AcmsteeringV09_main_2lflm.obj
 0001:002a29d0       c88_emlrt_marshallOut      00000001802a39d0 f   c88_six_plus_six_AcmsteeringV09_main_2lflm.obj
 0001:002a2a60       c88_b_emlrt_marshallOut    00000001802a3a60 f   c88_six_plus_six_AcmsteeringV09_main_2lflm.obj
 0001:002a34a0       get_sim_state_c88_six_plus_six_AcmsteeringV09_main_2lflm 00000001802a44a0 f   c88_six_plus_six_AcmsteeringV09_main_2lflm.obj
 0001:002a3640       sf_get_sim_state_info_c88_six_plus_six_AcmsteeringV09_main_2lflm 00000001802a4640 f   c88_six_plus_six_AcmsteeringV09_main_2lflm.obj
 0001:002a3810       set_sim_state_c88_six_plus_six_AcmsteeringV09_main_2lflm 00000001802a4810 f   c88_six_plus_six_AcmsteeringV09_main_2lflm.obj
 0001:002a38f0       c88_update_debugger_state_c88_six_plus_six_AcmsteeringV09_main_2 00000001802a48f0 f   c88_six_plus_six_AcmsteeringV09_main_2lflm.obj
 0001:002a3900       c88_emlrt_marshallIn       00000001802a4900 f   c88_six_plus_six_AcmsteeringV09_main_2lflm.obj
 0001:002a3970       c88_b_emlrt_marshallIn     00000001802a4970 f   c88_six_plus_six_AcmsteeringV09_main_2lflm.obj
 0001:002a3a00       c88_e_emlrt_marshallIn     00000001802a4a00 f   c88_six_plus_six_AcmsteeringV09_main_2lflm.obj
 0001:002a3a60       c88_f_emlrt_marshallIn     00000001802a4a60 f   c88_six_plus_six_AcmsteeringV09_main_2lflm.obj
 0001:002a3b60       mdlProcessParameters_c88_six_plus_six_AcmsteeringV09_main_2lflm 00000001802a4b60 f   c88_six_plus_six_AcmsteeringV09_main_2lflm.obj
 0001:002a3c40       initialize_params_c88_six_plus_six_AcmsteeringV09_main_2lflm 00000001802a4c40 f   c88_six_plus_six_AcmsteeringV09_main_2lflm.obj
 0001:002a3c50       mdlSetWorkWidths_c88_six_plus_six_AcmsteeringV09_main_2lflm 00000001802a4c50 f   c88_six_plus_six_AcmsteeringV09_main_2lflm.obj
 0001:002a41b0       sf_get_instance_specialization 00000001802a51b0 f   c88_six_plus_six_AcmsteeringV09_main_2lflm.obj
 0001:002a41c0       mdlStart_c88_six_plus_six_AcmsteeringV09_main_2lflm 00000001802a51c0 f   c88_six_plus_six_AcmsteeringV09_main_2lflm.obj
 0001:002a43f0       init_dsm_address_info      00000001802a53f0 f   c88_six_plus_six_AcmsteeringV09_main_2lflm.obj
 0001:002a4400       chart_debug_initialization 00000001802a5400 f   c88_six_plus_six_AcmsteeringV09_main_2lflm.obj
 0001:002a4fc0       init_script_number_translation 00000001802a5fc0 f   c88_six_plus_six_AcmsteeringV09_main_2lflm.obj
 0001:002a4fe0       c88_sf_marshallOut         00000001802a5fe0 f   c88_six_plus_six_AcmsteeringV09_main_2lflm.obj
 0001:002a50a0       c88_sf_marshallIn          00000001802a60a0 f   c88_six_plus_six_AcmsteeringV09_main_2lflm.obj
 0001:002a5140       c88_b_sf_marshallOut       00000001802a6140 f   c88_six_plus_six_AcmsteeringV09_main_2lflm.obj
 0001:002a51f0       sf_opaque_initialize_c88_six_plus_six_AcmsteeringV09_main_2lflm 00000001802a61f0 f   c88_six_plus_six_AcmsteeringV09_main_2lflm.obj
 0001:002a5230       initialize_c88_six_plus_six_AcmsteeringV09_main_2lflm 00000001802a6230 f   c88_six_plus_six_AcmsteeringV09_main_2lflm.obj
 0001:002a5280       sf_opaque_enable_c88_six_plus_six_AcmsteeringV09_main_2lflm 00000001802a6280 f   c88_six_plus_six_AcmsteeringV09_main_2lflm.obj
 0001:002a52a0       enable_c88_six_plus_six_AcmsteeringV09_main_2lflm 00000001802a62a0 f   c88_six_plus_six_AcmsteeringV09_main_2lflm.obj
 0001:002a52d0       sf_opaque_disable_c88_six_plus_six_AcmsteeringV09_main_2lflm 00000001802a62d0 f   c88_six_plus_six_AcmsteeringV09_main_2lflm.obj
 0001:002a52f0       disable_c88_six_plus_six_AcmsteeringV09_main_2lflm 00000001802a62f0 f   c88_six_plus_six_AcmsteeringV09_main_2lflm.obj
 0001:002a5320       sf_opaque_gateway_c88_six_plus_six_AcmsteeringV09_main_2lflm 00000001802a6320 f   c88_six_plus_six_AcmsteeringV09_main_2lflm.obj
 0001:002a5340       sf_gateway_c88_six_plus_six_AcmsteeringV09_main_2lflm 00000001802a6340 f   c88_six_plus_six_AcmsteeringV09_main_2lflm.obj
 0001:002a5d50       c88_b_sf_marshallIn        00000001802a6d50 f   c88_six_plus_six_AcmsteeringV09_main_2lflm.obj
 0001:002a5df0       c88_c_emlrt_marshallIn     00000001802a6df0 f   c88_six_plus_six_AcmsteeringV09_main_2lflm.obj
 0001:002a5e80       sf_opaque_get_sim_state_c88_six_plus_six_AcmsteeringV09_main_2lflm 00000001802a6e80 f   c88_six_plus_six_AcmsteeringV09_main_2lflm.obj
 0001:002a5ea0       sf_opaque_set_sim_state_c88_six_plus_six_AcmsteeringV09_main_2lflm 00000001802a6ea0 f   c88_six_plus_six_AcmsteeringV09_main_2lflm.obj
 0001:002a5ed0       sf_opaque_terminate_c88_six_plus_six_AcmsteeringV09_main_2lflm 00000001802a6ed0 f   c88_six_plus_six_AcmsteeringV09_main_2lflm.obj
 0001:002a5f70       finalize_c88_six_plus_six_AcmsteeringV09_main_2lflm 00000001802a6f70 f   c88_six_plus_six_AcmsteeringV09_main_2lflm.obj
 0001:002a5f80       sf_opaque_init_subchart_simstructs 00000001802a6f80 f   c88_six_plus_six_AcmsteeringV09_main_2lflm.obj
 0001:002a5fa0       initSimStructsc88_six_plus_six_AcmsteeringV09_main_2lflm 00000001802a6fa0 f   c88_six_plus_six_AcmsteeringV09_main_2lflm.obj
 0001:002a5fb0       mdlRTW_c88_six_plus_six_AcmsteeringV09_main_2lflm 00000001802a6fb0 f   c88_six_plus_six_AcmsteeringV09_main_2lflm.obj
 0001:002a6060       c89_info_helper            00000001802a7060 f   c89_six_plus_six_AcmsteeringV09_main_2lflm.obj
 0001:002ab350       c89_emlrt_marshallOut      00000001802ac350 f   c89_six_plus_six_AcmsteeringV09_main_2lflm.obj
 0001:002ab3e0       c89_b_emlrt_marshallOut    00000001802ac3e0 f   c89_six_plus_six_AcmsteeringV09_main_2lflm.obj
 0001:002ac220       get_sim_state_c89_six_plus_six_AcmsteeringV09_main_2lflm 00000001802ad220 f   c89_six_plus_six_AcmsteeringV09_main_2lflm.obj
 0001:002ac7a0       sf_get_sim_state_info_c89_six_plus_six_AcmsteeringV09_main_2lflm 00000001802ad7a0 f   c89_six_plus_six_AcmsteeringV09_main_2lflm.obj
 0001:002ac970       set_sim_state_c89_six_plus_six_AcmsteeringV09_main_2lflm 00000001802ad970 f   c89_six_plus_six_AcmsteeringV09_main_2lflm.obj
 0001:002acbd0       c89_update_debugger_state_c89_six_plus_six_AcmsteeringV09_main_2 00000001802adbd0 f   c89_six_plus_six_AcmsteeringV09_main_2lflm.obj
 0001:002acbe0       c89_emlrt_marshallIn       00000001802adbe0 f   c89_six_plus_six_AcmsteeringV09_main_2lflm.obj
 0001:002acc50       c89_b_emlrt_marshallIn     00000001802adc50 f   c89_six_plus_six_AcmsteeringV09_main_2lflm.obj
 0001:002acce0       c89_d_emlrt_marshallIn     00000001802adce0 f   c89_six_plus_six_AcmsteeringV09_main_2lflm.obj
 0001:002acd40       c89_e_emlrt_marshallIn     00000001802add40 f   c89_six_plus_six_AcmsteeringV09_main_2lflm.obj
 0001:002ace40       mdlProcessParameters_c89_six_plus_six_AcmsteeringV09_main_2lflm 00000001802ade40 f   c89_six_plus_six_AcmsteeringV09_main_2lflm.obj
 0001:002acf20       initialize_params_c89_six_plus_six_AcmsteeringV09_main_2lflm 00000001802adf20 f   c89_six_plus_six_AcmsteeringV09_main_2lflm.obj
 0001:002acf30       mdlSetWorkWidths_c89_six_plus_six_AcmsteeringV09_main_2lflm 00000001802adf30 f   c89_six_plus_six_AcmsteeringV09_main_2lflm.obj
 0001:002ad430       sf_get_instance_specialization 00000001802ae430 f   c89_six_plus_six_AcmsteeringV09_main_2lflm.obj
 0001:002ad440       mdlStart_c89_six_plus_six_AcmsteeringV09_main_2lflm 00000001802ae440 f   c89_six_plus_six_AcmsteeringV09_main_2lflm.obj
 0001:002ad670       init_dsm_address_info      00000001802ae670 f   c89_six_plus_six_AcmsteeringV09_main_2lflm.obj
 0001:002ad680       chart_debug_initialization 00000001802ae680 f   c89_six_plus_six_AcmsteeringV09_main_2lflm.obj
 0001:002ae7c0       init_script_number_translation 00000001802af7c0 f   c89_six_plus_six_AcmsteeringV09_main_2lflm.obj
 0001:002ae7e0       c89_sf_marshallOut         00000001802af7e0 f   c89_six_plus_six_AcmsteeringV09_main_2lflm.obj
 0001:002ae890       c89_sf_marshallIn          00000001802af890 f   c89_six_plus_six_AcmsteeringV09_main_2lflm.obj
 0001:002ae930       sf_opaque_initialize_c89_six_plus_six_AcmsteeringV09_main_2lflm 00000001802af930 f   c89_six_plus_six_AcmsteeringV09_main_2lflm.obj
 0001:002ae970       initialize_c89_six_plus_six_AcmsteeringV09_main_2lflm 00000001802af970 f   c89_six_plus_six_AcmsteeringV09_main_2lflm.obj
 0001:002ae9c0       sf_opaque_enable_c89_six_plus_six_AcmsteeringV09_main_2lflm 00000001802af9c0 f   c89_six_plus_six_AcmsteeringV09_main_2lflm.obj
 0001:002ae9e0       enable_c89_six_plus_six_AcmsteeringV09_main_2lflm 00000001802af9e0 f   c89_six_plus_six_AcmsteeringV09_main_2lflm.obj
 0001:002aea10       sf_opaque_disable_c89_six_plus_six_AcmsteeringV09_main_2lflm 00000001802afa10 f   c89_six_plus_six_AcmsteeringV09_main_2lflm.obj
 0001:002aea30       disable_c89_six_plus_six_AcmsteeringV09_main_2lflm 00000001802afa30 f   c89_six_plus_six_AcmsteeringV09_main_2lflm.obj
 0001:002aea60       sf_opaque_gateway_c89_six_plus_six_AcmsteeringV09_main_2lflm 00000001802afa60 f   c89_six_plus_six_AcmsteeringV09_main_2lflm.obj
 0001:002aea80       sf_gateway_c89_six_plus_six_AcmsteeringV09_main_2lflm 00000001802afa80 f   c89_six_plus_six_AcmsteeringV09_main_2lflm.obj
 0001:002aeef0       c89_chartstep_c89_six_plus_six_AcmsteeringV09_main_2lflm 00000001802afef0 f   c89_six_plus_six_AcmsteeringV09_main_2lflm.obj
 0001:002b05e0       c89_mod                    00000001802b15e0 f   c89_six_plus_six_AcmsteeringV09_main_2lflm.obj
 0001:002b0840       c89_eml_scalar_eg          00000001802b1840 f   c89_six_plus_six_AcmsteeringV09_main_2lflm.obj
 0001:002b0850       sf_opaque_get_sim_state_c89_six_plus_six_AcmsteeringV09_main_2lflm 00000001802b1850 f   c89_six_plus_six_AcmsteeringV09_main_2lflm.obj
 0001:002b0870       sf_opaque_set_sim_state_c89_six_plus_six_AcmsteeringV09_main_2lflm 00000001802b1870 f   c89_six_plus_six_AcmsteeringV09_main_2lflm.obj
 0001:002b08a0       sf_opaque_terminate_c89_six_plus_six_AcmsteeringV09_main_2lflm 00000001802b18a0 f   c89_six_plus_six_AcmsteeringV09_main_2lflm.obj
 0001:002b0940       finalize_c89_six_plus_six_AcmsteeringV09_main_2lflm 00000001802b1940 f   c89_six_plus_six_AcmsteeringV09_main_2lflm.obj
 0001:002b0950       sf_opaque_init_subchart_simstructs 00000001802b1950 f   c89_six_plus_six_AcmsteeringV09_main_2lflm.obj
 0001:002b0970       initSimStructsc89_six_plus_six_AcmsteeringV09_main_2lflm 00000001802b1970 f   c89_six_plus_six_AcmsteeringV09_main_2lflm.obj
 0001:002b0980       mdlRTW_c89_six_plus_six_AcmsteeringV09_main_2lflm 00000001802b1980 f   c89_six_plus_six_AcmsteeringV09_main_2lflm.obj
 0001:002b0a30       c90_info_helper            00000001802b1a30 f   c90_six_plus_six_AcmsteeringV09_main_2lflm.obj
 0001:002ba1b0       c90_emlrt_marshallOut      00000001802bb1b0 f   c90_six_plus_six_AcmsteeringV09_main_2lflm.obj
 0001:002ba240       c90_b_emlrt_marshallOut    00000001802bb240 f   c90_six_plus_six_AcmsteeringV09_main_2lflm.obj
 0001:002bac80       get_sim_state_c90_six_plus_six_AcmsteeringV09_main_2lflm 00000001802bbc80 f   c90_six_plus_six_AcmsteeringV09_main_2lflm.obj
 0001:002bae20       sf_get_sim_state_info_c90_six_plus_six_AcmsteeringV09_main_2lflm 00000001802bbe20 f   c90_six_plus_six_AcmsteeringV09_main_2lflm.obj
 0001:002baff0       set_sim_state_c90_six_plus_six_AcmsteeringV09_main_2lflm 00000001802bbff0 f   c90_six_plus_six_AcmsteeringV09_main_2lflm.obj
 0001:002bb0d0       c90_update_debugger_state_c90_six_plus_six_AcmsteeringV09_main_2 00000001802bc0d0 f   c90_six_plus_six_AcmsteeringV09_main_2lflm.obj
 0001:002bb0e0       c90_emlrt_marshallIn       00000001802bc0e0 f   c90_six_plus_six_AcmsteeringV09_main_2lflm.obj
 0001:002bb150       c90_b_emlrt_marshallIn     00000001802bc150 f   c90_six_plus_six_AcmsteeringV09_main_2lflm.obj
 0001:002bb1e0       c90_e_emlrt_marshallIn     00000001802bc1e0 f   c90_six_plus_six_AcmsteeringV09_main_2lflm.obj
 0001:002bb240       c90_f_emlrt_marshallIn     00000001802bc240 f   c90_six_plus_six_AcmsteeringV09_main_2lflm.obj
 0001:002bb340       mdlProcessParameters_c90_six_plus_six_AcmsteeringV09_main_2lflm 00000001802bc340 f   c90_six_plus_six_AcmsteeringV09_main_2lflm.obj
 0001:002bb420       initialize_params_c90_six_plus_six_AcmsteeringV09_main_2lflm 00000001802bc420 f   c90_six_plus_six_AcmsteeringV09_main_2lflm.obj
 0001:002bb430       mdlSetWorkWidths_c90_six_plus_six_AcmsteeringV09_main_2lflm 00000001802bc430 f   c90_six_plus_six_AcmsteeringV09_main_2lflm.obj
 0001:002bb990       sf_get_instance_specialization 00000001802bc990 f   c90_six_plus_six_AcmsteeringV09_main_2lflm.obj
 0001:002bb9a0       mdlStart_c90_six_plus_six_AcmsteeringV09_main_2lflm 00000001802bc9a0 f   c90_six_plus_six_AcmsteeringV09_main_2lflm.obj
 0001:002bbbd0       init_dsm_address_info      00000001802bcbd0 f   c90_six_plus_six_AcmsteeringV09_main_2lflm.obj
 0001:002bbbe0       chart_debug_initialization 00000001802bcbe0 f   c90_six_plus_six_AcmsteeringV09_main_2lflm.obj
 0001:002bc7a0       init_script_number_translation 00000001802bd7a0 f   c90_six_plus_six_AcmsteeringV09_main_2lflm.obj
 0001:002bc7c0       c90_sf_marshallOut         00000001802bd7c0 f   c90_six_plus_six_AcmsteeringV09_main_2lflm.obj
 0001:002bc880       c90_sf_marshallIn          00000001802bd880 f   c90_six_plus_six_AcmsteeringV09_main_2lflm.obj
 0001:002bc920       c90_b_sf_marshallOut       00000001802bd920 f   c90_six_plus_six_AcmsteeringV09_main_2lflm.obj
 0001:002bc9d0       sf_opaque_initialize_c90_six_plus_six_AcmsteeringV09_main_2lflm 00000001802bd9d0 f   c90_six_plus_six_AcmsteeringV09_main_2lflm.obj
 0001:002bca10       initialize_c90_six_plus_six_AcmsteeringV09_main_2lflm 00000001802bda10 f   c90_six_plus_six_AcmsteeringV09_main_2lflm.obj
 0001:002bca60       sf_opaque_enable_c90_six_plus_six_AcmsteeringV09_main_2lflm 00000001802bda60 f   c90_six_plus_six_AcmsteeringV09_main_2lflm.obj
 0001:002bca80       enable_c90_six_plus_six_AcmsteeringV09_main_2lflm 00000001802bda80 f   c90_six_plus_six_AcmsteeringV09_main_2lflm.obj
 0001:002bcab0       sf_opaque_disable_c90_six_plus_six_AcmsteeringV09_main_2lflm 00000001802bdab0 f   c90_six_plus_six_AcmsteeringV09_main_2lflm.obj
 0001:002bcad0       disable_c90_six_plus_six_AcmsteeringV09_main_2lflm 00000001802bdad0 f   c90_six_plus_six_AcmsteeringV09_main_2lflm.obj
 0001:002bcb00       sf_opaque_gateway_c90_six_plus_six_AcmsteeringV09_main_2lflm 00000001802bdb00 f   c90_six_plus_six_AcmsteeringV09_main_2lflm.obj
 0001:002bcb20       sf_gateway_c90_six_plus_six_AcmsteeringV09_main_2lflm 00000001802bdb20 f   c90_six_plus_six_AcmsteeringV09_main_2lflm.obj
 0001:002bd530       c90_b_sf_marshallIn        00000001802be530 f   c90_six_plus_six_AcmsteeringV09_main_2lflm.obj
 0001:002bd5d0       c90_c_emlrt_marshallIn     00000001802be5d0 f   c90_six_plus_six_AcmsteeringV09_main_2lflm.obj
 0001:002bd660       sf_opaque_get_sim_state_c90_six_plus_six_AcmsteeringV09_main_2lflm 00000001802be660 f   c90_six_plus_six_AcmsteeringV09_main_2lflm.obj
 0001:002bd680       sf_opaque_set_sim_state_c90_six_plus_six_AcmsteeringV09_main_2lflm 00000001802be680 f   c90_six_plus_six_AcmsteeringV09_main_2lflm.obj
 0001:002bd6b0       sf_opaque_terminate_c90_six_plus_six_AcmsteeringV09_main_2lflm 00000001802be6b0 f   c90_six_plus_six_AcmsteeringV09_main_2lflm.obj
 0001:002bd750       finalize_c90_six_plus_six_AcmsteeringV09_main_2lflm 00000001802be750 f   c90_six_plus_six_AcmsteeringV09_main_2lflm.obj
 0001:002bd760       sf_opaque_init_subchart_simstructs 00000001802be760 f   c90_six_plus_six_AcmsteeringV09_main_2lflm.obj
 0001:002bd780       initSimStructsc90_six_plus_six_AcmsteeringV09_main_2lflm 00000001802be780 f   c90_six_plus_six_AcmsteeringV09_main_2lflm.obj
 0001:002bd790       mdlRTW_c90_six_plus_six_AcmsteeringV09_main_2lflm 00000001802be790 f   c90_six_plus_six_AcmsteeringV09_main_2lflm.obj
 0001:002bd840       c91_info_helper            00000001802be840 f   c91_six_plus_six_AcmsteeringV09_main_2lflm.obj
 0001:002c6fc0       c91_emlrt_marshallOut      00000001802c7fc0 f   c91_six_plus_six_AcmsteeringV09_main_2lflm.obj
 0001:002c7050       c91_b_emlrt_marshallOut    00000001802c8050 f   c91_six_plus_six_AcmsteeringV09_main_2lflm.obj
 0001:002c7a90       get_sim_state_c91_six_plus_six_AcmsteeringV09_main_2lflm 00000001802c8a90 f   c91_six_plus_six_AcmsteeringV09_main_2lflm.obj
 0001:002c7c30       sf_get_sim_state_info_c91_six_plus_six_AcmsteeringV09_main_2lflm 00000001802c8c30 f   c91_six_plus_six_AcmsteeringV09_main_2lflm.obj
 0001:002c7e00       set_sim_state_c91_six_plus_six_AcmsteeringV09_main_2lflm 00000001802c8e00 f   c91_six_plus_six_AcmsteeringV09_main_2lflm.obj
 0001:002c7ee0       c91_update_debugger_state_c91_six_plus_six_AcmsteeringV09_main_2 00000001802c8ee0 f   c91_six_plus_six_AcmsteeringV09_main_2lflm.obj
 0001:002c7ef0       c91_emlrt_marshallIn       00000001802c8ef0 f   c91_six_plus_six_AcmsteeringV09_main_2lflm.obj
 0001:002c7f60       c91_b_emlrt_marshallIn     00000001802c8f60 f   c91_six_plus_six_AcmsteeringV09_main_2lflm.obj
 0001:002c7ff0       c91_e_emlrt_marshallIn     00000001802c8ff0 f   c91_six_plus_six_AcmsteeringV09_main_2lflm.obj
 0001:002c8050       c91_f_emlrt_marshallIn     00000001802c9050 f   c91_six_plus_six_AcmsteeringV09_main_2lflm.obj
 0001:002c8150       mdlProcessParameters_c91_six_plus_six_AcmsteeringV09_main_2lflm 00000001802c9150 f   c91_six_plus_six_AcmsteeringV09_main_2lflm.obj
 0001:002c8230       initialize_params_c91_six_plus_six_AcmsteeringV09_main_2lflm 00000001802c9230 f   c91_six_plus_six_AcmsteeringV09_main_2lflm.obj
 0001:002c8240       mdlSetWorkWidths_c91_six_plus_six_AcmsteeringV09_main_2lflm 00000001802c9240 f   c91_six_plus_six_AcmsteeringV09_main_2lflm.obj
 0001:002c87a0       sf_get_instance_specialization 00000001802c97a0 f   c91_six_plus_six_AcmsteeringV09_main_2lflm.obj
 0001:002c87b0       mdlStart_c91_six_plus_six_AcmsteeringV09_main_2lflm 00000001802c97b0 f   c91_six_plus_six_AcmsteeringV09_main_2lflm.obj
 0001:002c89e0       init_dsm_address_info      00000001802c99e0 f   c91_six_plus_six_AcmsteeringV09_main_2lflm.obj
 0001:002c89f0       chart_debug_initialization 00000001802c99f0 f   c91_six_plus_six_AcmsteeringV09_main_2lflm.obj
 0001:002c95b0       init_script_number_translation 00000001802ca5b0 f   c91_six_plus_six_AcmsteeringV09_main_2lflm.obj
 0001:002c95d0       c91_sf_marshallOut         00000001802ca5d0 f   c91_six_plus_six_AcmsteeringV09_main_2lflm.obj
 0001:002c9690       c91_sf_marshallIn          00000001802ca690 f   c91_six_plus_six_AcmsteeringV09_main_2lflm.obj
 0001:002c9730       c91_b_sf_marshallOut       00000001802ca730 f   c91_six_plus_six_AcmsteeringV09_main_2lflm.obj
 0001:002c97e0       sf_opaque_initialize_c91_six_plus_six_AcmsteeringV09_main_2lflm 00000001802ca7e0 f   c91_six_plus_six_AcmsteeringV09_main_2lflm.obj
 0001:002c9820       initialize_c91_six_plus_six_AcmsteeringV09_main_2lflm 00000001802ca820 f   c91_six_plus_six_AcmsteeringV09_main_2lflm.obj
 0001:002c9870       sf_opaque_enable_c91_six_plus_six_AcmsteeringV09_main_2lflm 00000001802ca870 f   c91_six_plus_six_AcmsteeringV09_main_2lflm.obj
 0001:002c9890       enable_c91_six_plus_six_AcmsteeringV09_main_2lflm 00000001802ca890 f   c91_six_plus_six_AcmsteeringV09_main_2lflm.obj
 0001:002c98c0       sf_opaque_disable_c91_six_plus_six_AcmsteeringV09_main_2lflm 00000001802ca8c0 f   c91_six_plus_six_AcmsteeringV09_main_2lflm.obj
 0001:002c98e0       disable_c91_six_plus_six_AcmsteeringV09_main_2lflm 00000001802ca8e0 f   c91_six_plus_six_AcmsteeringV09_main_2lflm.obj
 0001:002c9910       sf_opaque_gateway_c91_six_plus_six_AcmsteeringV09_main_2lflm 00000001802ca910 f   c91_six_plus_six_AcmsteeringV09_main_2lflm.obj
 0001:002c9930       sf_gateway_c91_six_plus_six_AcmsteeringV09_main_2lflm 00000001802ca930 f   c91_six_plus_six_AcmsteeringV09_main_2lflm.obj
 0001:002ca350       c91_b_sf_marshallIn        00000001802cb350 f   c91_six_plus_six_AcmsteeringV09_main_2lflm.obj
 0001:002ca3f0       c91_c_emlrt_marshallIn     00000001802cb3f0 f   c91_six_plus_six_AcmsteeringV09_main_2lflm.obj
 0001:002ca480       sf_opaque_get_sim_state_c91_six_plus_six_AcmsteeringV09_main_2lflm 00000001802cb480 f   c91_six_plus_six_AcmsteeringV09_main_2lflm.obj
 0001:002ca4a0       sf_opaque_set_sim_state_c91_six_plus_six_AcmsteeringV09_main_2lflm 00000001802cb4a0 f   c91_six_plus_six_AcmsteeringV09_main_2lflm.obj
 0001:002ca4d0       sf_opaque_terminate_c91_six_plus_six_AcmsteeringV09_main_2lflm 00000001802cb4d0 f   c91_six_plus_six_AcmsteeringV09_main_2lflm.obj
 0001:002ca570       finalize_c91_six_plus_six_AcmsteeringV09_main_2lflm 00000001802cb570 f   c91_six_plus_six_AcmsteeringV09_main_2lflm.obj
 0001:002ca580       sf_opaque_init_subchart_simstructs 00000001802cb580 f   c91_six_plus_six_AcmsteeringV09_main_2lflm.obj
 0001:002ca5a0       initSimStructsc91_six_plus_six_AcmsteeringV09_main_2lflm 00000001802cb5a0 f   c91_six_plus_six_AcmsteeringV09_main_2lflm.obj
 0001:002ca5b0       mdlRTW_c91_six_plus_six_AcmsteeringV09_main_2lflm 00000001802cb5b0 f   c91_six_plus_six_AcmsteeringV09_main_2lflm.obj
 0001:002ca660       c92_info_helper            00000001802cb660 f   c92_six_plus_six_AcmsteeringV09_main_2lflm.obj
 0001:002d3de0       c92_emlrt_marshallOut      00000001802d4de0 f   c92_six_plus_six_AcmsteeringV09_main_2lflm.obj
 0001:002d3e70       c92_b_emlrt_marshallOut    00000001802d4e70 f   c92_six_plus_six_AcmsteeringV09_main_2lflm.obj
 0001:002d48b0       get_sim_state_c92_six_plus_six_AcmsteeringV09_main_2lflm 00000001802d58b0 f   c92_six_plus_six_AcmsteeringV09_main_2lflm.obj
 0001:002d4a50       sf_get_sim_state_info_c92_six_plus_six_AcmsteeringV09_main_2lflm 00000001802d5a50 f   c92_six_plus_six_AcmsteeringV09_main_2lflm.obj
 0001:002d4c20       set_sim_state_c92_six_plus_six_AcmsteeringV09_main_2lflm 00000001802d5c20 f   c92_six_plus_six_AcmsteeringV09_main_2lflm.obj
 0001:002d4d00       c92_update_debugger_state_c92_six_plus_six_AcmsteeringV09_main_2 00000001802d5d00 f   c92_six_plus_six_AcmsteeringV09_main_2lflm.obj
 0001:002d4d10       c92_emlrt_marshallIn       00000001802d5d10 f   c92_six_plus_six_AcmsteeringV09_main_2lflm.obj
 0001:002d4d80       c92_b_emlrt_marshallIn     00000001802d5d80 f   c92_six_plus_six_AcmsteeringV09_main_2lflm.obj
 0001:002d4e10       c92_e_emlrt_marshallIn     00000001802d5e10 f   c92_six_plus_six_AcmsteeringV09_main_2lflm.obj
 0001:002d4e70       c92_f_emlrt_marshallIn     00000001802d5e70 f   c92_six_plus_six_AcmsteeringV09_main_2lflm.obj
 0001:002d4f70       mdlProcessParameters_c92_six_plus_six_AcmsteeringV09_main_2lflm 00000001802d5f70 f   c92_six_plus_six_AcmsteeringV09_main_2lflm.obj
 0001:002d5050       initialize_params_c92_six_plus_six_AcmsteeringV09_main_2lflm 00000001802d6050 f   c92_six_plus_six_AcmsteeringV09_main_2lflm.obj
 0001:002d5060       mdlSetWorkWidths_c92_six_plus_six_AcmsteeringV09_main_2lflm 00000001802d6060 f   c92_six_plus_six_AcmsteeringV09_main_2lflm.obj
 0001:002d55c0       sf_get_instance_specialization 00000001802d65c0 f   c92_six_plus_six_AcmsteeringV09_main_2lflm.obj
 0001:002d55d0       mdlStart_c92_six_plus_six_AcmsteeringV09_main_2lflm 00000001802d65d0 f   c92_six_plus_six_AcmsteeringV09_main_2lflm.obj
 0001:002d5800       init_dsm_address_info      00000001802d6800 f   c92_six_plus_six_AcmsteeringV09_main_2lflm.obj
 0001:002d5810       chart_debug_initialization 00000001802d6810 f   c92_six_plus_six_AcmsteeringV09_main_2lflm.obj
 0001:002d63d0       init_script_number_translation 00000001802d73d0 f   c92_six_plus_six_AcmsteeringV09_main_2lflm.obj
 0001:002d63f0       c92_sf_marshallOut         00000001802d73f0 f   c92_six_plus_six_AcmsteeringV09_main_2lflm.obj
 0001:002d64b0       c92_sf_marshallIn          00000001802d74b0 f   c92_six_plus_six_AcmsteeringV09_main_2lflm.obj
 0001:002d6550       c92_b_sf_marshallOut       00000001802d7550 f   c92_six_plus_six_AcmsteeringV09_main_2lflm.obj
 0001:002d6600       sf_opaque_initialize_c92_six_plus_six_AcmsteeringV09_main_2lflm 00000001802d7600 f   c92_six_plus_six_AcmsteeringV09_main_2lflm.obj
 0001:002d6640       initialize_c92_six_plus_six_AcmsteeringV09_main_2lflm 00000001802d7640 f   c92_six_plus_six_AcmsteeringV09_main_2lflm.obj
 0001:002d6690       sf_opaque_enable_c92_six_plus_six_AcmsteeringV09_main_2lflm 00000001802d7690 f   c92_six_plus_six_AcmsteeringV09_main_2lflm.obj
 0001:002d66b0       enable_c92_six_plus_six_AcmsteeringV09_main_2lflm 00000001802d76b0 f   c92_six_plus_six_AcmsteeringV09_main_2lflm.obj
 0001:002d66e0       sf_opaque_disable_c92_six_plus_six_AcmsteeringV09_main_2lflm 00000001802d76e0 f   c92_six_plus_six_AcmsteeringV09_main_2lflm.obj
 0001:002d6700       disable_c92_six_plus_six_AcmsteeringV09_main_2lflm 00000001802d7700 f   c92_six_plus_six_AcmsteeringV09_main_2lflm.obj
 0001:002d6730       sf_opaque_gateway_c92_six_plus_six_AcmsteeringV09_main_2lflm 00000001802d7730 f   c92_six_plus_six_AcmsteeringV09_main_2lflm.obj
 0001:002d6750       sf_gateway_c92_six_plus_six_AcmsteeringV09_main_2lflm 00000001802d7750 f   c92_six_plus_six_AcmsteeringV09_main_2lflm.obj
 0001:002d7160       c92_b_sf_marshallIn        00000001802d8160 f   c92_six_plus_six_AcmsteeringV09_main_2lflm.obj
 0001:002d7200       c92_c_emlrt_marshallIn     00000001802d8200 f   c92_six_plus_six_AcmsteeringV09_main_2lflm.obj
 0001:002d7290       sf_opaque_get_sim_state_c92_six_plus_six_AcmsteeringV09_main_2lflm 00000001802d8290 f   c92_six_plus_six_AcmsteeringV09_main_2lflm.obj
 0001:002d72b0       sf_opaque_set_sim_state_c92_six_plus_six_AcmsteeringV09_main_2lflm 00000001802d82b0 f   c92_six_plus_six_AcmsteeringV09_main_2lflm.obj
 0001:002d72e0       sf_opaque_terminate_c92_six_plus_six_AcmsteeringV09_main_2lflm 00000001802d82e0 f   c92_six_plus_six_AcmsteeringV09_main_2lflm.obj
 0001:002d7380       finalize_c92_six_plus_six_AcmsteeringV09_main_2lflm 00000001802d8380 f   c92_six_plus_six_AcmsteeringV09_main_2lflm.obj
 0001:002d7390       sf_opaque_init_subchart_simstructs 00000001802d8390 f   c92_six_plus_six_AcmsteeringV09_main_2lflm.obj
 0001:002d73b0       initSimStructsc92_six_plus_six_AcmsteeringV09_main_2lflm 00000001802d83b0 f   c92_six_plus_six_AcmsteeringV09_main_2lflm.obj
 0001:002d73c0       mdlRTW_c92_six_plus_six_AcmsteeringV09_main_2lflm 00000001802d83c0 f   c92_six_plus_six_AcmsteeringV09_main_2lflm.obj
 0001:002d7470       c93_info_helper            00000001802d8470 f   c93_six_plus_six_AcmsteeringV09_main_2lflm.obj
 0001:002e0bf0       c93_emlrt_marshallOut      00000001802e1bf0 f   c93_six_plus_six_AcmsteeringV09_main_2lflm.obj
 0001:002e0c80       c93_b_emlrt_marshallOut    00000001802e1c80 f   c93_six_plus_six_AcmsteeringV09_main_2lflm.obj
 0001:002e16c0       get_sim_state_c93_six_plus_six_AcmsteeringV09_main_2lflm 00000001802e26c0 f   c93_six_plus_six_AcmsteeringV09_main_2lflm.obj
 0001:002e1860       sf_get_sim_state_info_c93_six_plus_six_AcmsteeringV09_main_2lflm 00000001802e2860 f   c93_six_plus_six_AcmsteeringV09_main_2lflm.obj
 0001:002e1a30       set_sim_state_c93_six_plus_six_AcmsteeringV09_main_2lflm 00000001802e2a30 f   c93_six_plus_six_AcmsteeringV09_main_2lflm.obj
 0001:002e1b10       c93_update_debugger_state_c93_six_plus_six_AcmsteeringV09_main_2 00000001802e2b10 f   c93_six_plus_six_AcmsteeringV09_main_2lflm.obj
 0001:002e1b20       c93_emlrt_marshallIn       00000001802e2b20 f   c93_six_plus_six_AcmsteeringV09_main_2lflm.obj
 0001:002e1b90       c93_b_emlrt_marshallIn     00000001802e2b90 f   c93_six_plus_six_AcmsteeringV09_main_2lflm.obj
 0001:002e1c20       c93_e_emlrt_marshallIn     00000001802e2c20 f   c93_six_plus_six_AcmsteeringV09_main_2lflm.obj
 0001:002e1c80       c93_f_emlrt_marshallIn     00000001802e2c80 f   c93_six_plus_six_AcmsteeringV09_main_2lflm.obj
 0001:002e1d80       mdlProcessParameters_c93_six_plus_six_AcmsteeringV09_main_2lflm 00000001802e2d80 f   c93_six_plus_six_AcmsteeringV09_main_2lflm.obj
 0001:002e1e60       initialize_params_c93_six_plus_six_AcmsteeringV09_main_2lflm 00000001802e2e60 f   c93_six_plus_six_AcmsteeringV09_main_2lflm.obj
 0001:002e1e70       mdlSetWorkWidths_c93_six_plus_six_AcmsteeringV09_main_2lflm 00000001802e2e70 f   c93_six_plus_six_AcmsteeringV09_main_2lflm.obj
 0001:002e23d0       sf_get_instance_specialization 00000001802e33d0 f   c93_six_plus_six_AcmsteeringV09_main_2lflm.obj
 0001:002e23e0       mdlStart_c93_six_plus_six_AcmsteeringV09_main_2lflm 00000001802e33e0 f   c93_six_plus_six_AcmsteeringV09_main_2lflm.obj
 0001:002e2610       init_dsm_address_info      00000001802e3610 f   c93_six_plus_six_AcmsteeringV09_main_2lflm.obj
 0001:002e2620       chart_debug_initialization 00000001802e3620 f   c93_six_plus_six_AcmsteeringV09_main_2lflm.obj
 0001:002e31e0       init_script_number_translation 00000001802e41e0 f   c93_six_plus_six_AcmsteeringV09_main_2lflm.obj
 0001:002e3200       c93_sf_marshallOut         00000001802e4200 f   c93_six_plus_six_AcmsteeringV09_main_2lflm.obj
 0001:002e32c0       c93_sf_marshallIn          00000001802e42c0 f   c93_six_plus_six_AcmsteeringV09_main_2lflm.obj
 0001:002e3360       c93_b_sf_marshallOut       00000001802e4360 f   c93_six_plus_six_AcmsteeringV09_main_2lflm.obj
 0001:002e3410       sf_opaque_initialize_c93_six_plus_six_AcmsteeringV09_main_2lflm 00000001802e4410 f   c93_six_plus_six_AcmsteeringV09_main_2lflm.obj
 0001:002e3450       initialize_c93_six_plus_six_AcmsteeringV09_main_2lflm 00000001802e4450 f   c93_six_plus_six_AcmsteeringV09_main_2lflm.obj
 0001:002e34a0       sf_opaque_enable_c93_six_plus_six_AcmsteeringV09_main_2lflm 00000001802e44a0 f   c93_six_plus_six_AcmsteeringV09_main_2lflm.obj
 0001:002e34c0       enable_c93_six_plus_six_AcmsteeringV09_main_2lflm 00000001802e44c0 f   c93_six_plus_six_AcmsteeringV09_main_2lflm.obj
 0001:002e34f0       sf_opaque_disable_c93_six_plus_six_AcmsteeringV09_main_2lflm 00000001802e44f0 f   c93_six_plus_six_AcmsteeringV09_main_2lflm.obj
 0001:002e3510       disable_c93_six_plus_six_AcmsteeringV09_main_2lflm 00000001802e4510 f   c93_six_plus_six_AcmsteeringV09_main_2lflm.obj
 0001:002e3540       sf_opaque_gateway_c93_six_plus_six_AcmsteeringV09_main_2lflm 00000001802e4540 f   c93_six_plus_six_AcmsteeringV09_main_2lflm.obj
 0001:002e3560       sf_gateway_c93_six_plus_six_AcmsteeringV09_main_2lflm 00000001802e4560 f   c93_six_plus_six_AcmsteeringV09_main_2lflm.obj
 0001:002e3f80       c93_b_sf_marshallIn        00000001802e4f80 f   c93_six_plus_six_AcmsteeringV09_main_2lflm.obj
 0001:002e4020       c93_c_emlrt_marshallIn     00000001802e5020 f   c93_six_plus_six_AcmsteeringV09_main_2lflm.obj
 0001:002e40b0       sf_opaque_get_sim_state_c93_six_plus_six_AcmsteeringV09_main_2lflm 00000001802e50b0 f   c93_six_plus_six_AcmsteeringV09_main_2lflm.obj
 0001:002e40d0       sf_opaque_set_sim_state_c93_six_plus_six_AcmsteeringV09_main_2lflm 00000001802e50d0 f   c93_six_plus_six_AcmsteeringV09_main_2lflm.obj
 0001:002e4100       sf_opaque_terminate_c93_six_plus_six_AcmsteeringV09_main_2lflm 00000001802e5100 f   c93_six_plus_six_AcmsteeringV09_main_2lflm.obj
 0001:002e41a0       finalize_c93_six_plus_six_AcmsteeringV09_main_2lflm 00000001802e51a0 f   c93_six_plus_six_AcmsteeringV09_main_2lflm.obj
 0001:002e41b0       sf_opaque_init_subchart_simstructs 00000001802e51b0 f   c93_six_plus_six_AcmsteeringV09_main_2lflm.obj
 0001:002e41d0       initSimStructsc93_six_plus_six_AcmsteeringV09_main_2lflm 00000001802e51d0 f   c93_six_plus_six_AcmsteeringV09_main_2lflm.obj
 0001:002e41e0       mdlRTW_c93_six_plus_six_AcmsteeringV09_main_2lflm 00000001802e51e0 f   c93_six_plus_six_AcmsteeringV09_main_2lflm.obj
 0001:002e4290       c94_info_helper            00000001802e5290 f   c94_six_plus_six_AcmsteeringV09_main_2lflm.obj
 0001:002eda10       c94_emlrt_marshallOut      00000001802eea10 f   c94_six_plus_six_AcmsteeringV09_main_2lflm.obj
 0001:002edaa0       c94_b_emlrt_marshallOut    00000001802eeaa0 f   c94_six_plus_six_AcmsteeringV09_main_2lflm.obj
 0001:002ee4e0       get_sim_state_c94_six_plus_six_AcmsteeringV09_main_2lflm 00000001802ef4e0 f   c94_six_plus_six_AcmsteeringV09_main_2lflm.obj
 0001:002ee680       sf_get_sim_state_info_c94_six_plus_six_AcmsteeringV09_main_2lflm 00000001802ef680 f   c94_six_plus_six_AcmsteeringV09_main_2lflm.obj
 0001:002ee850       set_sim_state_c94_six_plus_six_AcmsteeringV09_main_2lflm 00000001802ef850 f   c94_six_plus_six_AcmsteeringV09_main_2lflm.obj
 0001:002ee930       c94_update_debugger_state_c94_six_plus_six_AcmsteeringV09_main_2 00000001802ef930 f   c94_six_plus_six_AcmsteeringV09_main_2lflm.obj
 0001:002ee940       c94_emlrt_marshallIn       00000001802ef940 f   c94_six_plus_six_AcmsteeringV09_main_2lflm.obj
 0001:002ee9b0       c94_b_emlrt_marshallIn     00000001802ef9b0 f   c94_six_plus_six_AcmsteeringV09_main_2lflm.obj
 0001:002eea40       c94_e_emlrt_marshallIn     00000001802efa40 f   c94_six_plus_six_AcmsteeringV09_main_2lflm.obj
 0001:002eeaa0       c94_f_emlrt_marshallIn     00000001802efaa0 f   c94_six_plus_six_AcmsteeringV09_main_2lflm.obj
 0001:002eeba0       mdlProcessParameters_c94_six_plus_six_AcmsteeringV09_main_2lflm 00000001802efba0 f   c94_six_plus_six_AcmsteeringV09_main_2lflm.obj
 0001:002eec80       initialize_params_c94_six_plus_six_AcmsteeringV09_main_2lflm 00000001802efc80 f   c94_six_plus_six_AcmsteeringV09_main_2lflm.obj
 0001:002eec90       mdlSetWorkWidths_c94_six_plus_six_AcmsteeringV09_main_2lflm 00000001802efc90 f   c94_six_plus_six_AcmsteeringV09_main_2lflm.obj
 0001:002ef1f0       sf_get_instance_specialization 00000001802f01f0 f   c94_six_plus_six_AcmsteeringV09_main_2lflm.obj
 0001:002ef200       mdlStart_c94_six_plus_six_AcmsteeringV09_main_2lflm 00000001802f0200 f   c94_six_plus_six_AcmsteeringV09_main_2lflm.obj
 0001:002ef430       init_dsm_address_info      00000001802f0430 f   c94_six_plus_six_AcmsteeringV09_main_2lflm.obj
 0001:002ef440       chart_debug_initialization 00000001802f0440 f   c94_six_plus_six_AcmsteeringV09_main_2lflm.obj
 0001:002f0000       init_script_number_translation 00000001802f1000 f   c94_six_plus_six_AcmsteeringV09_main_2lflm.obj
 0001:002f0020       c94_sf_marshallOut         00000001802f1020 f   c94_six_plus_six_AcmsteeringV09_main_2lflm.obj
 0001:002f00e0       c94_sf_marshallIn          00000001802f10e0 f   c94_six_plus_six_AcmsteeringV09_main_2lflm.obj
 0001:002f0180       c94_b_sf_marshallOut       00000001802f1180 f   c94_six_plus_six_AcmsteeringV09_main_2lflm.obj
 0001:002f0230       sf_opaque_initialize_c94_six_plus_six_AcmsteeringV09_main_2lflm 00000001802f1230 f   c94_six_plus_six_AcmsteeringV09_main_2lflm.obj
 0001:002f0270       initialize_c94_six_plus_six_AcmsteeringV09_main_2lflm 00000001802f1270 f   c94_six_plus_six_AcmsteeringV09_main_2lflm.obj
 0001:002f02c0       sf_opaque_enable_c94_six_plus_six_AcmsteeringV09_main_2lflm 00000001802f12c0 f   c94_six_plus_six_AcmsteeringV09_main_2lflm.obj
 0001:002f02e0       enable_c94_six_plus_six_AcmsteeringV09_main_2lflm 00000001802f12e0 f   c94_six_plus_six_AcmsteeringV09_main_2lflm.obj
 0001:002f0310       sf_opaque_disable_c94_six_plus_six_AcmsteeringV09_main_2lflm 00000001802f1310 f   c94_six_plus_six_AcmsteeringV09_main_2lflm.obj
 0001:002f0330       disable_c94_six_plus_six_AcmsteeringV09_main_2lflm 00000001802f1330 f   c94_six_plus_six_AcmsteeringV09_main_2lflm.obj
 0001:002f0360       sf_opaque_gateway_c94_six_plus_six_AcmsteeringV09_main_2lflm 00000001802f1360 f   c94_six_plus_six_AcmsteeringV09_main_2lflm.obj
 0001:002f0380       sf_gateway_c94_six_plus_six_AcmsteeringV09_main_2lflm 00000001802f1380 f   c94_six_plus_six_AcmsteeringV09_main_2lflm.obj
 0001:002f0d90       c94_b_sf_marshallIn        00000001802f1d90 f   c94_six_plus_six_AcmsteeringV09_main_2lflm.obj
 0001:002f0e30       c94_c_emlrt_marshallIn     00000001802f1e30 f   c94_six_plus_six_AcmsteeringV09_main_2lflm.obj
 0001:002f0ec0       sf_opaque_get_sim_state_c94_six_plus_six_AcmsteeringV09_main_2lflm 00000001802f1ec0 f   c94_six_plus_six_AcmsteeringV09_main_2lflm.obj
 0001:002f0ee0       sf_opaque_set_sim_state_c94_six_plus_six_AcmsteeringV09_main_2lflm 00000001802f1ee0 f   c94_six_plus_six_AcmsteeringV09_main_2lflm.obj
 0001:002f0f10       sf_opaque_terminate_c94_six_plus_six_AcmsteeringV09_main_2lflm 00000001802f1f10 f   c94_six_plus_six_AcmsteeringV09_main_2lflm.obj
 0001:002f0fb0       finalize_c94_six_plus_six_AcmsteeringV09_main_2lflm 00000001802f1fb0 f   c94_six_plus_six_AcmsteeringV09_main_2lflm.obj
 0001:002f0fc0       sf_opaque_init_subchart_simstructs 00000001802f1fc0 f   c94_six_plus_six_AcmsteeringV09_main_2lflm.obj
 0001:002f0fe0       initSimStructsc94_six_plus_six_AcmsteeringV09_main_2lflm 00000001802f1fe0 f   c94_six_plus_six_AcmsteeringV09_main_2lflm.obj
 0001:002f0ff0       mdlRTW_c94_six_plus_six_AcmsteeringV09_main_2lflm 00000001802f1ff0 f   c94_six_plus_six_AcmsteeringV09_main_2lflm.obj
 0001:002f10a0       c95_info_helper            00000001802f20a0 f   c95_six_plus_six_AcmsteeringV09_main_2lflm.obj
 0001:002fa820       c95_emlrt_marshallOut      00000001802fb820 f   c95_six_plus_six_AcmsteeringV09_main_2lflm.obj
 0001:002fa8b0       c95_b_emlrt_marshallOut    00000001802fb8b0 f   c95_six_plus_six_AcmsteeringV09_main_2lflm.obj
 0001:002fb2f0       get_sim_state_c95_six_plus_six_AcmsteeringV09_main_2lflm 00000001802fc2f0 f   c95_six_plus_six_AcmsteeringV09_main_2lflm.obj
 0001:002fb490       sf_get_sim_state_info_c95_six_plus_six_AcmsteeringV09_main_2lflm 00000001802fc490 f   c95_six_plus_six_AcmsteeringV09_main_2lflm.obj
 0001:002fb660       set_sim_state_c95_six_plus_six_AcmsteeringV09_main_2lflm 00000001802fc660 f   c95_six_plus_six_AcmsteeringV09_main_2lflm.obj
 0001:002fb740       c95_update_debugger_state_c95_six_plus_six_AcmsteeringV09_main_2 00000001802fc740 f   c95_six_plus_six_AcmsteeringV09_main_2lflm.obj
 0001:002fb750       c95_emlrt_marshallIn       00000001802fc750 f   c95_six_plus_six_AcmsteeringV09_main_2lflm.obj
 0001:002fb7c0       c95_b_emlrt_marshallIn     00000001802fc7c0 f   c95_six_plus_six_AcmsteeringV09_main_2lflm.obj
 0001:002fb850       c95_e_emlrt_marshallIn     00000001802fc850 f   c95_six_plus_six_AcmsteeringV09_main_2lflm.obj
 0001:002fb8b0       c95_f_emlrt_marshallIn     00000001802fc8b0 f   c95_six_plus_six_AcmsteeringV09_main_2lflm.obj
 0001:002fb9b0       mdlProcessParameters_c95_six_plus_six_AcmsteeringV09_main_2lflm 00000001802fc9b0 f   c95_six_plus_six_AcmsteeringV09_main_2lflm.obj
 0001:002fba90       initialize_params_c95_six_plus_six_AcmsteeringV09_main_2lflm 00000001802fca90 f   c95_six_plus_six_AcmsteeringV09_main_2lflm.obj
 0001:002fbaa0       mdlSetWorkWidths_c95_six_plus_six_AcmsteeringV09_main_2lflm 00000001802fcaa0 f   c95_six_plus_six_AcmsteeringV09_main_2lflm.obj
 0001:002fc000       sf_get_instance_specialization 00000001802fd000 f   c95_six_plus_six_AcmsteeringV09_main_2lflm.obj
 0001:002fc010       mdlStart_c95_six_plus_six_AcmsteeringV09_main_2lflm 00000001802fd010 f   c95_six_plus_six_AcmsteeringV09_main_2lflm.obj
 0001:002fc240       init_dsm_address_info      00000001802fd240 f   c95_six_plus_six_AcmsteeringV09_main_2lflm.obj
 0001:002fc250       chart_debug_initialization 00000001802fd250 f   c95_six_plus_six_AcmsteeringV09_main_2lflm.obj
 0001:002fce10       init_script_number_translation 00000001802fde10 f   c95_six_plus_six_AcmsteeringV09_main_2lflm.obj
 0001:002fce30       c95_sf_marshallOut         00000001802fde30 f   c95_six_plus_six_AcmsteeringV09_main_2lflm.obj
 0001:002fcef0       c95_sf_marshallIn          00000001802fdef0 f   c95_six_plus_six_AcmsteeringV09_main_2lflm.obj
 0001:002fcf90       c95_b_sf_marshallOut       00000001802fdf90 f   c95_six_plus_six_AcmsteeringV09_main_2lflm.obj
 0001:002fd040       sf_opaque_initialize_c95_six_plus_six_AcmsteeringV09_main_2lflm 00000001802fe040 f   c95_six_plus_six_AcmsteeringV09_main_2lflm.obj
 0001:002fd080       initialize_c95_six_plus_six_AcmsteeringV09_main_2lflm 00000001802fe080 f   c95_six_plus_six_AcmsteeringV09_main_2lflm.obj
 0001:002fd0d0       sf_opaque_enable_c95_six_plus_six_AcmsteeringV09_main_2lflm 00000001802fe0d0 f   c95_six_plus_six_AcmsteeringV09_main_2lflm.obj
 0001:002fd0f0       enable_c95_six_plus_six_AcmsteeringV09_main_2lflm 00000001802fe0f0 f   c95_six_plus_six_AcmsteeringV09_main_2lflm.obj
 0001:002fd120       sf_opaque_disable_c95_six_plus_six_AcmsteeringV09_main_2lflm 00000001802fe120 f   c95_six_plus_six_AcmsteeringV09_main_2lflm.obj
 0001:002fd140       disable_c95_six_plus_six_AcmsteeringV09_main_2lflm 00000001802fe140 f   c95_six_plus_six_AcmsteeringV09_main_2lflm.obj
 0001:002fd170       sf_opaque_gateway_c95_six_plus_six_AcmsteeringV09_main_2lflm 00000001802fe170 f   c95_six_plus_six_AcmsteeringV09_main_2lflm.obj
 0001:002fd190       sf_gateway_c95_six_plus_six_AcmsteeringV09_main_2lflm 00000001802fe190 f   c95_six_plus_six_AcmsteeringV09_main_2lflm.obj
 0001:002fdba0       c95_b_sf_marshallIn        00000001802feba0 f   c95_six_plus_six_AcmsteeringV09_main_2lflm.obj
 0001:002fdc40       c95_c_emlrt_marshallIn     00000001802fec40 f   c95_six_plus_six_AcmsteeringV09_main_2lflm.obj
 0001:002fdcd0       sf_opaque_get_sim_state_c95_six_plus_six_AcmsteeringV09_main_2lflm 00000001802fecd0 f   c95_six_plus_six_AcmsteeringV09_main_2lflm.obj
 0001:002fdcf0       sf_opaque_set_sim_state_c95_six_plus_six_AcmsteeringV09_main_2lflm 00000001802fecf0 f   c95_six_plus_six_AcmsteeringV09_main_2lflm.obj
 0001:002fdd20       sf_opaque_terminate_c95_six_plus_six_AcmsteeringV09_main_2lflm 00000001802fed20 f   c95_six_plus_six_AcmsteeringV09_main_2lflm.obj
 0001:002fddc0       finalize_c95_six_plus_six_AcmsteeringV09_main_2lflm 00000001802fedc0 f   c95_six_plus_six_AcmsteeringV09_main_2lflm.obj
 0001:002fddd0       sf_opaque_init_subchart_simstructs 00000001802fedd0 f   c95_six_plus_six_AcmsteeringV09_main_2lflm.obj
 0001:002fddf0       initSimStructsc95_six_plus_six_AcmsteeringV09_main_2lflm 00000001802fedf0 f   c95_six_plus_six_AcmsteeringV09_main_2lflm.obj
 0001:002fde00       mdlRTW_c95_six_plus_six_AcmsteeringV09_main_2lflm 00000001802fee00 f   c95_six_plus_six_AcmsteeringV09_main_2lflm.obj
 0001:002fdeb0       c96_info_helper            00000001802feeb0 f   c96_six_plus_six_AcmsteeringV09_main_2lflm.obj
 0001:00307630       c96_emlrt_marshallOut      0000000180308630 f   c96_six_plus_six_AcmsteeringV09_main_2lflm.obj
 0001:003076c0       c96_b_emlrt_marshallOut    00000001803086c0 f   c96_six_plus_six_AcmsteeringV09_main_2lflm.obj
 0001:00308100       get_sim_state_c96_six_plus_six_AcmsteeringV09_main_2lflm 0000000180309100 f   c96_six_plus_six_AcmsteeringV09_main_2lflm.obj
 0001:003082a0       sf_get_sim_state_info_c96_six_plus_six_AcmsteeringV09_main_2lflm 00000001803092a0 f   c96_six_plus_six_AcmsteeringV09_main_2lflm.obj
 0001:00308470       set_sim_state_c96_six_plus_six_AcmsteeringV09_main_2lflm 0000000180309470 f   c96_six_plus_six_AcmsteeringV09_main_2lflm.obj
 0001:00308550       c96_update_debugger_state_c96_six_plus_six_AcmsteeringV09_main_2 0000000180309550 f   c96_six_plus_six_AcmsteeringV09_main_2lflm.obj
 0001:00308560       c96_emlrt_marshallIn       0000000180309560 f   c96_six_plus_six_AcmsteeringV09_main_2lflm.obj
 0001:003085d0       c96_b_emlrt_marshallIn     00000001803095d0 f   c96_six_plus_six_AcmsteeringV09_main_2lflm.obj
 0001:00308660       c96_e_emlrt_marshallIn     0000000180309660 f   c96_six_plus_six_AcmsteeringV09_main_2lflm.obj
 0001:003086c0       c96_f_emlrt_marshallIn     00000001803096c0 f   c96_six_plus_six_AcmsteeringV09_main_2lflm.obj
 0001:003087c0       mdlProcessParameters_c96_six_plus_six_AcmsteeringV09_main_2lflm 00000001803097c0 f   c96_six_plus_six_AcmsteeringV09_main_2lflm.obj
 0001:003088a0       initialize_params_c96_six_plus_six_AcmsteeringV09_main_2lflm 00000001803098a0 f   c96_six_plus_six_AcmsteeringV09_main_2lflm.obj
 0001:003088b0       mdlSetWorkWidths_c96_six_plus_six_AcmsteeringV09_main_2lflm 00000001803098b0 f   c96_six_plus_six_AcmsteeringV09_main_2lflm.obj
 0001:00308e10       sf_get_instance_specialization 0000000180309e10 f   c96_six_plus_six_AcmsteeringV09_main_2lflm.obj
 0001:00308e20       mdlStart_c96_six_plus_six_AcmsteeringV09_main_2lflm 0000000180309e20 f   c96_six_plus_six_AcmsteeringV09_main_2lflm.obj
 0001:00309050       init_dsm_address_info      000000018030a050 f   c96_six_plus_six_AcmsteeringV09_main_2lflm.obj
 0001:00309060       chart_debug_initialization 000000018030a060 f   c96_six_plus_six_AcmsteeringV09_main_2lflm.obj
 0001:00309c20       init_script_number_translation 000000018030ac20 f   c96_six_plus_six_AcmsteeringV09_main_2lflm.obj
 0001:00309c40       c96_sf_marshallOut         000000018030ac40 f   c96_six_plus_six_AcmsteeringV09_main_2lflm.obj
 0001:00309d00       c96_sf_marshallIn          000000018030ad00 f   c96_six_plus_six_AcmsteeringV09_main_2lflm.obj
 0001:00309da0       c96_b_sf_marshallOut       000000018030ada0 f   c96_six_plus_six_AcmsteeringV09_main_2lflm.obj
 0001:00309e50       sf_opaque_initialize_c96_six_plus_six_AcmsteeringV09_main_2lflm 000000018030ae50 f   c96_six_plus_six_AcmsteeringV09_main_2lflm.obj
 0001:00309e90       initialize_c96_six_plus_six_AcmsteeringV09_main_2lflm 000000018030ae90 f   c96_six_plus_six_AcmsteeringV09_main_2lflm.obj
 0001:00309ee0       sf_opaque_enable_c96_six_plus_six_AcmsteeringV09_main_2lflm 000000018030aee0 f   c96_six_plus_six_AcmsteeringV09_main_2lflm.obj
 0001:00309f00       enable_c96_six_plus_six_AcmsteeringV09_main_2lflm 000000018030af00 f   c96_six_plus_six_AcmsteeringV09_main_2lflm.obj
 0001:00309f30       sf_opaque_disable_c96_six_plus_six_AcmsteeringV09_main_2lflm 000000018030af30 f   c96_six_plus_six_AcmsteeringV09_main_2lflm.obj
 0001:00309f50       disable_c96_six_plus_six_AcmsteeringV09_main_2lflm 000000018030af50 f   c96_six_plus_six_AcmsteeringV09_main_2lflm.obj
 0001:00309f80       sf_opaque_gateway_c96_six_plus_six_AcmsteeringV09_main_2lflm 000000018030af80 f   c96_six_plus_six_AcmsteeringV09_main_2lflm.obj
 0001:00309fa0       sf_gateway_c96_six_plus_six_AcmsteeringV09_main_2lflm 000000018030afa0 f   c96_six_plus_six_AcmsteeringV09_main_2lflm.obj
 0001:0030a9b0       c96_b_sf_marshallIn        000000018030b9b0 f   c96_six_plus_six_AcmsteeringV09_main_2lflm.obj
 0001:0030aa50       c96_c_emlrt_marshallIn     000000018030ba50 f   c96_six_plus_six_AcmsteeringV09_main_2lflm.obj
 0001:0030aae0       sf_opaque_get_sim_state_c96_six_plus_six_AcmsteeringV09_main_2lflm 000000018030bae0 f   c96_six_plus_six_AcmsteeringV09_main_2lflm.obj
 0001:0030ab00       sf_opaque_set_sim_state_c96_six_plus_six_AcmsteeringV09_main_2lflm 000000018030bb00 f   c96_six_plus_six_AcmsteeringV09_main_2lflm.obj
 0001:0030ab30       sf_opaque_terminate_c96_six_plus_six_AcmsteeringV09_main_2lflm 000000018030bb30 f   c96_six_plus_six_AcmsteeringV09_main_2lflm.obj
 0001:0030abd0       finalize_c96_six_plus_six_AcmsteeringV09_main_2lflm 000000018030bbd0 f   c96_six_plus_six_AcmsteeringV09_main_2lflm.obj
 0001:0030abe0       sf_opaque_init_subchart_simstructs 000000018030bbe0 f   c96_six_plus_six_AcmsteeringV09_main_2lflm.obj
 0001:0030ac00       initSimStructsc96_six_plus_six_AcmsteeringV09_main_2lflm 000000018030bc00 f   c96_six_plus_six_AcmsteeringV09_main_2lflm.obj
 0001:0030ac10       mdlRTW_c96_six_plus_six_AcmsteeringV09_main_2lflm 000000018030bc10 f   c96_six_plus_six_AcmsteeringV09_main_2lflm.obj
 0001:0030acc0       c97_info_helper            000000018030bcc0 f   c97_six_plus_six_AcmsteeringV09_main_2lflm.obj
 0001:00314440       c97_emlrt_marshallOut      0000000180315440 f   c97_six_plus_six_AcmsteeringV09_main_2lflm.obj
 0001:003144d0       c97_b_emlrt_marshallOut    00000001803154d0 f   c97_six_plus_six_AcmsteeringV09_main_2lflm.obj
 0001:00314f10       get_sim_state_c97_six_plus_six_AcmsteeringV09_main_2lflm 0000000180315f10 f   c97_six_plus_six_AcmsteeringV09_main_2lflm.obj
 0001:003150b0       sf_get_sim_state_info_c97_six_plus_six_AcmsteeringV09_main_2lflm 00000001803160b0 f   c97_six_plus_six_AcmsteeringV09_main_2lflm.obj
 0001:00315280       set_sim_state_c97_six_plus_six_AcmsteeringV09_main_2lflm 0000000180316280 f   c97_six_plus_six_AcmsteeringV09_main_2lflm.obj
 0001:00315360       c97_update_debugger_state_c97_six_plus_six_AcmsteeringV09_main_2 0000000180316360 f   c97_six_plus_six_AcmsteeringV09_main_2lflm.obj
 0001:00315370       c97_emlrt_marshallIn       0000000180316370 f   c97_six_plus_six_AcmsteeringV09_main_2lflm.obj
 0001:003153e0       c97_b_emlrt_marshallIn     00000001803163e0 f   c97_six_plus_six_AcmsteeringV09_main_2lflm.obj
 0001:00315470       c97_e_emlrt_marshallIn     0000000180316470 f   c97_six_plus_six_AcmsteeringV09_main_2lflm.obj
 0001:003154d0       c97_f_emlrt_marshallIn     00000001803164d0 f   c97_six_plus_six_AcmsteeringV09_main_2lflm.obj
 0001:003155d0       mdlProcessParameters_c97_six_plus_six_AcmsteeringV09_main_2lflm 00000001803165d0 f   c97_six_plus_six_AcmsteeringV09_main_2lflm.obj
 0001:003156b0       initialize_params_c97_six_plus_six_AcmsteeringV09_main_2lflm 00000001803166b0 f   c97_six_plus_six_AcmsteeringV09_main_2lflm.obj
 0001:003156c0       mdlSetWorkWidths_c97_six_plus_six_AcmsteeringV09_main_2lflm 00000001803166c0 f   c97_six_plus_six_AcmsteeringV09_main_2lflm.obj
 0001:00315c20       sf_get_instance_specialization 0000000180316c20 f   c97_six_plus_six_AcmsteeringV09_main_2lflm.obj
 0001:00315c30       mdlStart_c97_six_plus_six_AcmsteeringV09_main_2lflm 0000000180316c30 f   c97_six_plus_six_AcmsteeringV09_main_2lflm.obj
 0001:00315e60       init_dsm_address_info      0000000180316e60 f   c97_six_plus_six_AcmsteeringV09_main_2lflm.obj
 0001:00315e70       chart_debug_initialization 0000000180316e70 f   c97_six_plus_six_AcmsteeringV09_main_2lflm.obj
 0001:00316a30       init_script_number_translation 0000000180317a30 f   c97_six_plus_six_AcmsteeringV09_main_2lflm.obj
 0001:00316a50       c97_sf_marshallOut         0000000180317a50 f   c97_six_plus_six_AcmsteeringV09_main_2lflm.obj
 0001:00316b10       c97_sf_marshallIn          0000000180317b10 f   c97_six_plus_six_AcmsteeringV09_main_2lflm.obj
 0001:00316bb0       c97_b_sf_marshallOut       0000000180317bb0 f   c97_six_plus_six_AcmsteeringV09_main_2lflm.obj
 0001:00316c60       sf_opaque_initialize_c97_six_plus_six_AcmsteeringV09_main_2lflm 0000000180317c60 f   c97_six_plus_six_AcmsteeringV09_main_2lflm.obj
 0001:00316ca0       initialize_c97_six_plus_six_AcmsteeringV09_main_2lflm 0000000180317ca0 f   c97_six_plus_six_AcmsteeringV09_main_2lflm.obj
 0001:00316cf0       sf_opaque_enable_c97_six_plus_six_AcmsteeringV09_main_2lflm 0000000180317cf0 f   c97_six_plus_six_AcmsteeringV09_main_2lflm.obj
 0001:00316d10       enable_c97_six_plus_six_AcmsteeringV09_main_2lflm 0000000180317d10 f   c97_six_plus_six_AcmsteeringV09_main_2lflm.obj
 0001:00316d40       sf_opaque_disable_c97_six_plus_six_AcmsteeringV09_main_2lflm 0000000180317d40 f   c97_six_plus_six_AcmsteeringV09_main_2lflm.obj
 0001:00316d60       disable_c97_six_plus_six_AcmsteeringV09_main_2lflm 0000000180317d60 f   c97_six_plus_six_AcmsteeringV09_main_2lflm.obj
 0001:00316d90       sf_opaque_gateway_c97_six_plus_six_AcmsteeringV09_main_2lflm 0000000180317d90 f   c97_six_plus_six_AcmsteeringV09_main_2lflm.obj
 0001:00316db0       sf_gateway_c97_six_plus_six_AcmsteeringV09_main_2lflm 0000000180317db0 f   c97_six_plus_six_AcmsteeringV09_main_2lflm.obj
 0001:003177b0       c97_b_sf_marshallIn        00000001803187b0 f   c97_six_plus_six_AcmsteeringV09_main_2lflm.obj
 0001:00317850       c97_c_emlrt_marshallIn     0000000180318850 f   c97_six_plus_six_AcmsteeringV09_main_2lflm.obj
 0001:003178e0       sf_opaque_get_sim_state_c97_six_plus_six_AcmsteeringV09_main_2lflm 00000001803188e0 f   c97_six_plus_six_AcmsteeringV09_main_2lflm.obj
 0001:00317900       sf_opaque_set_sim_state_c97_six_plus_six_AcmsteeringV09_main_2lflm 0000000180318900 f   c97_six_plus_six_AcmsteeringV09_main_2lflm.obj
 0001:00317930       sf_opaque_terminate_c97_six_plus_six_AcmsteeringV09_main_2lflm 0000000180318930 f   c97_six_plus_six_AcmsteeringV09_main_2lflm.obj
 0001:003179d0       finalize_c97_six_plus_six_AcmsteeringV09_main_2lflm 00000001803189d0 f   c97_six_plus_six_AcmsteeringV09_main_2lflm.obj
 0001:003179e0       sf_opaque_init_subchart_simstructs 00000001803189e0 f   c97_six_plus_six_AcmsteeringV09_main_2lflm.obj
 0001:00317a00       initSimStructsc97_six_plus_six_AcmsteeringV09_main_2lflm 0000000180318a00 f   c97_six_plus_six_AcmsteeringV09_main_2lflm.obj
 0001:00317a10       mdlRTW_c97_six_plus_six_AcmsteeringV09_main_2lflm 0000000180318a10 f   c97_six_plus_six_AcmsteeringV09_main_2lflm.obj
 0001:00317ac0       c98_info_helper            0000000180318ac0 f   c98_six_plus_six_AcmsteeringV09_main_2lflm.obj
 0001:00321240       c98_emlrt_marshallOut      0000000180322240 f   c98_six_plus_six_AcmsteeringV09_main_2lflm.obj
 0001:003212d0       c98_b_emlrt_marshallOut    00000001803222d0 f   c98_six_plus_six_AcmsteeringV09_main_2lflm.obj
 0001:00321d10       get_sim_state_c98_six_plus_six_AcmsteeringV09_main_2lflm 0000000180322d10 f   c98_six_plus_six_AcmsteeringV09_main_2lflm.obj
 0001:00321eb0       sf_get_sim_state_info_c98_six_plus_six_AcmsteeringV09_main_2lflm 0000000180322eb0 f   c98_six_plus_six_AcmsteeringV09_main_2lflm.obj
 0001:00322080       set_sim_state_c98_six_plus_six_AcmsteeringV09_main_2lflm 0000000180323080 f   c98_six_plus_six_AcmsteeringV09_main_2lflm.obj
 0001:00322160       c98_update_debugger_state_c98_six_plus_six_AcmsteeringV09_main_2 0000000180323160 f   c98_six_plus_six_AcmsteeringV09_main_2lflm.obj
 0001:00322170       c98_emlrt_marshallIn       0000000180323170 f   c98_six_plus_six_AcmsteeringV09_main_2lflm.obj
 0001:003221e0       c98_b_emlrt_marshallIn     00000001803231e0 f   c98_six_plus_six_AcmsteeringV09_main_2lflm.obj
 0001:00322270       c98_e_emlrt_marshallIn     0000000180323270 f   c98_six_plus_six_AcmsteeringV09_main_2lflm.obj
 0001:003222d0       c98_f_emlrt_marshallIn     00000001803232d0 f   c98_six_plus_six_AcmsteeringV09_main_2lflm.obj
 0001:003223d0       mdlProcessParameters_c98_six_plus_six_AcmsteeringV09_main_2lflm 00000001803233d0 f   c98_six_plus_six_AcmsteeringV09_main_2lflm.obj
 0001:003224b0       initialize_params_c98_six_plus_six_AcmsteeringV09_main_2lflm 00000001803234b0 f   c98_six_plus_six_AcmsteeringV09_main_2lflm.obj
 0001:003224c0       mdlSetWorkWidths_c98_six_plus_six_AcmsteeringV09_main_2lflm 00000001803234c0 f   c98_six_plus_six_AcmsteeringV09_main_2lflm.obj
 0001:00322a20       sf_get_instance_specialization 0000000180323a20 f   c98_six_plus_six_AcmsteeringV09_main_2lflm.obj
 0001:00322a30       mdlStart_c98_six_plus_six_AcmsteeringV09_main_2lflm 0000000180323a30 f   c98_six_plus_six_AcmsteeringV09_main_2lflm.obj
 0001:00322c60       init_dsm_address_info      0000000180323c60 f   c98_six_plus_six_AcmsteeringV09_main_2lflm.obj
 0001:00322c70       chart_debug_initialization 0000000180323c70 f   c98_six_plus_six_AcmsteeringV09_main_2lflm.obj
 0001:00323830       init_script_number_translation 0000000180324830 f   c98_six_plus_six_AcmsteeringV09_main_2lflm.obj
 0001:00323850       c98_sf_marshallOut         0000000180324850 f   c98_six_plus_six_AcmsteeringV09_main_2lflm.obj
 0001:00323910       c98_sf_marshallIn          0000000180324910 f   c98_six_plus_six_AcmsteeringV09_main_2lflm.obj
 0001:003239b0       c98_b_sf_marshallOut       00000001803249b0 f   c98_six_plus_six_AcmsteeringV09_main_2lflm.obj
 0001:00323a60       sf_opaque_initialize_c98_six_plus_six_AcmsteeringV09_main_2lflm 0000000180324a60 f   c98_six_plus_six_AcmsteeringV09_main_2lflm.obj
 0001:00323aa0       initialize_c98_six_plus_six_AcmsteeringV09_main_2lflm 0000000180324aa0 f   c98_six_plus_six_AcmsteeringV09_main_2lflm.obj
 0001:00323af0       sf_opaque_enable_c98_six_plus_six_AcmsteeringV09_main_2lflm 0000000180324af0 f   c98_six_plus_six_AcmsteeringV09_main_2lflm.obj
 0001:00323b10       enable_c98_six_plus_six_AcmsteeringV09_main_2lflm 0000000180324b10 f   c98_six_plus_six_AcmsteeringV09_main_2lflm.obj
 0001:00323b40       sf_opaque_disable_c98_six_plus_six_AcmsteeringV09_main_2lflm 0000000180324b40 f   c98_six_plus_six_AcmsteeringV09_main_2lflm.obj
 0001:00323b60       disable_c98_six_plus_six_AcmsteeringV09_main_2lflm 0000000180324b60 f   c98_six_plus_six_AcmsteeringV09_main_2lflm.obj
 0001:00323b90       sf_opaque_gateway_c98_six_plus_six_AcmsteeringV09_main_2lflm 0000000180324b90 f   c98_six_plus_six_AcmsteeringV09_main_2lflm.obj
 0001:00323bb0       sf_gateway_c98_six_plus_six_AcmsteeringV09_main_2lflm 0000000180324bb0 f   c98_six_plus_six_AcmsteeringV09_main_2lflm.obj
 0001:003245c0       c98_b_sf_marshallIn        00000001803255c0 f   c98_six_plus_six_AcmsteeringV09_main_2lflm.obj
 0001:00324660       c98_c_emlrt_marshallIn     0000000180325660 f   c98_six_plus_six_AcmsteeringV09_main_2lflm.obj
 0001:003246f0       sf_opaque_get_sim_state_c98_six_plus_six_AcmsteeringV09_main_2lflm 00000001803256f0 f   c98_six_plus_six_AcmsteeringV09_main_2lflm.obj
 0001:00324710       sf_opaque_set_sim_state_c98_six_plus_six_AcmsteeringV09_main_2lflm 0000000180325710 f   c98_six_plus_six_AcmsteeringV09_main_2lflm.obj
 0001:00324740       sf_opaque_terminate_c98_six_plus_six_AcmsteeringV09_main_2lflm 0000000180325740 f   c98_six_plus_six_AcmsteeringV09_main_2lflm.obj
 0001:003247e0       finalize_c98_six_plus_six_AcmsteeringV09_main_2lflm 00000001803257e0 f   c98_six_plus_six_AcmsteeringV09_main_2lflm.obj
 0001:003247f0       sf_opaque_init_subchart_simstructs 00000001803257f0 f   c98_six_plus_six_AcmsteeringV09_main_2lflm.obj
 0001:00324810       initSimStructsc98_six_plus_six_AcmsteeringV09_main_2lflm 0000000180325810 f   c98_six_plus_six_AcmsteeringV09_main_2lflm.obj
 0001:00324820       mdlRTW_c98_six_plus_six_AcmsteeringV09_main_2lflm 0000000180325820 f   c98_six_plus_six_AcmsteeringV09_main_2lflm.obj
 0001:003248d0       c99_info_helper            00000001803258d0 f   c99_six_plus_six_AcmsteeringV09_main_2lflm.obj
 0001:00326850       c99_emlrt_marshallOut      0000000180327850 f   c99_six_plus_six_AcmsteeringV09_main_2lflm.obj
 0001:003268e0       c99_b_emlrt_marshallOut    00000001803278e0 f   c99_six_plus_six_AcmsteeringV09_main_2lflm.obj
 0001:00327320       get_sim_state_c99_six_plus_six_AcmsteeringV09_main_2lflm 0000000180328320 f   c99_six_plus_six_AcmsteeringV09_main_2lflm.obj
 0001:003274c0       sf_get_sim_state_info_c99_six_plus_six_AcmsteeringV09_main_2lflm 00000001803284c0 f   c99_six_plus_six_AcmsteeringV09_main_2lflm.obj
 0001:00327690       set_sim_state_c99_six_plus_six_AcmsteeringV09_main_2lflm 0000000180328690 f   c99_six_plus_six_AcmsteeringV09_main_2lflm.obj
 0001:00327770       c99_update_debugger_state_c99_six_plus_six_AcmsteeringV09_main_2 0000000180328770 f   c99_six_plus_six_AcmsteeringV09_main_2lflm.obj
 0001:00327780       c99_emlrt_marshallIn       0000000180328780 f   c99_six_plus_six_AcmsteeringV09_main_2lflm.obj
 0001:003277f0       c99_b_emlrt_marshallIn     00000001803287f0 f   c99_six_plus_six_AcmsteeringV09_main_2lflm.obj
 0001:00327880       c99_e_emlrt_marshallIn     0000000180328880 f   c99_six_plus_six_AcmsteeringV09_main_2lflm.obj
 0001:003278e0       c99_f_emlrt_marshallIn     00000001803288e0 f   c99_six_plus_six_AcmsteeringV09_main_2lflm.obj
 0001:003279e0       mdlProcessParameters_c99_six_plus_six_AcmsteeringV09_main_2lflm 00000001803289e0 f   c99_six_plus_six_AcmsteeringV09_main_2lflm.obj
 0001:00327ac0       initialize_params_c99_six_plus_six_AcmsteeringV09_main_2lflm 0000000180328ac0 f   c99_six_plus_six_AcmsteeringV09_main_2lflm.obj
 0001:00327ad0       mdlSetWorkWidths_c99_six_plus_six_AcmsteeringV09_main_2lflm 0000000180328ad0 f   c99_six_plus_six_AcmsteeringV09_main_2lflm.obj
 0001:00328030       sf_get_instance_specialization 0000000180329030 f   c99_six_plus_six_AcmsteeringV09_main_2lflm.obj
 0001:00328040       mdlStart_c99_six_plus_six_AcmsteeringV09_main_2lflm 0000000180329040 f   c99_six_plus_six_AcmsteeringV09_main_2lflm.obj
 0001:00328270       init_dsm_address_info      0000000180329270 f   c99_six_plus_six_AcmsteeringV09_main_2lflm.obj
 0001:00328280       chart_debug_initialization 0000000180329280 f   c99_six_plus_six_AcmsteeringV09_main_2lflm.obj
 0001:00328de0       init_script_number_translation 0000000180329de0 f   c99_six_plus_six_AcmsteeringV09_main_2lflm.obj
 0001:00328e00       c99_sf_marshallOut         0000000180329e00 f   c99_six_plus_six_AcmsteeringV09_main_2lflm.obj
 0001:00328ec0       c99_sf_marshallIn          0000000180329ec0 f   c99_six_plus_six_AcmsteeringV09_main_2lflm.obj
 0001:00328f60       c99_b_sf_marshallOut       0000000180329f60 f   c99_six_plus_six_AcmsteeringV09_main_2lflm.obj
 0001:00329010       sf_opaque_initialize_c99_six_plus_six_AcmsteeringV09_main_2lflm 000000018032a010 f   c99_six_plus_six_AcmsteeringV09_main_2lflm.obj
 0001:00329050       initialize_c99_six_plus_six_AcmsteeringV09_main_2lflm 000000018032a050 f   c99_six_plus_six_AcmsteeringV09_main_2lflm.obj
 0001:003290a0       sf_opaque_enable_c99_six_plus_six_AcmsteeringV09_main_2lflm 000000018032a0a0 f   c99_six_plus_six_AcmsteeringV09_main_2lflm.obj
 0001:003290c0       enable_c99_six_plus_six_AcmsteeringV09_main_2lflm 000000018032a0c0 f   c99_six_plus_six_AcmsteeringV09_main_2lflm.obj
 0001:003290f0       sf_opaque_disable_c99_six_plus_six_AcmsteeringV09_main_2lflm 000000018032a0f0 f   c99_six_plus_six_AcmsteeringV09_main_2lflm.obj
 0001:00329110       disable_c99_six_plus_six_AcmsteeringV09_main_2lflm 000000018032a110 f   c99_six_plus_six_AcmsteeringV09_main_2lflm.obj
 0001:00329140       sf_opaque_gateway_c99_six_plus_six_AcmsteeringV09_main_2lflm 000000018032a140 f   c99_six_plus_six_AcmsteeringV09_main_2lflm.obj
 0001:00329160       sf_gateway_c99_six_plus_six_AcmsteeringV09_main_2lflm 000000018032a160 f   c99_six_plus_six_AcmsteeringV09_main_2lflm.obj
 0001:003299f0       c99_b_sf_marshallIn        000000018032a9f0 f   c99_six_plus_six_AcmsteeringV09_main_2lflm.obj
 0001:00329a90       c99_c_emlrt_marshallIn     000000018032aa90 f   c99_six_plus_six_AcmsteeringV09_main_2lflm.obj
 0001:00329b20       sf_opaque_get_sim_state_c99_six_plus_six_AcmsteeringV09_main_2lflm 000000018032ab20 f   c99_six_plus_six_AcmsteeringV09_main_2lflm.obj
 0001:00329b40       sf_opaque_set_sim_state_c99_six_plus_six_AcmsteeringV09_main_2lflm 000000018032ab40 f   c99_six_plus_six_AcmsteeringV09_main_2lflm.obj
 0001:00329b70       sf_opaque_terminate_c99_six_plus_six_AcmsteeringV09_main_2lflm 000000018032ab70 f   c99_six_plus_six_AcmsteeringV09_main_2lflm.obj
 0001:00329c10       finalize_c99_six_plus_six_AcmsteeringV09_main_2lflm 000000018032ac10 f   c99_six_plus_six_AcmsteeringV09_main_2lflm.obj
 0001:00329c20       sf_opaque_init_subchart_simstructs 000000018032ac20 f   c99_six_plus_six_AcmsteeringV09_main_2lflm.obj
 0001:00329c40       initSimStructsc99_six_plus_six_AcmsteeringV09_main_2lflm 000000018032ac40 f   c99_six_plus_six_AcmsteeringV09_main_2lflm.obj
 0001:00329c50       mdlRTW_c99_six_plus_six_AcmsteeringV09_main_2lflm 000000018032ac50 f   c99_six_plus_six_AcmsteeringV09_main_2lflm.obj
 0001:00329d00       c100_info_helper           000000018032ad00 f   c100_six_plus_six_AcmsteeringV09_main_2lflm.obj
 0001:0032bc80       c100_emlrt_marshallOut     000000018032cc80 f   c100_six_plus_six_AcmsteeringV09_main_2lflm.obj
 0001:0032bd10       c100_b_emlrt_marshallOut   000000018032cd10 f   c100_six_plus_six_AcmsteeringV09_main_2lflm.obj
 0001:0032c750       get_sim_state_c100_six_plus_six_AcmsteeringV09_main_2lflm 000000018032d750 f   c100_six_plus_six_AcmsteeringV09_main_2lflm.obj
 0001:0032c8f0       sf_get_sim_state_info_c100_six_plus_six_AcmsteeringV09_main_2lflm 000000018032d8f0 f   c100_six_plus_six_AcmsteeringV09_main_2lflm.obj
 0001:0032cac0       set_sim_state_c100_six_plus_six_AcmsteeringV09_main_2lflm 000000018032dac0 f   c100_six_plus_six_AcmsteeringV09_main_2lflm.obj
 0001:0032cba0       c100_update_debugger_state_c100_six_plus_six_AcmsteeringV09_main 000000018032dba0 f   c100_six_plus_six_AcmsteeringV09_main_2lflm.obj
 0001:0032cbb0       c100_emlrt_marshallIn      000000018032dbb0 f   c100_six_plus_six_AcmsteeringV09_main_2lflm.obj
 0001:0032cc20       c100_b_emlrt_marshallIn    000000018032dc20 f   c100_six_plus_six_AcmsteeringV09_main_2lflm.obj
 0001:0032ccb0       c100_e_emlrt_marshallIn    000000018032dcb0 f   c100_six_plus_six_AcmsteeringV09_main_2lflm.obj
 0001:0032cd10       c100_f_emlrt_marshallIn    000000018032dd10 f   c100_six_plus_six_AcmsteeringV09_main_2lflm.obj
 0001:0032ce10       mdlProcessParameters_c100_six_plus_six_AcmsteeringV09_main_2lflm 000000018032de10 f   c100_six_plus_six_AcmsteeringV09_main_2lflm.obj
 0001:0032cef0       initialize_params_c100_six_plus_six_AcmsteeringV09_main_2lflm 000000018032def0 f   c100_six_plus_six_AcmsteeringV09_main_2lflm.obj
 0001:0032cf00       mdlSetWorkWidths_c100_six_plus_six_AcmsteeringV09_main_2lflm 000000018032df00 f   c100_six_plus_six_AcmsteeringV09_main_2lflm.obj
 0001:0032d460       sf_get_instance_specialization 000000018032e460 f   c100_six_plus_six_AcmsteeringV09_main_2lflm.obj
 0001:0032d470       mdlStart_c100_six_plus_six_AcmsteeringV09_main_2lflm 000000018032e470 f   c100_six_plus_six_AcmsteeringV09_main_2lflm.obj
 0001:0032d6a0       init_dsm_address_info      000000018032e6a0 f   c100_six_plus_six_AcmsteeringV09_main_2lflm.obj
 0001:0032d6b0       chart_debug_initialization 000000018032e6b0 f   c100_six_plus_six_AcmsteeringV09_main_2lflm.obj
 0001:0032e210       init_script_number_translation 000000018032f210 f   c100_six_plus_six_AcmsteeringV09_main_2lflm.obj
 0001:0032e230       c100_sf_marshallOut        000000018032f230 f   c100_six_plus_six_AcmsteeringV09_main_2lflm.obj
 0001:0032e2f0       c100_sf_marshallIn         000000018032f2f0 f   c100_six_plus_six_AcmsteeringV09_main_2lflm.obj
 0001:0032e390       c100_b_sf_marshallOut      000000018032f390 f   c100_six_plus_six_AcmsteeringV09_main_2lflm.obj
 0001:0032e440       sf_opaque_initialize_c100_six_plus_six_AcmsteeringV09_main_2lflm 000000018032f440 f   c100_six_plus_six_AcmsteeringV09_main_2lflm.obj
 0001:0032e480       initialize_c100_six_plus_six_AcmsteeringV09_main_2lflm 000000018032f480 f   c100_six_plus_six_AcmsteeringV09_main_2lflm.obj
 0001:0032e4d0       sf_opaque_enable_c100_six_plus_six_AcmsteeringV09_main_2lflm 000000018032f4d0 f   c100_six_plus_six_AcmsteeringV09_main_2lflm.obj
 0001:0032e4f0       enable_c100_six_plus_six_AcmsteeringV09_main_2lflm 000000018032f4f0 f   c100_six_plus_six_AcmsteeringV09_main_2lflm.obj
 0001:0032e520       sf_opaque_disable_c100_six_plus_six_AcmsteeringV09_main_2lflm 000000018032f520 f   c100_six_plus_six_AcmsteeringV09_main_2lflm.obj
 0001:0032e540       disable_c100_six_plus_six_AcmsteeringV09_main_2lflm 000000018032f540 f   c100_six_plus_six_AcmsteeringV09_main_2lflm.obj
 0001:0032e570       sf_opaque_gateway_c100_six_plus_six_AcmsteeringV09_main_2lflm 000000018032f570 f   c100_six_plus_six_AcmsteeringV09_main_2lflm.obj
 0001:0032e590       sf_gateway_c100_six_plus_six_AcmsteeringV09_main_2lflm 000000018032f590 f   c100_six_plus_six_AcmsteeringV09_main_2lflm.obj
 0001:0032ee20       c100_b_sf_marshallIn       000000018032fe20 f   c100_six_plus_six_AcmsteeringV09_main_2lflm.obj
 0001:0032eec0       c100_c_emlrt_marshallIn    000000018032fec0 f   c100_six_plus_six_AcmsteeringV09_main_2lflm.obj
 0001:0032ef50       sf_opaque_get_sim_state_c100_six_plus_six_AcmsteeringV09_main_2lflm 000000018032ff50 f   c100_six_plus_six_AcmsteeringV09_main_2lflm.obj
 0001:0032ef70       sf_opaque_set_sim_state_c100_six_plus_six_AcmsteeringV09_main_2lflm 000000018032ff70 f   c100_six_plus_six_AcmsteeringV09_main_2lflm.obj
 0001:0032efa0       sf_opaque_terminate_c100_six_plus_six_AcmsteeringV09_main_2lflm 000000018032ffa0 f   c100_six_plus_six_AcmsteeringV09_main_2lflm.obj
 0001:0032f040       finalize_c100_six_plus_six_AcmsteeringV09_main_2lflm 0000000180330040 f   c100_six_plus_six_AcmsteeringV09_main_2lflm.obj
 0001:0032f050       sf_opaque_init_subchart_simstructs 0000000180330050 f   c100_six_plus_six_AcmsteeringV09_main_2lflm.obj
 0001:0032f070       initSimStructsc100_six_plus_six_AcmsteeringV09_main_2lflm 0000000180330070 f   c100_six_plus_six_AcmsteeringV09_main_2lflm.obj
 0001:0032f080       mdlRTW_c100_six_plus_six_AcmsteeringV09_main_2lflm 0000000180330080 f   c100_six_plus_six_AcmsteeringV09_main_2lflm.obj
 0001:0032f130       c101_info_helper           0000000180330130 f   c101_six_plus_six_AcmsteeringV09_main_2lflm.obj
 0001:003388b0       c101_emlrt_marshallOut     00000001803398b0 f   c101_six_plus_six_AcmsteeringV09_main_2lflm.obj
 0001:00338940       c101_b_emlrt_marshallOut   0000000180339940 f   c101_six_plus_six_AcmsteeringV09_main_2lflm.obj
 0001:00339380       get_sim_state_c101_six_plus_six_AcmsteeringV09_main_2lflm 000000018033a380 f   c101_six_plus_six_AcmsteeringV09_main_2lflm.obj
 0001:00339520       sf_get_sim_state_info_c101_six_plus_six_AcmsteeringV09_main_2lflm 000000018033a520 f   c101_six_plus_six_AcmsteeringV09_main_2lflm.obj
 0001:003396f0       set_sim_state_c101_six_plus_six_AcmsteeringV09_main_2lflm 000000018033a6f0 f   c101_six_plus_six_AcmsteeringV09_main_2lflm.obj
 0001:003397d0       c101_update_debugger_state_c101_six_plus_six_AcmsteeringV09_main 000000018033a7d0 f   c101_six_plus_six_AcmsteeringV09_main_2lflm.obj
 0001:003397e0       c101_emlrt_marshallIn      000000018033a7e0 f   c101_six_plus_six_AcmsteeringV09_main_2lflm.obj
 0001:00339850       c101_b_emlrt_marshallIn    000000018033a850 f   c101_six_plus_six_AcmsteeringV09_main_2lflm.obj
 0001:003398e0       c101_e_emlrt_marshallIn    000000018033a8e0 f   c101_six_plus_six_AcmsteeringV09_main_2lflm.obj
 0001:00339940       c101_f_emlrt_marshallIn    000000018033a940 f   c101_six_plus_six_AcmsteeringV09_main_2lflm.obj
 0001:00339a40       mdlProcessParameters_c101_six_plus_six_AcmsteeringV09_main_2lflm 000000018033aa40 f   c101_six_plus_six_AcmsteeringV09_main_2lflm.obj
 0001:00339b20       initialize_params_c101_six_plus_six_AcmsteeringV09_main_2lflm 000000018033ab20 f   c101_six_plus_six_AcmsteeringV09_main_2lflm.obj
 0001:00339b30       mdlSetWorkWidths_c101_six_plus_six_AcmsteeringV09_main_2lflm 000000018033ab30 f   c101_six_plus_six_AcmsteeringV09_main_2lflm.obj
 0001:0033a090       sf_get_instance_specialization 000000018033b090 f   c101_six_plus_six_AcmsteeringV09_main_2lflm.obj
 0001:0033a0a0       mdlStart_c101_six_plus_six_AcmsteeringV09_main_2lflm 000000018033b0a0 f   c101_six_plus_six_AcmsteeringV09_main_2lflm.obj
 0001:0033a2d0       init_dsm_address_info      000000018033b2d0 f   c101_six_plus_six_AcmsteeringV09_main_2lflm.obj
 0001:0033a2e0       chart_debug_initialization 000000018033b2e0 f   c101_six_plus_six_AcmsteeringV09_main_2lflm.obj
 0001:0033aea0       init_script_number_translation 000000018033bea0 f   c101_six_plus_six_AcmsteeringV09_main_2lflm.obj
 0001:0033aec0       c101_sf_marshallOut        000000018033bec0 f   c101_six_plus_six_AcmsteeringV09_main_2lflm.obj
 0001:0033af80       c101_sf_marshallIn         000000018033bf80 f   c101_six_plus_six_AcmsteeringV09_main_2lflm.obj
 0001:0033b020       c101_b_sf_marshallOut      000000018033c020 f   c101_six_plus_six_AcmsteeringV09_main_2lflm.obj
 0001:0033b0d0       sf_opaque_initialize_c101_six_plus_six_AcmsteeringV09_main_2lflm 000000018033c0d0 f   c101_six_plus_six_AcmsteeringV09_main_2lflm.obj
 0001:0033b110       initialize_c101_six_plus_six_AcmsteeringV09_main_2lflm 000000018033c110 f   c101_six_plus_six_AcmsteeringV09_main_2lflm.obj
 0001:0033b160       sf_opaque_enable_c101_six_plus_six_AcmsteeringV09_main_2lflm 000000018033c160 f   c101_six_plus_six_AcmsteeringV09_main_2lflm.obj
 0001:0033b180       enable_c101_six_plus_six_AcmsteeringV09_main_2lflm 000000018033c180 f   c101_six_plus_six_AcmsteeringV09_main_2lflm.obj
 0001:0033b1b0       sf_opaque_disable_c101_six_plus_six_AcmsteeringV09_main_2lflm 000000018033c1b0 f   c101_six_plus_six_AcmsteeringV09_main_2lflm.obj
 0001:0033b1d0       disable_c101_six_plus_six_AcmsteeringV09_main_2lflm 000000018033c1d0 f   c101_six_plus_six_AcmsteeringV09_main_2lflm.obj
 0001:0033b200       sf_opaque_gateway_c101_six_plus_six_AcmsteeringV09_main_2lflm 000000018033c200 f   c101_six_plus_six_AcmsteeringV09_main_2lflm.obj
 0001:0033b220       sf_gateway_c101_six_plus_six_AcmsteeringV09_main_2lflm 000000018033c220 f   c101_six_plus_six_AcmsteeringV09_main_2lflm.obj
 0001:0033bc30       c101_b_sf_marshallIn       000000018033cc30 f   c101_six_plus_six_AcmsteeringV09_main_2lflm.obj
 0001:0033bcd0       c101_c_emlrt_marshallIn    000000018033ccd0 f   c101_six_plus_six_AcmsteeringV09_main_2lflm.obj
 0001:0033bd60       sf_opaque_get_sim_state_c101_six_plus_six_AcmsteeringV09_main_2lflm 000000018033cd60 f   c101_six_plus_six_AcmsteeringV09_main_2lflm.obj
 0001:0033bd80       sf_opaque_set_sim_state_c101_six_plus_six_AcmsteeringV09_main_2lflm 000000018033cd80 f   c101_six_plus_six_AcmsteeringV09_main_2lflm.obj
 0001:0033bdb0       sf_opaque_terminate_c101_six_plus_six_AcmsteeringV09_main_2lflm 000000018033cdb0 f   c101_six_plus_six_AcmsteeringV09_main_2lflm.obj
 0001:0033be50       finalize_c101_six_plus_six_AcmsteeringV09_main_2lflm 000000018033ce50 f   c101_six_plus_six_AcmsteeringV09_main_2lflm.obj
 0001:0033be60       sf_opaque_init_subchart_simstructs 000000018033ce60 f   c101_six_plus_six_AcmsteeringV09_main_2lflm.obj
 0001:0033be80       initSimStructsc101_six_plus_six_AcmsteeringV09_main_2lflm 000000018033ce80 f   c101_six_plus_six_AcmsteeringV09_main_2lflm.obj
 0001:0033be90       mdlRTW_c101_six_plus_six_AcmsteeringV09_main_2lflm 000000018033ce90 f   c101_six_plus_six_AcmsteeringV09_main_2lflm.obj
 0001:0033bf40       c102_info_helper           000000018033cf40 f   c102_six_plus_six_AcmsteeringV09_main_2lflm.obj
 0001:003456c0       c102_emlrt_marshallOut     00000001803466c0 f   c102_six_plus_six_AcmsteeringV09_main_2lflm.obj
 0001:00345750       c102_b_emlrt_marshallOut   0000000180346750 f   c102_six_plus_six_AcmsteeringV09_main_2lflm.obj
 0001:00346190       get_sim_state_c102_six_plus_six_AcmsteeringV09_main_2lflm 0000000180347190 f   c102_six_plus_six_AcmsteeringV09_main_2lflm.obj
 0001:00346330       sf_get_sim_state_info_c102_six_plus_six_AcmsteeringV09_main_2lflm 0000000180347330 f   c102_six_plus_six_AcmsteeringV09_main_2lflm.obj
 0001:00346500       set_sim_state_c102_six_plus_six_AcmsteeringV09_main_2lflm 0000000180347500 f   c102_six_plus_six_AcmsteeringV09_main_2lflm.obj
 0001:003465e0       c102_update_debugger_state_c102_six_plus_six_AcmsteeringV09_main 00000001803475e0 f   c102_six_plus_six_AcmsteeringV09_main_2lflm.obj
 0001:003465f0       c102_emlrt_marshallIn      00000001803475f0 f   c102_six_plus_six_AcmsteeringV09_main_2lflm.obj
 0001:00346660       c102_b_emlrt_marshallIn    0000000180347660 f   c102_six_plus_six_AcmsteeringV09_main_2lflm.obj
 0001:003466f0       c102_e_emlrt_marshallIn    00000001803476f0 f   c102_six_plus_six_AcmsteeringV09_main_2lflm.obj
 0001:00346750       c102_f_emlrt_marshallIn    0000000180347750 f   c102_six_plus_six_AcmsteeringV09_main_2lflm.obj
 0001:00346850       mdlProcessParameters_c102_six_plus_six_AcmsteeringV09_main_2lflm 0000000180347850 f   c102_six_plus_six_AcmsteeringV09_main_2lflm.obj
 0001:00346930       initialize_params_c102_six_plus_six_AcmsteeringV09_main_2lflm 0000000180347930 f   c102_six_plus_six_AcmsteeringV09_main_2lflm.obj
 0001:00346940       mdlSetWorkWidths_c102_six_plus_six_AcmsteeringV09_main_2lflm 0000000180347940 f   c102_six_plus_six_AcmsteeringV09_main_2lflm.obj
 0001:00346ea0       sf_get_instance_specialization 0000000180347ea0 f   c102_six_plus_six_AcmsteeringV09_main_2lflm.obj
 0001:00346eb0       mdlStart_c102_six_plus_six_AcmsteeringV09_main_2lflm 0000000180347eb0 f   c102_six_plus_six_AcmsteeringV09_main_2lflm.obj
 0001:003470e0       init_dsm_address_info      00000001803480e0 f   c102_six_plus_six_AcmsteeringV09_main_2lflm.obj
 0001:003470f0       chart_debug_initialization 00000001803480f0 f   c102_six_plus_six_AcmsteeringV09_main_2lflm.obj
 0001:00347cb0       init_script_number_translation 0000000180348cb0 f   c102_six_plus_six_AcmsteeringV09_main_2lflm.obj
 0001:00347cd0       c102_sf_marshallOut        0000000180348cd0 f   c102_six_plus_six_AcmsteeringV09_main_2lflm.obj
 0001:00347d90       c102_sf_marshallIn         0000000180348d90 f   c102_six_plus_six_AcmsteeringV09_main_2lflm.obj
 0001:00347e30       c102_b_sf_marshallOut      0000000180348e30 f   c102_six_plus_six_AcmsteeringV09_main_2lflm.obj
 0001:00347ee0       sf_opaque_initialize_c102_six_plus_six_AcmsteeringV09_main_2lflm 0000000180348ee0 f   c102_six_plus_six_AcmsteeringV09_main_2lflm.obj
 0001:00347f20       initialize_c102_six_plus_six_AcmsteeringV09_main_2lflm 0000000180348f20 f   c102_six_plus_six_AcmsteeringV09_main_2lflm.obj
 0001:00347f70       sf_opaque_enable_c102_six_plus_six_AcmsteeringV09_main_2lflm 0000000180348f70 f   c102_six_plus_six_AcmsteeringV09_main_2lflm.obj
 0001:00347f90       enable_c102_six_plus_six_AcmsteeringV09_main_2lflm 0000000180348f90 f   c102_six_plus_six_AcmsteeringV09_main_2lflm.obj
 0001:00347fc0       sf_opaque_disable_c102_six_plus_six_AcmsteeringV09_main_2lflm 0000000180348fc0 f   c102_six_plus_six_AcmsteeringV09_main_2lflm.obj
 0001:00347fe0       disable_c102_six_plus_six_AcmsteeringV09_main_2lflm 0000000180348fe0 f   c102_six_plus_six_AcmsteeringV09_main_2lflm.obj
 0001:00348010       sf_opaque_gateway_c102_six_plus_six_AcmsteeringV09_main_2lflm 0000000180349010 f   c102_six_plus_six_AcmsteeringV09_main_2lflm.obj
 0001:00348030       sf_gateway_c102_six_plus_six_AcmsteeringV09_main_2lflm 0000000180349030 f   c102_six_plus_six_AcmsteeringV09_main_2lflm.obj
 0001:00348a40       c102_b_sf_marshallIn       0000000180349a40 f   c102_six_plus_six_AcmsteeringV09_main_2lflm.obj
 0001:00348ae0       c102_c_emlrt_marshallIn    0000000180349ae0 f   c102_six_plus_six_AcmsteeringV09_main_2lflm.obj
 0001:00348b70       sf_opaque_get_sim_state_c102_six_plus_six_AcmsteeringV09_main_2lflm 0000000180349b70 f   c102_six_plus_six_AcmsteeringV09_main_2lflm.obj
 0001:00348b90       sf_opaque_set_sim_state_c102_six_plus_six_AcmsteeringV09_main_2lflm 0000000180349b90 f   c102_six_plus_six_AcmsteeringV09_main_2lflm.obj
 0001:00348bc0       sf_opaque_terminate_c102_six_plus_six_AcmsteeringV09_main_2lflm 0000000180349bc0 f   c102_six_plus_six_AcmsteeringV09_main_2lflm.obj
 0001:00348c60       finalize_c102_six_plus_six_AcmsteeringV09_main_2lflm 0000000180349c60 f   c102_six_plus_six_AcmsteeringV09_main_2lflm.obj
 0001:00348c70       sf_opaque_init_subchart_simstructs 0000000180349c70 f   c102_six_plus_six_AcmsteeringV09_main_2lflm.obj
 0001:00348c90       initSimStructsc102_six_plus_six_AcmsteeringV09_main_2lflm 0000000180349c90 f   c102_six_plus_six_AcmsteeringV09_main_2lflm.obj
 0001:00348ca0       mdlRTW_c102_six_plus_six_AcmsteeringV09_main_2lflm 0000000180349ca0 f   c102_six_plus_six_AcmsteeringV09_main_2lflm.obj
 0001:00348d50       c103_info_helper           0000000180349d50 f   c103_six_plus_six_AcmsteeringV09_main_2lflm.obj
 0001:003524d0       c103_emlrt_marshallOut     00000001803534d0 f   c103_six_plus_six_AcmsteeringV09_main_2lflm.obj
 0001:00352560       c103_b_emlrt_marshallOut   0000000180353560 f   c103_six_plus_six_AcmsteeringV09_main_2lflm.obj
 0001:00352fa0       get_sim_state_c103_six_plus_six_AcmsteeringV09_main_2lflm 0000000180353fa0 f   c103_six_plus_six_AcmsteeringV09_main_2lflm.obj
 0001:00353140       sf_get_sim_state_info_c103_six_plus_six_AcmsteeringV09_main_2lflm 0000000180354140 f   c103_six_plus_six_AcmsteeringV09_main_2lflm.obj
 0001:00353310       set_sim_state_c103_six_plus_six_AcmsteeringV09_main_2lflm 0000000180354310 f   c103_six_plus_six_AcmsteeringV09_main_2lflm.obj
 0001:003533f0       c103_update_debugger_state_c103_six_plus_six_AcmsteeringV09_main 00000001803543f0 f   c103_six_plus_six_AcmsteeringV09_main_2lflm.obj
 0001:00353400       c103_emlrt_marshallIn      0000000180354400 f   c103_six_plus_six_AcmsteeringV09_main_2lflm.obj
 0001:00353470       c103_b_emlrt_marshallIn    0000000180354470 f   c103_six_plus_six_AcmsteeringV09_main_2lflm.obj
 0001:00353500       c103_e_emlrt_marshallIn    0000000180354500 f   c103_six_plus_six_AcmsteeringV09_main_2lflm.obj
 0001:00353560       c103_f_emlrt_marshallIn    0000000180354560 f   c103_six_plus_six_AcmsteeringV09_main_2lflm.obj
 0001:00353660       mdlProcessParameters_c103_six_plus_six_AcmsteeringV09_main_2lflm 0000000180354660 f   c103_six_plus_six_AcmsteeringV09_main_2lflm.obj
 0001:00353740       initialize_params_c103_six_plus_six_AcmsteeringV09_main_2lflm 0000000180354740 f   c103_six_plus_six_AcmsteeringV09_main_2lflm.obj
 0001:00353750       mdlSetWorkWidths_c103_six_plus_six_AcmsteeringV09_main_2lflm 0000000180354750 f   c103_six_plus_six_AcmsteeringV09_main_2lflm.obj
 0001:00353cb0       sf_get_instance_specialization 0000000180354cb0 f   c103_six_plus_six_AcmsteeringV09_main_2lflm.obj
 0001:00353cc0       mdlStart_c103_six_plus_six_AcmsteeringV09_main_2lflm 0000000180354cc0 f   c103_six_plus_six_AcmsteeringV09_main_2lflm.obj
 0001:00353ef0       init_dsm_address_info      0000000180354ef0 f   c103_six_plus_six_AcmsteeringV09_main_2lflm.obj
 0001:00353f00       chart_debug_initialization 0000000180354f00 f   c103_six_plus_six_AcmsteeringV09_main_2lflm.obj
 0001:00354ac0       init_script_number_translation 0000000180355ac0 f   c103_six_plus_six_AcmsteeringV09_main_2lflm.obj
 0001:00354ae0       c103_sf_marshallOut        0000000180355ae0 f   c103_six_plus_six_AcmsteeringV09_main_2lflm.obj
 0001:00354ba0       c103_sf_marshallIn         0000000180355ba0 f   c103_six_plus_six_AcmsteeringV09_main_2lflm.obj
 0001:00354c40       c103_b_sf_marshallOut      0000000180355c40 f   c103_six_plus_six_AcmsteeringV09_main_2lflm.obj
 0001:00354cf0       sf_opaque_initialize_c103_six_plus_six_AcmsteeringV09_main_2lflm 0000000180355cf0 f   c103_six_plus_six_AcmsteeringV09_main_2lflm.obj
 0001:00354d30       initialize_c103_six_plus_six_AcmsteeringV09_main_2lflm 0000000180355d30 f   c103_six_plus_six_AcmsteeringV09_main_2lflm.obj
 0001:00354d80       sf_opaque_enable_c103_six_plus_six_AcmsteeringV09_main_2lflm 0000000180355d80 f   c103_six_plus_six_AcmsteeringV09_main_2lflm.obj
 0001:00354da0       enable_c103_six_plus_six_AcmsteeringV09_main_2lflm 0000000180355da0 f   c103_six_plus_six_AcmsteeringV09_main_2lflm.obj
 0001:00354dd0       sf_opaque_disable_c103_six_plus_six_AcmsteeringV09_main_2lflm 0000000180355dd0 f   c103_six_plus_six_AcmsteeringV09_main_2lflm.obj
 0001:00354df0       disable_c103_six_plus_six_AcmsteeringV09_main_2lflm 0000000180355df0 f   c103_six_plus_six_AcmsteeringV09_main_2lflm.obj
 0001:00354e20       sf_opaque_gateway_c103_six_plus_six_AcmsteeringV09_main_2lflm 0000000180355e20 f   c103_six_plus_six_AcmsteeringV09_main_2lflm.obj
 0001:00354e40       sf_gateway_c103_six_plus_six_AcmsteeringV09_main_2lflm 0000000180355e40 f   c103_six_plus_six_AcmsteeringV09_main_2lflm.obj
 0001:00355850       c103_b_sf_marshallIn       0000000180356850 f   c103_six_plus_six_AcmsteeringV09_main_2lflm.obj
 0001:003558f0       c103_c_emlrt_marshallIn    00000001803568f0 f   c103_six_plus_six_AcmsteeringV09_main_2lflm.obj
 0001:00355980       sf_opaque_get_sim_state_c103_six_plus_six_AcmsteeringV09_main_2lflm 0000000180356980 f   c103_six_plus_six_AcmsteeringV09_main_2lflm.obj
 0001:003559a0       sf_opaque_set_sim_state_c103_six_plus_six_AcmsteeringV09_main_2lflm 00000001803569a0 f   c103_six_plus_six_AcmsteeringV09_main_2lflm.obj
 0001:003559d0       sf_opaque_terminate_c103_six_plus_six_AcmsteeringV09_main_2lflm 00000001803569d0 f   c103_six_plus_six_AcmsteeringV09_main_2lflm.obj
 0001:00355a70       finalize_c103_six_plus_six_AcmsteeringV09_main_2lflm 0000000180356a70 f   c103_six_plus_six_AcmsteeringV09_main_2lflm.obj
 0001:00355a80       sf_opaque_init_subchart_simstructs 0000000180356a80 f   c103_six_plus_six_AcmsteeringV09_main_2lflm.obj
 0001:00355aa0       initSimStructsc103_six_plus_six_AcmsteeringV09_main_2lflm 0000000180356aa0 f   c103_six_plus_six_AcmsteeringV09_main_2lflm.obj
 0001:00355ab0       mdlRTW_c103_six_plus_six_AcmsteeringV09_main_2lflm 0000000180356ab0 f   c103_six_plus_six_AcmsteeringV09_main_2lflm.obj
 0001:00355b60       c104_info_helper           0000000180356b60 f   c104_six_plus_six_AcmsteeringV09_main_2lflm.obj
 0001:00357600       c104_emlrt_marshallOut     0000000180358600 f   c104_six_plus_six_AcmsteeringV09_main_2lflm.obj
 0001:00357690       c104_b_emlrt_marshallOut   0000000180358690 f   c104_six_plus_six_AcmsteeringV09_main_2lflm.obj
 0001:0035a390       get_sim_state_c104_six_plus_six_AcmsteeringV09_main_2lflm 000000018035b390 f   c104_six_plus_six_AcmsteeringV09_main_2lflm.obj
 0001:0035b170       sf_get_sim_state_info_c104_six_plus_six_AcmsteeringV09_main_2lflm 000000018035c170 f   c104_six_plus_six_AcmsteeringV09_main_2lflm.obj
 0001:0035b350       set_sim_state_c104_six_plus_six_AcmsteeringV09_main_2lflm 000000018035c350 f   c104_six_plus_six_AcmsteeringV09_main_2lflm.obj
 0001:0035b9c0       c104_update_debugger_state_c104_six_plus_six_AcmsteeringV09_main 000000018035c9c0 f   c104_six_plus_six_AcmsteeringV09_main_2lflm.obj
 0001:0035b9d0       c104_emlrt_marshallIn      000000018035c9d0 f   c104_six_plus_six_AcmsteeringV09_main_2lflm.obj
 0001:0035ba40       c104_b_emlrt_marshallIn    000000018035ca40 f   c104_six_plus_six_AcmsteeringV09_main_2lflm.obj
 0001:0035bad0       c104_d_emlrt_marshallIn    000000018035cad0 f   c104_six_plus_six_AcmsteeringV09_main_2lflm.obj
 0001:0035bb30       c104_e_emlrt_marshallIn    000000018035cb30 f   c104_six_plus_six_AcmsteeringV09_main_2lflm.obj
 0001:0035bc30       mdlProcessParameters_c104_six_plus_six_AcmsteeringV09_main_2lflm 000000018035cc30 f   c104_six_plus_six_AcmsteeringV09_main_2lflm.obj
 0001:0035bd10       initialize_params_c104_six_plus_six_AcmsteeringV09_main_2lflm 000000018035cd10 f   c104_six_plus_six_AcmsteeringV09_main_2lflm.obj
 0001:0035bd20       mdlSetWorkWidths_c104_six_plus_six_AcmsteeringV09_main_2lflm 000000018035cd20 f   c104_six_plus_six_AcmsteeringV09_main_2lflm.obj
 0001:0035c490       sf_get_instance_specialization 000000018035d490 f   c104_six_plus_six_AcmsteeringV09_main_2lflm.obj
 0001:0035c4a0       mdlStart_c104_six_plus_six_AcmsteeringV09_main_2lflm 000000018035d4a0 f   c104_six_plus_six_AcmsteeringV09_main_2lflm.obj
 0001:0035c6d0       init_dsm_address_info      000000018035d6d0 f   c104_six_plus_six_AcmsteeringV09_main_2lflm.obj
 0001:0035c6e0       chart_debug_initialization 000000018035d6e0 f   c104_six_plus_six_AcmsteeringV09_main_2lflm.obj
 0001:0035f7b0       init_script_number_translation 00000001803607b0 f   c104_six_plus_six_AcmsteeringV09_main_2lflm.obj
 0001:0035f7d0       c104_sf_marshallOut        00000001803607d0 f   c104_six_plus_six_AcmsteeringV09_main_2lflm.obj
 0001:0035f880       c104_sf_marshallIn         0000000180360880 f   c104_six_plus_six_AcmsteeringV09_main_2lflm.obj
 0001:0035f920       sf_opaque_initialize_c104_six_plus_six_AcmsteeringV09_main_2lflm 0000000180360920 f   c104_six_plus_six_AcmsteeringV09_main_2lflm.obj
 0001:0035f960       initialize_c104_six_plus_six_AcmsteeringV09_main_2lflm 0000000180360960 f   c104_six_plus_six_AcmsteeringV09_main_2lflm.obj
 0001:0035f9b0       sf_opaque_enable_c104_six_plus_six_AcmsteeringV09_main_2lflm 00000001803609b0 f   c104_six_plus_six_AcmsteeringV09_main_2lflm.obj
 0001:0035f9d0       enable_c104_six_plus_six_AcmsteeringV09_main_2lflm 00000001803609d0 f   c104_six_plus_six_AcmsteeringV09_main_2lflm.obj
 0001:0035fa00       sf_opaque_disable_c104_six_plus_six_AcmsteeringV09_main_2lflm 0000000180360a00 f   c104_six_plus_six_AcmsteeringV09_main_2lflm.obj
 0001:0035fa20       disable_c104_six_plus_six_AcmsteeringV09_main_2lflm 0000000180360a20 f   c104_six_plus_six_AcmsteeringV09_main_2lflm.obj
 0001:0035fa50       sf_opaque_gateway_c104_six_plus_six_AcmsteeringV09_main_2lflm 0000000180360a50 f   c104_six_plus_six_AcmsteeringV09_main_2lflm.obj
 0001:0035fa70       sf_gateway_c104_six_plus_six_AcmsteeringV09_main_2lflm 0000000180360a70 f   c104_six_plus_six_AcmsteeringV09_main_2lflm.obj
 0001:003608b0       c104_chartstep_c104_six_plus_six_AcmsteeringV09_main_2lflm 00000001803618b0 f   c104_six_plus_six_AcmsteeringV09_main_2lflm.obj
 0001:00362300       sf_opaque_get_sim_state_c104_six_plus_six_AcmsteeringV09_main_2lflm 0000000180363300 f   c104_six_plus_six_AcmsteeringV09_main_2lflm.obj
 0001:00362320       sf_opaque_set_sim_state_c104_six_plus_six_AcmsteeringV09_main_2lflm 0000000180363320 f   c104_six_plus_six_AcmsteeringV09_main_2lflm.obj
 0001:00362350       sf_opaque_terminate_c104_six_plus_six_AcmsteeringV09_main_2lflm 0000000180363350 f   c104_six_plus_six_AcmsteeringV09_main_2lflm.obj
 0001:003623f0       finalize_c104_six_plus_six_AcmsteeringV09_main_2lflm 00000001803633f0 f   c104_six_plus_six_AcmsteeringV09_main_2lflm.obj
 0001:00362400       sf_opaque_init_subchart_simstructs 0000000180363400 f   c104_six_plus_six_AcmsteeringV09_main_2lflm.obj
 0001:00362420       initSimStructsc104_six_plus_six_AcmsteeringV09_main_2lflm 0000000180363420 f   c104_six_plus_six_AcmsteeringV09_main_2lflm.obj
 0001:00362430       mdlRTW_c104_six_plus_six_AcmsteeringV09_main_2lflm 0000000180363430 f   c104_six_plus_six_AcmsteeringV09_main_2lflm.obj
 0001:00363910       get_sim_state_c105_six_plus_six_AcmsteeringV09_main_2lflm 0000000180364910 f   c105_six_plus_six_AcmsteeringV09_main_2lflm.obj
 0001:00363e80       sf_get_sim_state_info_c105_six_plus_six_AcmsteeringV09_main_2lflm 0000000180364e80 f   c105_six_plus_six_AcmsteeringV09_main_2lflm.obj
 0001:00364050       set_sim_state_c105_six_plus_six_AcmsteeringV09_main_2lflm 0000000180365050 f   c105_six_plus_six_AcmsteeringV09_main_2lflm.obj
 0001:003642b0       c105_update_debugger_state_c105_six_plus_six_AcmsteeringV09_main 00000001803652b0 f   c105_six_plus_six_AcmsteeringV09_main_2lflm.obj
 0001:003642c0       c105_emlrt_marshallIn      00000001803652c0 f   c105_six_plus_six_AcmsteeringV09_main_2lflm.obj
 0001:00364330       c105_b_emlrt_marshallIn    0000000180365330 f   c105_six_plus_six_AcmsteeringV09_main_2lflm.obj
 0001:003643c0       c105_e_emlrt_marshallIn    00000001803653c0 f   c105_six_plus_six_AcmsteeringV09_main_2lflm.obj
 0001:00364420       c105_f_emlrt_marshallIn    0000000180365420 f   c105_six_plus_six_AcmsteeringV09_main_2lflm.obj
 0001:00364520       mdlProcessParameters_c105_six_plus_six_AcmsteeringV09_main_2lflm 0000000180365520 f   c105_six_plus_six_AcmsteeringV09_main_2lflm.obj
 0001:00364600       initialize_params_c105_six_plus_six_AcmsteeringV09_main_2lflm 0000000180365600 f   c105_six_plus_six_AcmsteeringV09_main_2lflm.obj
 0001:00364610       mdlSetWorkWidths_c105_six_plus_six_AcmsteeringV09_main_2lflm 0000000180365610 f   c105_six_plus_six_AcmsteeringV09_main_2lflm.obj
 0001:00364c00       sf_get_instance_specialization 0000000180365c00 f   c105_six_plus_six_AcmsteeringV09_main_2lflm.obj
 0001:00364c10       mdlStart_c105_six_plus_six_AcmsteeringV09_main_2lflm 0000000180365c10 f   c105_six_plus_six_AcmsteeringV09_main_2lflm.obj
 0001:00364e40       init_dsm_address_info      0000000180365e40 f   c105_six_plus_six_AcmsteeringV09_main_2lflm.obj
 0001:00364e50       chart_debug_initialization 0000000180365e50 f   c105_six_plus_six_AcmsteeringV09_main_2lflm.obj
 0001:00366530       init_script_number_translation 0000000180367530 f   c105_six_plus_six_AcmsteeringV09_main_2lflm.obj
 0001:00366550       c105_sf_marshallOut        0000000180367550 f   c105_six_plus_six_AcmsteeringV09_main_2lflm.obj
 0001:00366610       c105_sf_marshallIn         0000000180367610 f   c105_six_plus_six_AcmsteeringV09_main_2lflm.obj
 0001:003666b0       c105_b_sf_marshallOut      00000001803676b0 f   c105_six_plus_six_AcmsteeringV09_main_2lflm.obj
 0001:00366760       c105_c_sf_marshallOut      0000000180367760 f   c105_six_plus_six_AcmsteeringV09_main_2lflm.obj
 0001:00366810       sf_opaque_initialize_c105_six_plus_six_AcmsteeringV09_main_2lflm 0000000180367810 f   c105_six_plus_six_AcmsteeringV09_main_2lflm.obj
 0001:00366850       initialize_c105_six_plus_six_AcmsteeringV09_main_2lflm 0000000180367850 f   c105_six_plus_six_AcmsteeringV09_main_2lflm.obj
 0001:003668a0       sf_opaque_enable_c105_six_plus_six_AcmsteeringV09_main_2lflm 00000001803678a0 f   c105_six_plus_six_AcmsteeringV09_main_2lflm.obj
 0001:003668c0       enable_c105_six_plus_six_AcmsteeringV09_main_2lflm 00000001803678c0 f   c105_six_plus_six_AcmsteeringV09_main_2lflm.obj
 0001:003668f0       sf_opaque_disable_c105_six_plus_six_AcmsteeringV09_main_2lflm 00000001803678f0 f   c105_six_plus_six_AcmsteeringV09_main_2lflm.obj
 0001:00366910       disable_c105_six_plus_six_AcmsteeringV09_main_2lflm 0000000180367910 f   c105_six_plus_six_AcmsteeringV09_main_2lflm.obj
 0001:00366940       sf_opaque_gateway_c105_six_plus_six_AcmsteeringV09_main_2lflm 0000000180367940 f   c105_six_plus_six_AcmsteeringV09_main_2lflm.obj
 0001:00366960       sf_gateway_c105_six_plus_six_AcmsteeringV09_main_2lflm 0000000180367960 f   c105_six_plus_six_AcmsteeringV09_main_2lflm.obj
 0001:00367cc0       c105_b_sf_marshallIn       0000000180368cc0 f   c105_six_plus_six_AcmsteeringV09_main_2lflm.obj
 0001:00367d60       c105_c_emlrt_marshallIn    0000000180368d60 f   c105_six_plus_six_AcmsteeringV09_main_2lflm.obj
 0001:00367df0       sf_opaque_get_sim_state_c105_six_plus_six_AcmsteeringV09_main_2lflm 0000000180368df0 f   c105_six_plus_six_AcmsteeringV09_main_2lflm.obj
 0001:00367e10       sf_opaque_set_sim_state_c105_six_plus_six_AcmsteeringV09_main_2lflm 0000000180368e10 f   c105_six_plus_six_AcmsteeringV09_main_2lflm.obj
 0001:00367e40       sf_opaque_terminate_c105_six_plus_six_AcmsteeringV09_main_2lflm 0000000180368e40 f   c105_six_plus_six_AcmsteeringV09_main_2lflm.obj
 0001:00367ee0       finalize_c105_six_plus_six_AcmsteeringV09_main_2lflm 0000000180368ee0 f   c105_six_plus_six_AcmsteeringV09_main_2lflm.obj
 0001:00367ef0       sf_opaque_init_subchart_simstructs 0000000180368ef0 f   c105_six_plus_six_AcmsteeringV09_main_2lflm.obj
 0001:00367f10       initSimStructsc105_six_plus_six_AcmsteeringV09_main_2lflm 0000000180368f10 f   c105_six_plus_six_AcmsteeringV09_main_2lflm.obj
 0001:00367f20       mdlRTW_c105_six_plus_six_AcmsteeringV09_main_2lflm 0000000180368f20 f   c105_six_plus_six_AcmsteeringV09_main_2lflm.obj
 0001:00369400       get_sim_state_c106_six_plus_six_AcmsteeringV09_main_2lflm 000000018036a400 f   c106_six_plus_six_AcmsteeringV09_main_2lflm.obj
 0001:00369980       sf_get_sim_state_info_c106_six_plus_six_AcmsteeringV09_main_2lflm 000000018036a980 f   c106_six_plus_six_AcmsteeringV09_main_2lflm.obj
 0001:00369b50       set_sim_state_c106_six_plus_six_AcmsteeringV09_main_2lflm 000000018036ab50 f   c106_six_plus_six_AcmsteeringV09_main_2lflm.obj
 0001:00369db0       c106_update_debugger_state_c106_six_plus_six_AcmsteeringV09_main 000000018036adb0 f   c106_six_plus_six_AcmsteeringV09_main_2lflm.obj
 0001:00369dc0       c106_emlrt_marshallIn      000000018036adc0 f   c106_six_plus_six_AcmsteeringV09_main_2lflm.obj
 0001:00369e30       c106_b_emlrt_marshallIn    000000018036ae30 f   c106_six_plus_six_AcmsteeringV09_main_2lflm.obj
 0001:00369ec0       c106_e_emlrt_marshallIn    000000018036aec0 f   c106_six_plus_six_AcmsteeringV09_main_2lflm.obj
 0001:00369f20       c106_f_emlrt_marshallIn    000000018036af20 f   c106_six_plus_six_AcmsteeringV09_main_2lflm.obj
 0001:0036a020       mdlProcessParameters_c106_six_plus_six_AcmsteeringV09_main_2lflm 000000018036b020 f   c106_six_plus_six_AcmsteeringV09_main_2lflm.obj
 0001:0036a100       initialize_params_c106_six_plus_six_AcmsteeringV09_main_2lflm 000000018036b100 f   c106_six_plus_six_AcmsteeringV09_main_2lflm.obj
 0001:0036a110       mdlSetWorkWidths_c106_six_plus_six_AcmsteeringV09_main_2lflm 000000018036b110 f   c106_six_plus_six_AcmsteeringV09_main_2lflm.obj
 0001:0036a700       sf_get_instance_specialization 000000018036b700 f   c106_six_plus_six_AcmsteeringV09_main_2lflm.obj
 0001:0036a710       mdlStart_c106_six_plus_six_AcmsteeringV09_main_2lflm 000000018036b710 f   c106_six_plus_six_AcmsteeringV09_main_2lflm.obj
 0001:0036a940       init_dsm_address_info      000000018036b940 f   c106_six_plus_six_AcmsteeringV09_main_2lflm.obj
 0001:0036a950       chart_debug_initialization 000000018036b950 f   c106_six_plus_six_AcmsteeringV09_main_2lflm.obj
 0001:0036c030       init_script_number_translation 000000018036d030 f   c106_six_plus_six_AcmsteeringV09_main_2lflm.obj
 0001:0036c050       c106_sf_marshallOut        000000018036d050 f   c106_six_plus_six_AcmsteeringV09_main_2lflm.obj
 0001:0036c110       c106_sf_marshallIn         000000018036d110 f   c106_six_plus_six_AcmsteeringV09_main_2lflm.obj
 0001:0036c1b0       c106_b_sf_marshallOut      000000018036d1b0 f   c106_six_plus_six_AcmsteeringV09_main_2lflm.obj
 0001:0036c260       c106_c_sf_marshallOut      000000018036d260 f   c106_six_plus_six_AcmsteeringV09_main_2lflm.obj
 0001:0036c310       sf_opaque_initialize_c106_six_plus_six_AcmsteeringV09_main_2lflm 000000018036d310 f   c106_six_plus_six_AcmsteeringV09_main_2lflm.obj
 0001:0036c350       initialize_c106_six_plus_six_AcmsteeringV09_main_2lflm 000000018036d350 f   c106_six_plus_six_AcmsteeringV09_main_2lflm.obj
 0001:0036c3a0       sf_opaque_enable_c106_six_plus_six_AcmsteeringV09_main_2lflm 000000018036d3a0 f   c106_six_plus_six_AcmsteeringV09_main_2lflm.obj
 0001:0036c3c0       enable_c106_six_plus_six_AcmsteeringV09_main_2lflm 000000018036d3c0 f   c106_six_plus_six_AcmsteeringV09_main_2lflm.obj
 0001:0036c3f0       sf_opaque_disable_c106_six_plus_six_AcmsteeringV09_main_2lflm 000000018036d3f0 f   c106_six_plus_six_AcmsteeringV09_main_2lflm.obj
 0001:0036c410       disable_c106_six_plus_six_AcmsteeringV09_main_2lflm 000000018036d410 f   c106_six_plus_six_AcmsteeringV09_main_2lflm.obj
 0001:0036c440       sf_opaque_gateway_c106_six_plus_six_AcmsteeringV09_main_2lflm 000000018036d440 f   c106_six_plus_six_AcmsteeringV09_main_2lflm.obj
 0001:0036c460       sf_gateway_c106_six_plus_six_AcmsteeringV09_main_2lflm 000000018036d460 f   c106_six_plus_six_AcmsteeringV09_main_2lflm.obj
 0001:0036d7c0       c106_b_sf_marshallIn       000000018036e7c0 f   c106_six_plus_six_AcmsteeringV09_main_2lflm.obj
 0001:0036d860       c106_c_emlrt_marshallIn    000000018036e860 f   c106_six_plus_six_AcmsteeringV09_main_2lflm.obj
 0001:0036d8f0       sf_opaque_get_sim_state_c106_six_plus_six_AcmsteeringV09_main_2lflm 000000018036e8f0 f   c106_six_plus_six_AcmsteeringV09_main_2lflm.obj
 0001:0036d910       sf_opaque_set_sim_state_c106_six_plus_six_AcmsteeringV09_main_2lflm 000000018036e910 f   c106_six_plus_six_AcmsteeringV09_main_2lflm.obj
 0001:0036d940       sf_opaque_terminate_c106_six_plus_six_AcmsteeringV09_main_2lflm 000000018036e940 f   c106_six_plus_six_AcmsteeringV09_main_2lflm.obj
 0001:0036d9e0       finalize_c106_six_plus_six_AcmsteeringV09_main_2lflm 000000018036e9e0 f   c106_six_plus_six_AcmsteeringV09_main_2lflm.obj
 0001:0036d9f0       sf_opaque_init_subchart_simstructs 000000018036e9f0 f   c106_six_plus_six_AcmsteeringV09_main_2lflm.obj
 0001:0036da10       initSimStructsc106_six_plus_six_AcmsteeringV09_main_2lflm 000000018036ea10 f   c106_six_plus_six_AcmsteeringV09_main_2lflm.obj
 0001:0036da20       mdlRTW_c106_six_plus_six_AcmsteeringV09_main_2lflm 000000018036ea20 f   c106_six_plus_six_AcmsteeringV09_main_2lflm.obj
 0001:0036dad0       c107_info_helper           000000018036ead0 f   c107_six_plus_six_AcmsteeringV09_main_2lflm.obj
 0001:0036e1a0       c107_emlrt_marshallOut     000000018036f1a0 f   c107_six_plus_six_AcmsteeringV09_main_2lflm.obj
 0001:0036e230       c107_b_emlrt_marshallOut   000000018036f230 f   c107_six_plus_six_AcmsteeringV09_main_2lflm.obj
 0001:0036e9f0       get_sim_state_c107_six_plus_six_AcmsteeringV09_main_2lflm 000000018036f9f0 f   c107_six_plus_six_AcmsteeringV09_main_2lflm.obj
 0001:0036eb90       sf_get_sim_state_info_c107_six_plus_six_AcmsteeringV09_main_2lflm 000000018036fb90 f   c107_six_plus_six_AcmsteeringV09_main_2lflm.obj
 0001:0036ed60       set_sim_state_c107_six_plus_six_AcmsteeringV09_main_2lflm 000000018036fd60 f   c107_six_plus_six_AcmsteeringV09_main_2lflm.obj
 0001:0036ee30       c107_update_debugger_state_c107_six_plus_six_AcmsteeringV09_main 000000018036fe30 f   c107_six_plus_six_AcmsteeringV09_main_2lflm.obj
 0001:0036ee40       c107_emlrt_marshallIn      000000018036fe40 f   c107_six_plus_six_AcmsteeringV09_main_2lflm.obj
 0001:0036eea0       c107_b_emlrt_marshallIn    000000018036fea0 f   c107_six_plus_six_AcmsteeringV09_main_2lflm.obj
 0001:0036ef30       c107_e_emlrt_marshallIn    000000018036ff30 f   c107_six_plus_six_AcmsteeringV09_main_2lflm.obj
 0001:0036ef90       c107_f_emlrt_marshallIn    000000018036ff90 f   c107_six_plus_six_AcmsteeringV09_main_2lflm.obj
 0001:0036f090       mdlProcessParameters_c107_six_plus_six_AcmsteeringV09_main_2lflm 0000000180370090 f   c107_six_plus_six_AcmsteeringV09_main_2lflm.obj
 0001:0036f170       initialize_params_c107_six_plus_six_AcmsteeringV09_main_2lflm 0000000180370170 f   c107_six_plus_six_AcmsteeringV09_main_2lflm.obj
 0001:0036f180       mdlSetWorkWidths_c107_six_plus_six_AcmsteeringV09_main_2lflm 0000000180370180 f   c107_six_plus_six_AcmsteeringV09_main_2lflm.obj
 0001:0036f680       sf_get_instance_specialization 0000000180370680 f   c107_six_plus_six_AcmsteeringV09_main_2lflm.obj
 0001:0036f690       mdlStart_c107_six_plus_six_AcmsteeringV09_main_2lflm 0000000180370690 f   c107_six_plus_six_AcmsteeringV09_main_2lflm.obj
 0001:0036f8c0       init_dsm_address_info      00000001803708c0 f   c107_six_plus_six_AcmsteeringV09_main_2lflm.obj
 0001:0036f8d0       chart_debug_initialization 00000001803708d0 f   c107_six_plus_six_AcmsteeringV09_main_2lflm.obj
 0001:003701e0       init_script_number_translation 00000001803711e0 f   c107_six_plus_six_AcmsteeringV09_main_2lflm.obj
 0001:00370200       c107_sf_marshallOut        0000000180371200 f   c107_six_plus_six_AcmsteeringV09_main_2lflm.obj
 0001:003702b0       c107_sf_marshallIn         00000001803712b0 f   c107_six_plus_six_AcmsteeringV09_main_2lflm.obj
 0001:00370350       c107_b_sf_marshallOut      0000000180371350 f   c107_six_plus_six_AcmsteeringV09_main_2lflm.obj
 0001:00370410       c107_c_sf_marshallOut      0000000180371410 f   c107_six_plus_six_AcmsteeringV09_main_2lflm.obj
 0001:003704c0       sf_opaque_initialize_c107_six_plus_six_AcmsteeringV09_main_2lflm 00000001803714c0 f   c107_six_plus_six_AcmsteeringV09_main_2lflm.obj
 0001:00370500       initialize_c107_six_plus_six_AcmsteeringV09_main_2lflm 0000000180371500 f   c107_six_plus_six_AcmsteeringV09_main_2lflm.obj
 0001:00370550       sf_opaque_enable_c107_six_plus_six_AcmsteeringV09_main_2lflm 0000000180371550 f   c107_six_plus_six_AcmsteeringV09_main_2lflm.obj
 0001:00370570       enable_c107_six_plus_six_AcmsteeringV09_main_2lflm 0000000180371570 f   c107_six_plus_six_AcmsteeringV09_main_2lflm.obj
 0001:003705a0       sf_opaque_disable_c107_six_plus_six_AcmsteeringV09_main_2lflm 00000001803715a0 f   c107_six_plus_six_AcmsteeringV09_main_2lflm.obj
 0001:003705c0       disable_c107_six_plus_six_AcmsteeringV09_main_2lflm 00000001803715c0 f   c107_six_plus_six_AcmsteeringV09_main_2lflm.obj
 0001:003705f0       sf_opaque_gateway_c107_six_plus_six_AcmsteeringV09_main_2lflm 00000001803715f0 f   c107_six_plus_six_AcmsteeringV09_main_2lflm.obj
 0001:00370610       sf_gateway_c107_six_plus_six_AcmsteeringV09_main_2lflm 0000000180371610 f   c107_six_plus_six_AcmsteeringV09_main_2lflm.obj
 0001:00370e10       c107_b_sf_marshallIn       0000000180371e10 f   c107_six_plus_six_AcmsteeringV09_main_2lflm.obj
 0001:00370eb0       c107_c_emlrt_marshallIn    0000000180371eb0 f   c107_six_plus_six_AcmsteeringV09_main_2lflm.obj
 0001:00370f40       sf_opaque_get_sim_state_c107_six_plus_six_AcmsteeringV09_main_2lflm 0000000180371f40 f   c107_six_plus_six_AcmsteeringV09_main_2lflm.obj
 0001:00370f60       sf_opaque_set_sim_state_c107_six_plus_six_AcmsteeringV09_main_2lflm 0000000180371f60 f   c107_six_plus_six_AcmsteeringV09_main_2lflm.obj
 0001:00370f90       sf_opaque_terminate_c107_six_plus_six_AcmsteeringV09_main_2lflm 0000000180371f90 f   c107_six_plus_six_AcmsteeringV09_main_2lflm.obj
 0001:00371030       finalize_c107_six_plus_six_AcmsteeringV09_main_2lflm 0000000180372030 f   c107_six_plus_six_AcmsteeringV09_main_2lflm.obj
 0001:00371040       sf_opaque_init_subchart_simstructs 0000000180372040 f   c107_six_plus_six_AcmsteeringV09_main_2lflm.obj
 0001:00371060       initSimStructsc107_six_plus_six_AcmsteeringV09_main_2lflm 0000000180372060 f   c107_six_plus_six_AcmsteeringV09_main_2lflm.obj
 0001:00371070       mdlRTW_c107_six_plus_six_AcmsteeringV09_main_2lflm 0000000180372070 f   c107_six_plus_six_AcmsteeringV09_main_2lflm.obj
 0001:00371120       c109_info_helper           0000000180372120 f   c109_six_plus_six_AcmsteeringV09_main_2lflm.obj
 0001:003717f0       c109_emlrt_marshallOut     00000001803727f0 f   c109_six_plus_six_AcmsteeringV09_main_2lflm.obj
 0001:00371880       c109_b_emlrt_marshallOut   0000000180372880 f   c109_six_plus_six_AcmsteeringV09_main_2lflm.obj
 0001:00372040       get_sim_state_c109_six_plus_six_AcmsteeringV09_main_2lflm 0000000180373040 f   c109_six_plus_six_AcmsteeringV09_main_2lflm.obj
 0001:003721e0       sf_get_sim_state_info_c109_six_plus_six_AcmsteeringV09_main_2lflm 00000001803731e0 f   c109_six_plus_six_AcmsteeringV09_main_2lflm.obj
 0001:003723b0       set_sim_state_c109_six_plus_six_AcmsteeringV09_main_2lflm 00000001803733b0 f   c109_six_plus_six_AcmsteeringV09_main_2lflm.obj
 0001:00372480       c109_update_debugger_state_c109_six_plus_six_AcmsteeringV09_main 0000000180373480 f   c109_six_plus_six_AcmsteeringV09_main_2lflm.obj
 0001:00372490       c109_emlrt_marshallIn      0000000180373490 f   c109_six_plus_six_AcmsteeringV09_main_2lflm.obj
 0001:003724f0       c109_b_emlrt_marshallIn    00000001803734f0 f   c109_six_plus_six_AcmsteeringV09_main_2lflm.obj
 0001:00372580       c109_e_emlrt_marshallIn    0000000180373580 f   c109_six_plus_six_AcmsteeringV09_main_2lflm.obj
 0001:003725e0       c109_f_emlrt_marshallIn    00000001803735e0 f   c109_six_plus_six_AcmsteeringV09_main_2lflm.obj
 0001:003726e0       mdlProcessParameters_c109_six_plus_six_AcmsteeringV09_main_2lflm 00000001803736e0 f   c109_six_plus_six_AcmsteeringV09_main_2lflm.obj
 0001:003727c0       initialize_params_c109_six_plus_six_AcmsteeringV09_main_2lflm 00000001803737c0 f   c109_six_plus_six_AcmsteeringV09_main_2lflm.obj
 0001:003727d0       mdlSetWorkWidths_c109_six_plus_six_AcmsteeringV09_main_2lflm 00000001803737d0 f   c109_six_plus_six_AcmsteeringV09_main_2lflm.obj
 0001:00372cd0       sf_get_instance_specialization 0000000180373cd0 f   c109_six_plus_six_AcmsteeringV09_main_2lflm.obj
 0001:00372ce0       mdlStart_c109_six_plus_six_AcmsteeringV09_main_2lflm 0000000180373ce0 f   c109_six_plus_six_AcmsteeringV09_main_2lflm.obj
 0001:00372f10       init_dsm_address_info      0000000180373f10 f   c109_six_plus_six_AcmsteeringV09_main_2lflm.obj
 0001:00372f20       chart_debug_initialization 0000000180373f20 f   c109_six_plus_six_AcmsteeringV09_main_2lflm.obj
 0001:00373830       init_script_number_translation 0000000180374830 f   c109_six_plus_six_AcmsteeringV09_main_2lflm.obj
 0001:00373850       c109_sf_marshallOut        0000000180374850 f   c109_six_plus_six_AcmsteeringV09_main_2lflm.obj
 0001:00373900       c109_sf_marshallIn         0000000180374900 f   c109_six_plus_six_AcmsteeringV09_main_2lflm.obj
 0001:003739a0       c109_b_sf_marshallOut      00000001803749a0 f   c109_six_plus_six_AcmsteeringV09_main_2lflm.obj
 0001:00373a60       c109_c_sf_marshallOut      0000000180374a60 f   c109_six_plus_six_AcmsteeringV09_main_2lflm.obj
 0001:00373b10       sf_opaque_initialize_c109_six_plus_six_AcmsteeringV09_main_2lflm 0000000180374b10 f   c109_six_plus_six_AcmsteeringV09_main_2lflm.obj
 0001:00373b50       initialize_c109_six_plus_six_AcmsteeringV09_main_2lflm 0000000180374b50 f   c109_six_plus_six_AcmsteeringV09_main_2lflm.obj
 0001:00373ba0       sf_opaque_enable_c109_six_plus_six_AcmsteeringV09_main_2lflm 0000000180374ba0 f   c109_six_plus_six_AcmsteeringV09_main_2lflm.obj
 0001:00373bc0       enable_c109_six_plus_six_AcmsteeringV09_main_2lflm 0000000180374bc0 f   c109_six_plus_six_AcmsteeringV09_main_2lflm.obj
 0001:00373bf0       sf_opaque_disable_c109_six_plus_six_AcmsteeringV09_main_2lflm 0000000180374bf0 f   c109_six_plus_six_AcmsteeringV09_main_2lflm.obj
 0001:00373c10       disable_c109_six_plus_six_AcmsteeringV09_main_2lflm 0000000180374c10 f   c109_six_plus_six_AcmsteeringV09_main_2lflm.obj
 0001:00373c40       sf_opaque_gateway_c109_six_plus_six_AcmsteeringV09_main_2lflm 0000000180374c40 f   c109_six_plus_six_AcmsteeringV09_main_2lflm.obj
 0001:00373c60       sf_gateway_c109_six_plus_six_AcmsteeringV09_main_2lflm 0000000180374c60 f   c109_six_plus_six_AcmsteeringV09_main_2lflm.obj
 0001:00374460       c109_b_sf_marshallIn       0000000180375460 f   c109_six_plus_six_AcmsteeringV09_main_2lflm.obj
 0001:00374500       c109_c_emlrt_marshallIn    0000000180375500 f   c109_six_plus_six_AcmsteeringV09_main_2lflm.obj
 0001:00374590       sf_opaque_get_sim_state_c109_six_plus_six_AcmsteeringV09_main_2lflm 0000000180375590 f   c109_six_plus_six_AcmsteeringV09_main_2lflm.obj
 0001:003745b0       sf_opaque_set_sim_state_c109_six_plus_six_AcmsteeringV09_main_2lflm 00000001803755b0 f   c109_six_plus_six_AcmsteeringV09_main_2lflm.obj
 0001:003745e0       sf_opaque_terminate_c109_six_plus_six_AcmsteeringV09_main_2lflm 00000001803755e0 f   c109_six_plus_six_AcmsteeringV09_main_2lflm.obj
 0001:00374680       finalize_c109_six_plus_six_AcmsteeringV09_main_2lflm 0000000180375680 f   c109_six_plus_six_AcmsteeringV09_main_2lflm.obj
 0001:00374690       sf_opaque_init_subchart_simstructs 0000000180375690 f   c109_six_plus_six_AcmsteeringV09_main_2lflm.obj
 0001:003746b0       initSimStructsc109_six_plus_six_AcmsteeringV09_main_2lflm 00000001803756b0 f   c109_six_plus_six_AcmsteeringV09_main_2lflm.obj
 0001:003746c0       mdlRTW_c109_six_plus_six_AcmsteeringV09_main_2lflm 00000001803756c0 f   c109_six_plus_six_AcmsteeringV09_main_2lflm.obj
 0001:00374770       c185_info_helper           0000000180375770 f   c185_six_plus_six_AcmsteeringV09_main_2lflm.obj
 0001:00375840       c185_emlrt_marshallOut     0000000180376840 f   c185_six_plus_six_AcmsteeringV09_main_2lflm.obj
 0001:003758d0       c185_b_emlrt_marshallOut   00000001803768d0 f   c185_six_plus_six_AcmsteeringV09_main_2lflm.obj
 0001:00376470       get_sim_state_c185_six_plus_six_AcmsteeringV09_main_2lflm 0000000180377470 f   c185_six_plus_six_AcmsteeringV09_main_2lflm.obj
 0001:00376790       sf_get_sim_state_info_c185_six_plus_six_AcmsteeringV09_main_2lflm 0000000180377790 f   c185_six_plus_six_AcmsteeringV09_main_2lflm.obj
 0001:00376960       set_sim_state_c185_six_plus_six_AcmsteeringV09_main_2lflm 0000000180377960 f   c185_six_plus_six_AcmsteeringV09_main_2lflm.obj
 0001:00376ad0       c185_update_debugger_state_c185_six_plus_six_AcmsteeringV09_main 0000000180377ad0 f   c185_six_plus_six_AcmsteeringV09_main_2lflm.obj
 0001:00376ae0       c185_emlrt_marshallIn      0000000180377ae0 f   c185_six_plus_six_AcmsteeringV09_main_2lflm.obj
 0001:00376b50       c185_b_emlrt_marshallIn    0000000180377b50 f   c185_six_plus_six_AcmsteeringV09_main_2lflm.obj
 0001:00376be0       c185_e_emlrt_marshallIn    0000000180377be0 f   c185_six_plus_six_AcmsteeringV09_main_2lflm.obj
 0001:00376c40       c185_f_emlrt_marshallIn    0000000180377c40 f   c185_six_plus_six_AcmsteeringV09_main_2lflm.obj
 0001:00376d40       mdlProcessParameters_c185_six_plus_six_AcmsteeringV09_main_2lflm 0000000180377d40 f   c185_six_plus_six_AcmsteeringV09_main_2lflm.obj
 0001:00376e20       initialize_params_c185_six_plus_six_AcmsteeringV09_main_2lflm 0000000180377e20 f   c185_six_plus_six_AcmsteeringV09_main_2lflm.obj
 0001:00376e30       mdlSetWorkWidths_c185_six_plus_six_AcmsteeringV09_main_2lflm 0000000180377e30 f   c185_six_plus_six_AcmsteeringV09_main_2lflm.obj
 0001:00377360       sf_get_instance_specialization 0000000180378360 f   c185_six_plus_six_AcmsteeringV09_main_2lflm.obj
 0001:00377370       mdlStart_c185_six_plus_six_AcmsteeringV09_main_2lflm 0000000180378370 f   c185_six_plus_six_AcmsteeringV09_main_2lflm.obj
 0001:003775a0       init_dsm_address_info      00000001803785a0 f   c185_six_plus_six_AcmsteeringV09_main_2lflm.obj
 0001:003775b0       chart_debug_initialization 00000001803785b0 f   c185_six_plus_six_AcmsteeringV09_main_2lflm.obj
 0001:00378440       init_script_number_translation 0000000180379440 f   c185_six_plus_six_AcmsteeringV09_main_2lflm.obj
 0001:00378460       c185_sf_marshallOut        0000000180379460 f   c185_six_plus_six_AcmsteeringV09_main_2lflm.obj
 0001:00378520       c185_sf_marshallIn         0000000180379520 f   c185_six_plus_six_AcmsteeringV09_main_2lflm.obj
 0001:003785c0       c185_b_sf_marshallOut      00000001803795c0 f   c185_six_plus_six_AcmsteeringV09_main_2lflm.obj
 0001:00378670       sf_opaque_initialize_c185_six_plus_six_AcmsteeringV09_main_2lflm 0000000180379670 f   c185_six_plus_six_AcmsteeringV09_main_2lflm.obj
 0001:003786b0       initialize_c185_six_plus_six_AcmsteeringV09_main_2lflm 00000001803796b0 f   c185_six_plus_six_AcmsteeringV09_main_2lflm.obj
 0001:00378700       sf_opaque_enable_c185_six_plus_six_AcmsteeringV09_main_2lflm 0000000180379700 f   c185_six_plus_six_AcmsteeringV09_main_2lflm.obj
 0001:00378720       enable_c185_six_plus_six_AcmsteeringV09_main_2lflm 0000000180379720 f   c185_six_plus_six_AcmsteeringV09_main_2lflm.obj
 0001:00378750       sf_opaque_disable_c185_six_plus_six_AcmsteeringV09_main_2lflm 0000000180379750 f   c185_six_plus_six_AcmsteeringV09_main_2lflm.obj
 0001:00378770       disable_c185_six_plus_six_AcmsteeringV09_main_2lflm 0000000180379770 f   c185_six_plus_six_AcmsteeringV09_main_2lflm.obj
 0001:003787a0       sf_opaque_gateway_c185_six_plus_six_AcmsteeringV09_main_2lflm 00000001803797a0 f   c185_six_plus_six_AcmsteeringV09_main_2lflm.obj
 0001:003787c0       sf_gateway_c185_six_plus_six_AcmsteeringV09_main_2lflm 00000001803797c0 f   c185_six_plus_six_AcmsteeringV09_main_2lflm.obj
 0001:00379a60       c185_b_sf_marshallIn       000000018037aa60 f   c185_six_plus_six_AcmsteeringV09_main_2lflm.obj
 0001:00379b00       c185_c_emlrt_marshallIn    000000018037ab00 f   c185_six_plus_six_AcmsteeringV09_main_2lflm.obj
 0001:00379b90       sf_opaque_get_sim_state_c185_six_plus_six_AcmsteeringV09_main_2lflm 000000018037ab90 f   c185_six_plus_six_AcmsteeringV09_main_2lflm.obj
 0001:00379bb0       sf_opaque_set_sim_state_c185_six_plus_six_AcmsteeringV09_main_2lflm 000000018037abb0 f   c185_six_plus_six_AcmsteeringV09_main_2lflm.obj
 0001:00379be0       sf_opaque_terminate_c185_six_plus_six_AcmsteeringV09_main_2lflm 000000018037abe0 f   c185_six_plus_six_AcmsteeringV09_main_2lflm.obj
 0001:00379c80       finalize_c185_six_plus_six_AcmsteeringV09_main_2lflm 000000018037ac80 f   c185_six_plus_six_AcmsteeringV09_main_2lflm.obj
 0001:00379c90       sf_opaque_init_subchart_simstructs 000000018037ac90 f   c185_six_plus_six_AcmsteeringV09_main_2lflm.obj
 0001:00379cb0       initSimStructsc185_six_plus_six_AcmsteeringV09_main_2lflm 000000018037acb0 f   c185_six_plus_six_AcmsteeringV09_main_2lflm.obj
 0001:00379cc0       mdlRTW_c185_six_plus_six_AcmsteeringV09_main_2lflm 000000018037acc0 f   c185_six_plus_six_AcmsteeringV09_main_2lflm.obj
 0001:0037a380       get_sim_state_c186_six_plus_six_AcmsteeringV09_main_2lflm 000000018037b380 f   c186_six_plus_six_AcmsteeringV09_main_2lflm.obj
 0001:0037a520       sf_get_sim_state_info_c186_six_plus_six_AcmsteeringV09_main_2lflm 000000018037b520 f   c186_six_plus_six_AcmsteeringV09_main_2lflm.obj
 0001:0037a6f0       set_sim_state_c186_six_plus_six_AcmsteeringV09_main_2lflm 000000018037b6f0 f   c186_six_plus_six_AcmsteeringV09_main_2lflm.obj
 0001:0037a7d0       c186_update_debugger_state_c186_six_plus_six_AcmsteeringV09_main 000000018037b7d0 f   c186_six_plus_six_AcmsteeringV09_main_2lflm.obj
 0001:0037a7e0       c186_emlrt_marshallIn      000000018037b7e0 f   c186_six_plus_six_AcmsteeringV09_main_2lflm.obj
 0001:0037a850       c186_b_emlrt_marshallIn    000000018037b850 f   c186_six_plus_six_AcmsteeringV09_main_2lflm.obj
 0001:0037a8e0       c186_e_emlrt_marshallIn    000000018037b8e0 f   c186_six_plus_six_AcmsteeringV09_main_2lflm.obj
 0001:0037a940       c186_f_emlrt_marshallIn    000000018037b940 f   c186_six_plus_six_AcmsteeringV09_main_2lflm.obj
 0001:0037aa40       mdlProcessParameters_c186_six_plus_six_AcmsteeringV09_main_2lflm 000000018037ba40 f   c186_six_plus_six_AcmsteeringV09_main_2lflm.obj
 0001:0037ab20       initialize_params_c186_six_plus_six_AcmsteeringV09_main_2lflm 000000018037bb20 f   c186_six_plus_six_AcmsteeringV09_main_2lflm.obj
 0001:0037ab30       mdlSetWorkWidths_c186_six_plus_six_AcmsteeringV09_main_2lflm 000000018037bb30 f   c186_six_plus_six_AcmsteeringV09_main_2lflm.obj
 0001:0037b000       sf_get_instance_specialization 000000018037c000 f   c186_six_plus_six_AcmsteeringV09_main_2lflm.obj
 0001:0037b010       mdlStart_c186_six_plus_six_AcmsteeringV09_main_2lflm 000000018037c010 f   c186_six_plus_six_AcmsteeringV09_main_2lflm.obj
 0001:0037b240       init_dsm_address_info      000000018037c240 f   c186_six_plus_six_AcmsteeringV09_main_2lflm.obj
 0001:0037b250       chart_debug_initialization 000000018037c250 f   c186_six_plus_six_AcmsteeringV09_main_2lflm.obj
 0001:0037ba00       init_script_number_translation 000000018037ca00 f   c186_six_plus_six_AcmsteeringV09_main_2lflm.obj
 0001:0037ba20       c186_sf_marshallOut        000000018037ca20 f   c186_six_plus_six_AcmsteeringV09_main_2lflm.obj
 0001:0037bae0       c186_sf_marshallIn         000000018037cae0 f   c186_six_plus_six_AcmsteeringV09_main_2lflm.obj
 0001:0037bb80       sf_opaque_initialize_c186_six_plus_six_AcmsteeringV09_main_2lflm 000000018037cb80 f   c186_six_plus_six_AcmsteeringV09_main_2lflm.obj
 0001:0037bbc0       initialize_c186_six_plus_six_AcmsteeringV09_main_2lflm 000000018037cbc0 f   c186_six_plus_six_AcmsteeringV09_main_2lflm.obj
 0001:0037bc10       sf_opaque_enable_c186_six_plus_six_AcmsteeringV09_main_2lflm 000000018037cc10 f   c186_six_plus_six_AcmsteeringV09_main_2lflm.obj
 0001:0037bc30       enable_c186_six_plus_six_AcmsteeringV09_main_2lflm 000000018037cc30 f   c186_six_plus_six_AcmsteeringV09_main_2lflm.obj
 0001:0037bc60       sf_opaque_disable_c186_six_plus_six_AcmsteeringV09_main_2lflm 000000018037cc60 f   c186_six_plus_six_AcmsteeringV09_main_2lflm.obj
 0001:0037bc80       disable_c186_six_plus_six_AcmsteeringV09_main_2lflm 000000018037cc80 f   c186_six_plus_six_AcmsteeringV09_main_2lflm.obj
 0001:0037bcb0       sf_opaque_gateway_c186_six_plus_six_AcmsteeringV09_main_2lflm 000000018037ccb0 f   c186_six_plus_six_AcmsteeringV09_main_2lflm.obj
 0001:0037bcd0       sf_gateway_c186_six_plus_six_AcmsteeringV09_main_2lflm 000000018037ccd0 f   c186_six_plus_six_AcmsteeringV09_main_2lflm.obj
 0001:0037c3e0       c186_b_sf_marshallOut      000000018037d3e0 f   c186_six_plus_six_AcmsteeringV09_main_2lflm.obj
 0001:0037c490       c186_b_sf_marshallIn       000000018037d490 f   c186_six_plus_six_AcmsteeringV09_main_2lflm.obj
 0001:0037c530       c186_c_emlrt_marshallIn    000000018037d530 f   c186_six_plus_six_AcmsteeringV09_main_2lflm.obj
 0001:0037c5c0       sf_opaque_get_sim_state_c186_six_plus_six_AcmsteeringV09_main_2lflm 000000018037d5c0 f   c186_six_plus_six_AcmsteeringV09_main_2lflm.obj
 0001:0037c5e0       sf_opaque_set_sim_state_c186_six_plus_six_AcmsteeringV09_main_2lflm 000000018037d5e0 f   c186_six_plus_six_AcmsteeringV09_main_2lflm.obj
 0001:0037c610       sf_opaque_terminate_c186_six_plus_six_AcmsteeringV09_main_2lflm 000000018037d610 f   c186_six_plus_six_AcmsteeringV09_main_2lflm.obj
 0001:0037c6b0       finalize_c186_six_plus_six_AcmsteeringV09_main_2lflm 000000018037d6b0 f   c186_six_plus_six_AcmsteeringV09_main_2lflm.obj
 0001:0037c6c0       sf_opaque_init_subchart_simstructs 000000018037d6c0 f   c186_six_plus_six_AcmsteeringV09_main_2lflm.obj
 0001:0037c6e0       initSimStructsc186_six_plus_six_AcmsteeringV09_main_2lflm 000000018037d6e0 f   c186_six_plus_six_AcmsteeringV09_main_2lflm.obj
 0001:0037c6f0       mdlRTW_c186_six_plus_six_AcmsteeringV09_main_2lflm 000000018037d6f0 f   c186_six_plus_six_AcmsteeringV09_main_2lflm.obj
 0001:0037cdb0       get_sim_state_c187_six_plus_six_AcmsteeringV09_main_2lflm 000000018037ddb0 f   c187_six_plus_six_AcmsteeringV09_main_2lflm.obj
 0001:0037cf50       sf_get_sim_state_info_c187_six_plus_six_AcmsteeringV09_main_2lflm 000000018037df50 f   c187_six_plus_six_AcmsteeringV09_main_2lflm.obj
 0001:0037d120       set_sim_state_c187_six_plus_six_AcmsteeringV09_main_2lflm 000000018037e120 f   c187_six_plus_six_AcmsteeringV09_main_2lflm.obj
 0001:0037d200       c187_update_debugger_state_c187_six_plus_six_AcmsteeringV09_main 000000018037e200 f   c187_six_plus_six_AcmsteeringV09_main_2lflm.obj
 0001:0037d210       c187_emlrt_marshallIn      000000018037e210 f   c187_six_plus_six_AcmsteeringV09_main_2lflm.obj
 0001:0037d280       c187_b_emlrt_marshallIn    000000018037e280 f   c187_six_plus_six_AcmsteeringV09_main_2lflm.obj
 0001:0037d310       c187_e_emlrt_marshallIn    000000018037e310 f   c187_six_plus_six_AcmsteeringV09_main_2lflm.obj
 0001:0037d370       c187_f_emlrt_marshallIn    000000018037e370 f   c187_six_plus_six_AcmsteeringV09_main_2lflm.obj
 0001:0037d470       mdlProcessParameters_c187_six_plus_six_AcmsteeringV09_main_2lflm 000000018037e470 f   c187_six_plus_six_AcmsteeringV09_main_2lflm.obj
 0001:0037d550       initialize_params_c187_six_plus_six_AcmsteeringV09_main_2lflm 000000018037e550 f   c187_six_plus_six_AcmsteeringV09_main_2lflm.obj
 0001:0037d560       mdlSetWorkWidths_c187_six_plus_six_AcmsteeringV09_main_2lflm 000000018037e560 f   c187_six_plus_six_AcmsteeringV09_main_2lflm.obj
 0001:0037da30       sf_get_instance_specialization 000000018037ea30 f   c187_six_plus_six_AcmsteeringV09_main_2lflm.obj
 0001:0037da40       mdlStart_c187_six_plus_six_AcmsteeringV09_main_2lflm 000000018037ea40 f   c187_six_plus_six_AcmsteeringV09_main_2lflm.obj
 0001:0037dc70       init_dsm_address_info      000000018037ec70 f   c187_six_plus_six_AcmsteeringV09_main_2lflm.obj
 0001:0037dc80       chart_debug_initialization 000000018037ec80 f   c187_six_plus_six_AcmsteeringV09_main_2lflm.obj
 0001:0037e430       init_script_number_translation 000000018037f430 f   c187_six_plus_six_AcmsteeringV09_main_2lflm.obj
 0001:0037e450       c187_sf_marshallOut        000000018037f450 f   c187_six_plus_six_AcmsteeringV09_main_2lflm.obj
 0001:0037e510       c187_sf_marshallIn         000000018037f510 f   c187_six_plus_six_AcmsteeringV09_main_2lflm.obj
 0001:0037e5b0       sf_opaque_initialize_c187_six_plus_six_AcmsteeringV09_main_2lflm 000000018037f5b0 f   c187_six_plus_six_AcmsteeringV09_main_2lflm.obj
 0001:0037e5f0       initialize_c187_six_plus_six_AcmsteeringV09_main_2lflm 000000018037f5f0 f   c187_six_plus_six_AcmsteeringV09_main_2lflm.obj
 0001:0037e640       sf_opaque_enable_c187_six_plus_six_AcmsteeringV09_main_2lflm 000000018037f640 f   c187_six_plus_six_AcmsteeringV09_main_2lflm.obj
 0001:0037e660       enable_c187_six_plus_six_AcmsteeringV09_main_2lflm 000000018037f660 f   c187_six_plus_six_AcmsteeringV09_main_2lflm.obj
 0001:0037e690       sf_opaque_disable_c187_six_plus_six_AcmsteeringV09_main_2lflm 000000018037f690 f   c187_six_plus_six_AcmsteeringV09_main_2lflm.obj
 0001:0037e6b0       disable_c187_six_plus_six_AcmsteeringV09_main_2lflm 000000018037f6b0 f   c187_six_plus_six_AcmsteeringV09_main_2lflm.obj
 0001:0037e6e0       sf_opaque_gateway_c187_six_plus_six_AcmsteeringV09_main_2lflm 000000018037f6e0 f   c187_six_plus_six_AcmsteeringV09_main_2lflm.obj
 0001:0037e700       sf_gateway_c187_six_plus_six_AcmsteeringV09_main_2lflm 000000018037f700 f   c187_six_plus_six_AcmsteeringV09_main_2lflm.obj
 0001:0037ee20       c187_b_sf_marshallOut      000000018037fe20 f   c187_six_plus_six_AcmsteeringV09_main_2lflm.obj
 0001:0037eed0       c187_b_sf_marshallIn       000000018037fed0 f   c187_six_plus_six_AcmsteeringV09_main_2lflm.obj
 0001:0037ef70       c187_c_emlrt_marshallIn    000000018037ff70 f   c187_six_plus_six_AcmsteeringV09_main_2lflm.obj
 0001:0037f000       sf_opaque_get_sim_state_c187_six_plus_six_AcmsteeringV09_main_2lflm 0000000180380000 f   c187_six_plus_six_AcmsteeringV09_main_2lflm.obj
 0001:0037f020       sf_opaque_set_sim_state_c187_six_plus_six_AcmsteeringV09_main_2lflm 0000000180380020 f   c187_six_plus_six_AcmsteeringV09_main_2lflm.obj
 0001:0037f050       sf_opaque_terminate_c187_six_plus_six_AcmsteeringV09_main_2lflm 0000000180380050 f   c187_six_plus_six_AcmsteeringV09_main_2lflm.obj
 0001:0037f0f0       finalize_c187_six_plus_six_AcmsteeringV09_main_2lflm 00000001803800f0 f   c187_six_plus_six_AcmsteeringV09_main_2lflm.obj
 0001:0037f100       sf_opaque_init_subchart_simstructs 0000000180380100 f   c187_six_plus_six_AcmsteeringV09_main_2lflm.obj
 0001:0037f120       initSimStructsc187_six_plus_six_AcmsteeringV09_main_2lflm 0000000180380120 f   c187_six_plus_six_AcmsteeringV09_main_2lflm.obj
 0001:0037f130       mdlRTW_c187_six_plus_six_AcmsteeringV09_main_2lflm 0000000180380130 f   c187_six_plus_six_AcmsteeringV09_main_2lflm.obj
 0001:0037f7f0       get_sim_state_c188_six_plus_six_AcmsteeringV09_main_2lflm 00000001803807f0 f   c188_six_plus_six_AcmsteeringV09_main_2lflm.obj
 0001:0037f990       sf_get_sim_state_info_c188_six_plus_six_AcmsteeringV09_main_2lflm 0000000180380990 f   c188_six_plus_six_AcmsteeringV09_main_2lflm.obj
 0001:0037fb60       set_sim_state_c188_six_plus_six_AcmsteeringV09_main_2lflm 0000000180380b60 f   c188_six_plus_six_AcmsteeringV09_main_2lflm.obj
 0001:0037fc40       c188_update_debugger_state_c188_six_plus_six_AcmsteeringV09_main 0000000180380c40 f   c188_six_plus_six_AcmsteeringV09_main_2lflm.obj
 0001:0037fc50       c188_emlrt_marshallIn      0000000180380c50 f   c188_six_plus_six_AcmsteeringV09_main_2lflm.obj
 0001:0037fcc0       c188_b_emlrt_marshallIn    0000000180380cc0 f   c188_six_plus_six_AcmsteeringV09_main_2lflm.obj
 0001:0037fd50       c188_e_emlrt_marshallIn    0000000180380d50 f   c188_six_plus_six_AcmsteeringV09_main_2lflm.obj
 0001:0037fdb0       c188_f_emlrt_marshallIn    0000000180380db0 f   c188_six_plus_six_AcmsteeringV09_main_2lflm.obj
 0001:0037feb0       mdlProcessParameters_c188_six_plus_six_AcmsteeringV09_main_2lflm 0000000180380eb0 f   c188_six_plus_six_AcmsteeringV09_main_2lflm.obj
 0001:0037ff90       initialize_params_c188_six_plus_six_AcmsteeringV09_main_2lflm 0000000180380f90 f   c188_six_plus_six_AcmsteeringV09_main_2lflm.obj
 0001:0037ffa0       mdlSetWorkWidths_c188_six_plus_six_AcmsteeringV09_main_2lflm 0000000180380fa0 f   c188_six_plus_six_AcmsteeringV09_main_2lflm.obj
 0001:00380470       sf_get_instance_specialization 0000000180381470 f   c188_six_plus_six_AcmsteeringV09_main_2lflm.obj
 0001:00380480       mdlStart_c188_six_plus_six_AcmsteeringV09_main_2lflm 0000000180381480 f   c188_six_plus_six_AcmsteeringV09_main_2lflm.obj
 0001:003806b0       init_dsm_address_info      00000001803816b0 f   c188_six_plus_six_AcmsteeringV09_main_2lflm.obj
 0001:003806c0       chart_debug_initialization 00000001803816c0 f   c188_six_plus_six_AcmsteeringV09_main_2lflm.obj
 0001:00380e70       init_script_number_translation 0000000180381e70 f   c188_six_plus_six_AcmsteeringV09_main_2lflm.obj
 0001:00380e90       c188_sf_marshallOut        0000000180381e90 f   c188_six_plus_six_AcmsteeringV09_main_2lflm.obj
 0001:00380f50       c188_sf_marshallIn         0000000180381f50 f   c188_six_plus_six_AcmsteeringV09_main_2lflm.obj
 0001:00380ff0       sf_opaque_initialize_c188_six_plus_six_AcmsteeringV09_main_2lflm 0000000180381ff0 f   c188_six_plus_six_AcmsteeringV09_main_2lflm.obj
 0001:00381030       initialize_c188_six_plus_six_AcmsteeringV09_main_2lflm 0000000180382030 f   c188_six_plus_six_AcmsteeringV09_main_2lflm.obj
 0001:00381080       sf_opaque_enable_c188_six_plus_six_AcmsteeringV09_main_2lflm 0000000180382080 f   c188_six_plus_six_AcmsteeringV09_main_2lflm.obj
 0001:003810a0       enable_c188_six_plus_six_AcmsteeringV09_main_2lflm 00000001803820a0 f   c188_six_plus_six_AcmsteeringV09_main_2lflm.obj
 0001:003810d0       sf_opaque_disable_c188_six_plus_six_AcmsteeringV09_main_2lflm 00000001803820d0 f   c188_six_plus_six_AcmsteeringV09_main_2lflm.obj
 0001:003810f0       disable_c188_six_plus_six_AcmsteeringV09_main_2lflm 00000001803820f0 f   c188_six_plus_six_AcmsteeringV09_main_2lflm.obj
 0001:00381120       sf_opaque_gateway_c188_six_plus_six_AcmsteeringV09_main_2lflm 0000000180382120 f   c188_six_plus_six_AcmsteeringV09_main_2lflm.obj
 0001:00381140       sf_gateway_c188_six_plus_six_AcmsteeringV09_main_2lflm 0000000180382140 f   c188_six_plus_six_AcmsteeringV09_main_2lflm.obj
 0001:00381860       c188_b_sf_marshallOut      0000000180382860 f   c188_six_plus_six_AcmsteeringV09_main_2lflm.obj
 0001:00381910       c188_b_sf_marshallIn       0000000180382910 f   c188_six_plus_six_AcmsteeringV09_main_2lflm.obj
 0001:003819b0       c188_c_emlrt_marshallIn    00000001803829b0 f   c188_six_plus_six_AcmsteeringV09_main_2lflm.obj
 0001:00381a40       sf_opaque_get_sim_state_c188_six_plus_six_AcmsteeringV09_main_2lflm 0000000180382a40 f   c188_six_plus_six_AcmsteeringV09_main_2lflm.obj
 0001:00381a60       sf_opaque_set_sim_state_c188_six_plus_six_AcmsteeringV09_main_2lflm 0000000180382a60 f   c188_six_plus_six_AcmsteeringV09_main_2lflm.obj
 0001:00381a90       sf_opaque_terminate_c188_six_plus_six_AcmsteeringV09_main_2lflm 0000000180382a90 f   c188_six_plus_six_AcmsteeringV09_main_2lflm.obj
 0001:00381b30       finalize_c188_six_plus_six_AcmsteeringV09_main_2lflm 0000000180382b30 f   c188_six_plus_six_AcmsteeringV09_main_2lflm.obj
 0001:00381b40       sf_opaque_init_subchart_simstructs 0000000180382b40 f   c188_six_plus_six_AcmsteeringV09_main_2lflm.obj
 0001:00381b60       initSimStructsc188_six_plus_six_AcmsteeringV09_main_2lflm 0000000180382b60 f   c188_six_plus_six_AcmsteeringV09_main_2lflm.obj
 0001:00381b70       mdlRTW_c188_six_plus_six_AcmsteeringV09_main_2lflm 0000000180382b70 f   c188_six_plus_six_AcmsteeringV09_main_2lflm.obj
 0001:00382230       get_sim_state_c195_six_plus_six_AcmsteeringV09_main_2lflm 0000000180383230 f   c195_six_plus_six_AcmsteeringV09_main_2lflm.obj
 0001:003823d0       sf_get_sim_state_info_c195_six_plus_six_AcmsteeringV09_main_2lflm 00000001803833d0 f   c195_six_plus_six_AcmsteeringV09_main_2lflm.obj
 0001:003825a0       set_sim_state_c195_six_plus_six_AcmsteeringV09_main_2lflm 00000001803835a0 f   c195_six_plus_six_AcmsteeringV09_main_2lflm.obj
 0001:00382680       c195_update_debugger_state_c195_six_plus_six_AcmsteeringV09_main 0000000180383680 f   c195_six_plus_six_AcmsteeringV09_main_2lflm.obj
 0001:00382690       c195_emlrt_marshallIn      0000000180383690 f   c195_six_plus_six_AcmsteeringV09_main_2lflm.obj
 0001:00382700       c195_b_emlrt_marshallIn    0000000180383700 f   c195_six_plus_six_AcmsteeringV09_main_2lflm.obj
 0001:00382790       c195_e_emlrt_marshallIn    0000000180383790 f   c195_six_plus_six_AcmsteeringV09_main_2lflm.obj
 0001:003827f0       c195_f_emlrt_marshallIn    00000001803837f0 f   c195_six_plus_six_AcmsteeringV09_main_2lflm.obj
 0001:003828f0       mdlProcessParameters_c195_six_plus_six_AcmsteeringV09_main_2lflm 00000001803838f0 f   c195_six_plus_six_AcmsteeringV09_main_2lflm.obj
 0001:003829d0       initialize_params_c195_six_plus_six_AcmsteeringV09_main_2lflm 00000001803839d0 f   c195_six_plus_six_AcmsteeringV09_main_2lflm.obj
 0001:003829e0       mdlSetWorkWidths_c195_six_plus_six_AcmsteeringV09_main_2lflm 00000001803839e0 f   c195_six_plus_six_AcmsteeringV09_main_2lflm.obj
 0001:00382eb0       sf_get_instance_specialization 0000000180383eb0 f   c195_six_plus_six_AcmsteeringV09_main_2lflm.obj
 0001:00382ec0       mdlStart_c195_six_plus_six_AcmsteeringV09_main_2lflm 0000000180383ec0 f   c195_six_plus_six_AcmsteeringV09_main_2lflm.obj
 0001:003830f0       init_dsm_address_info      00000001803840f0 f   c195_six_plus_six_AcmsteeringV09_main_2lflm.obj
 0001:00383100       chart_debug_initialization 0000000180384100 f   c195_six_plus_six_AcmsteeringV09_main_2lflm.obj
 0001:003838b0       init_script_number_translation 00000001803848b0 f   c195_six_plus_six_AcmsteeringV09_main_2lflm.obj
 0001:003838d0       c195_sf_marshallOut        00000001803848d0 f   c195_six_plus_six_AcmsteeringV09_main_2lflm.obj
 0001:00383990       c195_sf_marshallIn         0000000180384990 f   c195_six_plus_six_AcmsteeringV09_main_2lflm.obj
 0001:00383a30       sf_opaque_initialize_c195_six_plus_six_AcmsteeringV09_main_2lflm 0000000180384a30 f   c195_six_plus_six_AcmsteeringV09_main_2lflm.obj
 0001:00383a70       initialize_c195_six_plus_six_AcmsteeringV09_main_2lflm 0000000180384a70 f   c195_six_plus_six_AcmsteeringV09_main_2lflm.obj
 0001:00383ac0       sf_opaque_enable_c195_six_plus_six_AcmsteeringV09_main_2lflm 0000000180384ac0 f   c195_six_plus_six_AcmsteeringV09_main_2lflm.obj
 0001:00383ae0       enable_c195_six_plus_six_AcmsteeringV09_main_2lflm 0000000180384ae0 f   c195_six_plus_six_AcmsteeringV09_main_2lflm.obj
 0001:00383b10       sf_opaque_disable_c195_six_plus_six_AcmsteeringV09_main_2lflm 0000000180384b10 f   c195_six_plus_six_AcmsteeringV09_main_2lflm.obj
 0001:00383b30       disable_c195_six_plus_six_AcmsteeringV09_main_2lflm 0000000180384b30 f   c195_six_plus_six_AcmsteeringV09_main_2lflm.obj
 0001:00383b60       sf_opaque_gateway_c195_six_plus_six_AcmsteeringV09_main_2lflm 0000000180384b60 f   c195_six_plus_six_AcmsteeringV09_main_2lflm.obj
 0001:00383b80       sf_gateway_c195_six_plus_six_AcmsteeringV09_main_2lflm 0000000180384b80 f   c195_six_plus_six_AcmsteeringV09_main_2lflm.obj
 0001:00384290       c195_b_sf_marshallOut      0000000180385290 f   c195_six_plus_six_AcmsteeringV09_main_2lflm.obj
 0001:00384340       c195_b_sf_marshallIn       0000000180385340 f   c195_six_plus_six_AcmsteeringV09_main_2lflm.obj
 0001:003843e0       c195_c_emlrt_marshallIn    00000001803853e0 f   c195_six_plus_six_AcmsteeringV09_main_2lflm.obj
 0001:00384470       sf_opaque_get_sim_state_c195_six_plus_six_AcmsteeringV09_main_2lflm 0000000180385470 f   c195_six_plus_six_AcmsteeringV09_main_2lflm.obj
 0001:00384490       sf_opaque_set_sim_state_c195_six_plus_six_AcmsteeringV09_main_2lflm 0000000180385490 f   c195_six_plus_six_AcmsteeringV09_main_2lflm.obj
 0001:003844c0       sf_opaque_terminate_c195_six_plus_six_AcmsteeringV09_main_2lflm 00000001803854c0 f   c195_six_plus_six_AcmsteeringV09_main_2lflm.obj
 0001:00384560       finalize_c195_six_plus_six_AcmsteeringV09_main_2lflm 0000000180385560 f   c195_six_plus_six_AcmsteeringV09_main_2lflm.obj
 0001:00384570       sf_opaque_init_subchart_simstructs 0000000180385570 f   c195_six_plus_six_AcmsteeringV09_main_2lflm.obj
 0001:00384590       initSimStructsc195_six_plus_six_AcmsteeringV09_main_2lflm 0000000180385590 f   c195_six_plus_six_AcmsteeringV09_main_2lflm.obj
 0001:003845a0       mdlRTW_c195_six_plus_six_AcmsteeringV09_main_2lflm 00000001803855a0 f   c195_six_plus_six_AcmsteeringV09_main_2lflm.obj
 0001:00385a80       get_sim_state_c199_six_plus_six_AcmsteeringV09_main_2lflm 0000000180386a80 f   c199_six_plus_six_AcmsteeringV09_main_2lflm.obj
 0001:00386010       sf_get_sim_state_info_c199_six_plus_six_AcmsteeringV09_main_2lflm 0000000180387010 f   c199_six_plus_six_AcmsteeringV09_main_2lflm.obj
 0001:003861e0       set_sim_state_c199_six_plus_six_AcmsteeringV09_main_2lflm 00000001803871e0 f   c199_six_plus_six_AcmsteeringV09_main_2lflm.obj
 0001:00386440       c199_update_debugger_state_c199_six_plus_six_AcmsteeringV09_main 0000000180387440 f   c199_six_plus_six_AcmsteeringV09_main_2lflm.obj
 0001:00386450       c199_emlrt_marshallIn      0000000180387450 f   c199_six_plus_six_AcmsteeringV09_main_2lflm.obj
 0001:003864c0       c199_b_emlrt_marshallIn    00000001803874c0 f   c199_six_plus_six_AcmsteeringV09_main_2lflm.obj
 0001:00386550       c199_e_emlrt_marshallIn    0000000180387550 f   c199_six_plus_six_AcmsteeringV09_main_2lflm.obj
 0001:003865b0       c199_f_emlrt_marshallIn    00000001803875b0 f   c199_six_plus_six_AcmsteeringV09_main_2lflm.obj
 0001:003866b0       mdlProcessParameters_c199_six_plus_six_AcmsteeringV09_main_2lflm 00000001803876b0 f   c199_six_plus_six_AcmsteeringV09_main_2lflm.obj
 0001:00386790       initialize_params_c199_six_plus_six_AcmsteeringV09_main_2lflm 0000000180387790 f   c199_six_plus_six_AcmsteeringV09_main_2lflm.obj
 0001:003867a0       mdlSetWorkWidths_c199_six_plus_six_AcmsteeringV09_main_2lflm 00000001803877a0 f   c199_six_plus_six_AcmsteeringV09_main_2lflm.obj
 0001:00386d90       sf_get_instance_specialization 0000000180387d90 f   c199_six_plus_six_AcmsteeringV09_main_2lflm.obj
 0001:00386da0       mdlStart_c199_six_plus_six_AcmsteeringV09_main_2lflm 0000000180387da0 f   c199_six_plus_six_AcmsteeringV09_main_2lflm.obj
 0001:00386fd0       init_dsm_address_info      0000000180387fd0 f   c199_six_plus_six_AcmsteeringV09_main_2lflm.obj
 0001:00386fe0       chart_debug_initialization 0000000180387fe0 f   c199_six_plus_six_AcmsteeringV09_main_2lflm.obj
 0001:003886c0       init_script_number_translation 00000001803896c0 f   c199_six_plus_six_AcmsteeringV09_main_2lflm.obj
 0001:003886e0       c199_sf_marshallOut        00000001803896e0 f   c199_six_plus_six_AcmsteeringV09_main_2lflm.obj
 0001:003887a0       c199_sf_marshallIn         00000001803897a0 f   c199_six_plus_six_AcmsteeringV09_main_2lflm.obj
 0001:00388840       c199_b_sf_marshallOut      0000000180389840 f   c199_six_plus_six_AcmsteeringV09_main_2lflm.obj
 0001:003888f0       sf_opaque_initialize_c199_six_plus_six_AcmsteeringV09_main_2lflm 00000001803898f0 f   c199_six_plus_six_AcmsteeringV09_main_2lflm.obj
 0001:00388930       initialize_c199_six_plus_six_AcmsteeringV09_main_2lflm 0000000180389930 f   c199_six_plus_six_AcmsteeringV09_main_2lflm.obj
 0001:00388980       sf_opaque_enable_c199_six_plus_six_AcmsteeringV09_main_2lflm 0000000180389980 f   c199_six_plus_six_AcmsteeringV09_main_2lflm.obj
 0001:003889a0       enable_c199_six_plus_six_AcmsteeringV09_main_2lflm 00000001803899a0 f   c199_six_plus_six_AcmsteeringV09_main_2lflm.obj
 0001:003889d0       sf_opaque_disable_c199_six_plus_six_AcmsteeringV09_main_2lflm 00000001803899d0 f   c199_six_plus_six_AcmsteeringV09_main_2lflm.obj
 0001:003889f0       disable_c199_six_plus_six_AcmsteeringV09_main_2lflm 00000001803899f0 f   c199_six_plus_six_AcmsteeringV09_main_2lflm.obj
 0001:00388a20       sf_opaque_gateway_c199_six_plus_six_AcmsteeringV09_main_2lflm 0000000180389a20 f   c199_six_plus_six_AcmsteeringV09_main_2lflm.obj
 0001:00388a40       sf_gateway_c199_six_plus_six_AcmsteeringV09_main_2lflm 0000000180389a40 f   c199_six_plus_six_AcmsteeringV09_main_2lflm.obj
 0001:00389db0       c199_c_sf_marshallOut      000000018038adb0 f   c199_six_plus_six_AcmsteeringV09_main_2lflm.obj
 0001:00389e60       c199_b_sf_marshallIn       000000018038ae60 f   c199_six_plus_six_AcmsteeringV09_main_2lflm.obj
 0001:00389f00       c199_c_emlrt_marshallIn    000000018038af00 f   c199_six_plus_six_AcmsteeringV09_main_2lflm.obj
 0001:00389f90       sf_opaque_get_sim_state_c199_six_plus_six_AcmsteeringV09_main_2lflm 000000018038af90 f   c199_six_plus_six_AcmsteeringV09_main_2lflm.obj
 0001:00389fb0       sf_opaque_set_sim_state_c199_six_plus_six_AcmsteeringV09_main_2lflm 000000018038afb0 f   c199_six_plus_six_AcmsteeringV09_main_2lflm.obj
 0001:00389fe0       sf_opaque_terminate_c199_six_plus_six_AcmsteeringV09_main_2lflm 000000018038afe0 f   c199_six_plus_six_AcmsteeringV09_main_2lflm.obj
 0001:0038a080       finalize_c199_six_plus_six_AcmsteeringV09_main_2lflm 000000018038b080 f   c199_six_plus_six_AcmsteeringV09_main_2lflm.obj
 0001:0038a090       sf_opaque_init_subchart_simstructs 000000018038b090 f   c199_six_plus_six_AcmsteeringV09_main_2lflm.obj
 0001:0038a0b0       initSimStructsc199_six_plus_six_AcmsteeringV09_main_2lflm 000000018038b0b0 f   c199_six_plus_six_AcmsteeringV09_main_2lflm.obj
 0001:0038a0c0       mdlRTW_c199_six_plus_six_AcmsteeringV09_main_2lflm 000000018038b0c0 f   c199_six_plus_six_AcmsteeringV09_main_2lflm.obj
 0001:0038aa30       getChartInfoFromSimStruct  000000018038ba30 f   six_plus_six_AcmsteeringV09_main_2lflm_sfun_registry.obj
 0001:0038c0d0       _ssFatalError              000000018038d0d0 f   six_plus_six_AcmsteeringV09_main_2lflm_sfun_registry.obj
 0001:0038f180       ProcessMexSfunctionCmdLineCall 0000000180390180 f   six_plus_six_AcmsteeringV09_main_2lflm_sfun_registry.obj
 0001:0038f2b0       sf_debug_api_wrapper       00000001803902b0 f   six_plus_six_AcmsteeringV09_main_2lflm_sfun_registry.obj
 0001:0038f300       mdlStart                   0000000180390300 f   six_plus_six_AcmsteeringV09_main_2lflm_sfun_registry.obj
 0001:0038f330       mdl_start_processing       0000000180390330 f   six_plus_six_AcmsteeringV09_main_2lflm_sfun_registry.obj
 0001:0038f3c0       mdlTerminate               00000001803903c0 f   six_plus_six_AcmsteeringV09_main_2lflm_sfun_registry.obj
 0001:0038f3f0       mdl_terminate_processing   00000001803903f0 f   six_plus_six_AcmsteeringV09_main_2lflm_sfun_registry.obj
 0001:0038f470       mdlInitializeSampleTimes   0000000180390470 f   six_plus_six_AcmsteeringV09_main_2lflm_sfun_registry.obj
 0001:0038f4a0       mdlZeroCrossings           00000001803904a0 f   six_plus_six_AcmsteeringV09_main_2lflm_sfun_registry.obj
 0001:0038f4d0       mdl_zeroCrossings_processing 00000001803904d0 f   six_plus_six_AcmsteeringV09_main_2lflm_sfun_registry.obj
 0001:0038f510       mdlDerivatives             0000000180390510 f   six_plus_six_AcmsteeringV09_main_2lflm_sfun_registry.obj
 0001:0038f540       mdl_derivatives_processing 0000000180390540 f   six_plus_six_AcmsteeringV09_main_2lflm_sfun_registry.obj
 0001:0038f590       mdlInitializeConditions    0000000180390590 f   six_plus_six_AcmsteeringV09_main_2lflm_sfun_registry.obj
 0001:0038f5c0       mdl_initialize_conditions_processing 00000001803905c0 f   six_plus_six_AcmsteeringV09_main_2lflm_sfun_registry.obj
 0001:0038f610       mdlEnable                  0000000180390610 f   six_plus_six_AcmsteeringV09_main_2lflm_sfun_registry.obj
 0001:0038f640       mdl_enable_processing      0000000180390640 f   six_plus_six_AcmsteeringV09_main_2lflm_sfun_registry.obj
 0001:0038f680       mdlDisable                 0000000180390680 f   six_plus_six_AcmsteeringV09_main_2lflm_sfun_registry.obj
 0001:0038f6b0       mdl_disable_processing     00000001803906b0 f   six_plus_six_AcmsteeringV09_main_2lflm_sfun_registry.obj
 0001:0038f6f0       mdlOutputs                 00000001803906f0 f   six_plus_six_AcmsteeringV09_main_2lflm_sfun_registry.obj
 0001:0038f720       mdl_outputs_processing     0000000180390720 f   six_plus_six_AcmsteeringV09_main_2lflm_sfun_registry.obj
 0001:0038f800       mdl_outputs_continuous_legacy 0000000180390800 f   six_plus_six_AcmsteeringV09_main_2lflm_sfun_registry.obj
 0001:0038f8f0       mdlGetTimeOfNextVarHit     00000001803908f0 f   six_plus_six_AcmsteeringV09_main_2lflm_sfun_registry.obj
 0001:0038f940       _ProcessMexSfunctionCmdLineCall 0000000180390940 f   six_plus_six_AcmsteeringV09_main_2lflm_sfun_registry.obj
 0001:00390090       mdlSetWorkWidths           0000000180391090 f   six_plus_six_AcmsteeringV09_main_2lflm_sfun_registry.obj
 0001:003900c0       mdlProcessParameters       00000001803910c0 f   six_plus_six_AcmsteeringV09_main_2lflm_sfun_registry.obj
 0001:003900f0       mdlInitializeSizes         00000001803910f0 f   six_plus_six_AcmsteeringV09_main_2lflm_sfun_registry.obj
 0001:00390120       mdlExtModeExec             0000000180391120 f   six_plus_six_AcmsteeringV09_main_2lflm_sfun_registry.obj
 0001:00390150       mdl_ext_mode_exec_processing 0000000180391150 f   six_plus_six_AcmsteeringV09_main_2lflm_sfun_registry.obj
 0001:00390190       mdlRTW                     0000000180391190 f   six_plus_six_AcmsteeringV09_main_2lflm_sfun_registry.obj
 0001:003901d0       _CreateSimStruct           00000001803911d0 f   six_plus_six_AcmsteeringV09_main_2lflm_sfun_registry.obj
 0001:00390360       _RegNumInputPortsCB        0000000180391360 f   six_plus_six_AcmsteeringV09_main_2lflm_sfun_registry.obj
 0001:003903e0       _RegNumOutputPortsCB       00000001803913e0 f   six_plus_six_AcmsteeringV09_main_2lflm_sfun_registry.obj
 0001:00390998       pre_c_init                 0000000180391998 f   MSVCRT:crtdll.obj
 0001:00390c54       __DllMainCRTStartup        0000000180391c54 f   MSVCRT:crtdll.obj
 0001:003912c0       __DllMainCRTStartup$filt$0 00000001803922c0 f   MSVCRT:crtdll.obj
 0001:003912f0       __DllMainCRTStartup$fin$1  00000001803922f0 f   MSVCRT:crtdll.obj
 0001:0039130a       _onexit$fin$0              000000018039230a f   MSVCRT:atonexit.obj
 0001:00391330       _IsNonwritableInCurrentImage$filt$0 0000000180392330 f   MSVCRT:pesect.obj
